
./rv32i_main.elf:     file format elf32-littleriscv


Disassembly of section .text:

00000000 <my_start>:
   0:	00007137          	lui	sp,0x7
   4:	e8410113          	addi	sp,sp,-380 # 6e84 <verify_data+0xff8>
   8:	004000ef          	jal	ra,c <main>

0000000c <main>:
   c:	00000093          	li	ra,0
  10:	00000293          	li	t0,0
  14:	00000313          	li	t1,0
  18:	00000393          	li	t2,0
  1c:	00000413          	li	s0,0
  20:	00000493          	li	s1,0
  24:	00000513          	li	a0,0
  28:	00000593          	li	a1,0
  2c:	00000613          	li	a2,0
  30:	00000693          	li	a3,0
  34:	00000713          	li	a4,0
  38:	00000793          	li	a5,0
  3c:	00000813          	li	a6,0
  40:	00000893          	li	a7,0
  44:	00000913          	li	s2,0
  48:	00000993          	li	s3,0
  4c:	00000a13          	li	s4,0
  50:	00000a93          	li	s5,0
  54:	00000b13          	li	s6,0
  58:	00000b93          	li	s7,0
  5c:	00000c13          	li	s8,0
  60:	00000c93          	li	s9,0
  64:	00000d13          	li	s10,0
  68:	00000d93          	li	s11,0
  6c:	00000e13          	li	t3,0
  70:	00000e93          	li	t4,0
  74:	00000f13          	li	t5,0
  78:	00000f93          	li	t6,0
  7c:	304000ef          	jal	ra,380 <my_main>
  80:	010007b7          	lui	a5,0x1000
  84:	ffc78793          	addi	a5,a5,-4 # fffffc <__global_pointer$+0xff81a0>
  88:	01000737          	lui	a4,0x1000
  8c:	ffc70713          	addi	a4,a4,-4 # fffffc <__global_pointer$+0xff81a0>
  90:	00e7a023          	sw	a4,0(a5)

00000094 <loop>:
  94:	0000006f          	j	94 <loop>

00000098 <spmv>:
  98:	fb010113          	addi	sp,sp,-80
  9c:	04112623          	sw	ra,76(sp)
  a0:	04812423          	sw	s0,72(sp)
  a4:	05010413          	addi	s0,sp,80
  a8:	fca42623          	sw	a0,-52(s0)
  ac:	fcb42423          	sw	a1,-56(s0)
  b0:	fcc42223          	sw	a2,-60(s0)
  b4:	fcd42023          	sw	a3,-64(s0)
  b8:	fae42e23          	sw	a4,-68(s0)
  bc:	faf42c23          	sw	a5,-72(s0)
  c0:	fe042623          	sw	zero,-20(s0)
  c4:	29c0006f          	j	360 <spmv+0x2c8>
  c8:	fe042223          	sw	zero,-28(s0)
  cc:	fe042023          	sw	zero,-32(s0)
  d0:	fc042e23          	sw	zero,-36(s0)
  d4:	fc042c23          	sw	zero,-40(s0)
  d8:	fec42783          	lw	a5,-20(s0)
  dc:	00279793          	slli	a5,a5,0x2
  e0:	fbc42703          	lw	a4,-68(s0)
  e4:	00f707b3          	add	a5,a4,a5
  e8:	0007a783          	lw	a5,0(a5)
  ec:	fef42423          	sw	a5,-24(s0)
  f0:	1880006f          	j	278 <spmv+0x1e0>
  f4:	fe842783          	lw	a5,-24(s0)
  f8:	00279793          	slli	a5,a5,0x2
  fc:	fc842703          	lw	a4,-56(s0)
 100:	00f707b3          	add	a5,a4,a5
 104:	0007a683          	lw	a3,0(a5)
 108:	fe842783          	lw	a5,-24(s0)
 10c:	00279793          	slli	a5,a5,0x2
 110:	fc442703          	lw	a4,-60(s0)
 114:	00f707b3          	add	a5,a4,a5
 118:	0007a783          	lw	a5,0(a5)
 11c:	00279793          	slli	a5,a5,0x2
 120:	fc042703          	lw	a4,-64(s0)
 124:	00f707b3          	add	a5,a4,a5
 128:	0007a783          	lw	a5,0(a5)
 12c:	00078593          	mv	a1,a5
 130:	00068513          	mv	a0,a3
 134:	298000ef          	jal	ra,3cc <__mulsi3>
 138:	00050793          	mv	a5,a0
 13c:	00078713          	mv	a4,a5
 140:	fe442783          	lw	a5,-28(s0)
 144:	00e787b3          	add	a5,a5,a4
 148:	fef42223          	sw	a5,-28(s0)
 14c:	fe842783          	lw	a5,-24(s0)
 150:	00178793          	addi	a5,a5,1
 154:	00279793          	slli	a5,a5,0x2
 158:	fc842703          	lw	a4,-56(s0)
 15c:	00f707b3          	add	a5,a4,a5
 160:	0007a683          	lw	a3,0(a5)
 164:	fe842783          	lw	a5,-24(s0)
 168:	00178793          	addi	a5,a5,1
 16c:	00279793          	slli	a5,a5,0x2
 170:	fc442703          	lw	a4,-60(s0)
 174:	00f707b3          	add	a5,a4,a5
 178:	0007a783          	lw	a5,0(a5)
 17c:	00279793          	slli	a5,a5,0x2
 180:	fc042703          	lw	a4,-64(s0)
 184:	00f707b3          	add	a5,a4,a5
 188:	0007a783          	lw	a5,0(a5)
 18c:	00078593          	mv	a1,a5
 190:	00068513          	mv	a0,a3
 194:	238000ef          	jal	ra,3cc <__mulsi3>
 198:	00050793          	mv	a5,a0
 19c:	00078713          	mv	a4,a5
 1a0:	fe042783          	lw	a5,-32(s0)
 1a4:	00e787b3          	add	a5,a5,a4
 1a8:	fef42023          	sw	a5,-32(s0)
 1ac:	fe842783          	lw	a5,-24(s0)
 1b0:	00278793          	addi	a5,a5,2
 1b4:	00279793          	slli	a5,a5,0x2
 1b8:	fc842703          	lw	a4,-56(s0)
 1bc:	00f707b3          	add	a5,a4,a5
 1c0:	0007a683          	lw	a3,0(a5)
 1c4:	fe842783          	lw	a5,-24(s0)
 1c8:	00278793          	addi	a5,a5,2
 1cc:	00279793          	slli	a5,a5,0x2
 1d0:	fc442703          	lw	a4,-60(s0)
 1d4:	00f707b3          	add	a5,a4,a5
 1d8:	0007a783          	lw	a5,0(a5)
 1dc:	00279793          	slli	a5,a5,0x2
 1e0:	fc042703          	lw	a4,-64(s0)
 1e4:	00f707b3          	add	a5,a4,a5
 1e8:	0007a783          	lw	a5,0(a5)
 1ec:	00078593          	mv	a1,a5
 1f0:	00068513          	mv	a0,a3
 1f4:	1d8000ef          	jal	ra,3cc <__mulsi3>
 1f8:	00050793          	mv	a5,a0
 1fc:	00078713          	mv	a4,a5
 200:	fdc42783          	lw	a5,-36(s0)
 204:	00e787b3          	add	a5,a5,a4
 208:	fcf42e23          	sw	a5,-36(s0)
 20c:	fe842783          	lw	a5,-24(s0)
 210:	00378793          	addi	a5,a5,3
 214:	00279793          	slli	a5,a5,0x2
 218:	fc842703          	lw	a4,-56(s0)
 21c:	00f707b3          	add	a5,a4,a5
 220:	0007a683          	lw	a3,0(a5)
 224:	fe842783          	lw	a5,-24(s0)
 228:	00378793          	addi	a5,a5,3
 22c:	00279793          	slli	a5,a5,0x2
 230:	fc442703          	lw	a4,-60(s0)
 234:	00f707b3          	add	a5,a4,a5
 238:	0007a783          	lw	a5,0(a5)
 23c:	00279793          	slli	a5,a5,0x2
 240:	fc042703          	lw	a4,-64(s0)
 244:	00f707b3          	add	a5,a4,a5
 248:	0007a783          	lw	a5,0(a5)
 24c:	00078593          	mv	a1,a5
 250:	00068513          	mv	a0,a3
 254:	178000ef          	jal	ra,3cc <__mulsi3>
 258:	00050793          	mv	a5,a0
 25c:	00078713          	mv	a4,a5
 260:	fd842783          	lw	a5,-40(s0)
 264:	00e787b3          	add	a5,a5,a4
 268:	fcf42c23          	sw	a5,-40(s0)
 26c:	fe842783          	lw	a5,-24(s0)
 270:	00478793          	addi	a5,a5,4
 274:	fef42423          	sw	a5,-24(s0)
 278:	fec42783          	lw	a5,-20(s0)
 27c:	00178793          	addi	a5,a5,1
 280:	00279793          	slli	a5,a5,0x2
 284:	fbc42703          	lw	a4,-68(s0)
 288:	00f707b3          	add	a5,a4,a5
 28c:	0007a783          	lw	a5,0(a5)
 290:	ffd78793          	addi	a5,a5,-3
 294:	fe842703          	lw	a4,-24(s0)
 298:	e4f74ee3          	blt	a4,a5,f4 <spmv+0x5c>
 29c:	0680006f          	j	304 <spmv+0x26c>
 2a0:	fe842783          	lw	a5,-24(s0)
 2a4:	00279793          	slli	a5,a5,0x2
 2a8:	fc842703          	lw	a4,-56(s0)
 2ac:	00f707b3          	add	a5,a4,a5
 2b0:	0007a683          	lw	a3,0(a5)
 2b4:	fe842783          	lw	a5,-24(s0)
 2b8:	00279793          	slli	a5,a5,0x2
 2bc:	fc442703          	lw	a4,-60(s0)
 2c0:	00f707b3          	add	a5,a4,a5
 2c4:	0007a783          	lw	a5,0(a5)
 2c8:	00279793          	slli	a5,a5,0x2
 2cc:	fc042703          	lw	a4,-64(s0)
 2d0:	00f707b3          	add	a5,a4,a5
 2d4:	0007a783          	lw	a5,0(a5)
 2d8:	00078593          	mv	a1,a5
 2dc:	00068513          	mv	a0,a3
 2e0:	0ec000ef          	jal	ra,3cc <__mulsi3>
 2e4:	00050793          	mv	a5,a0
 2e8:	00078713          	mv	a4,a5
 2ec:	fe442783          	lw	a5,-28(s0)
 2f0:	00e787b3          	add	a5,a5,a4
 2f4:	fef42223          	sw	a5,-28(s0)
 2f8:	fe842783          	lw	a5,-24(s0)
 2fc:	00178793          	addi	a5,a5,1
 300:	fef42423          	sw	a5,-24(s0)
 304:	fec42783          	lw	a5,-20(s0)
 308:	00178793          	addi	a5,a5,1
 30c:	00279793          	slli	a5,a5,0x2
 310:	fbc42703          	lw	a4,-68(s0)
 314:	00f707b3          	add	a5,a4,a5
 318:	0007a783          	lw	a5,0(a5)
 31c:	fe842703          	lw	a4,-24(s0)
 320:	f8f740e3          	blt	a4,a5,2a0 <spmv+0x208>
 324:	fe442703          	lw	a4,-28(s0)
 328:	fe042783          	lw	a5,-32(s0)
 32c:	00f706b3          	add	a3,a4,a5
 330:	fdc42703          	lw	a4,-36(s0)
 334:	fd842783          	lw	a5,-40(s0)
 338:	00f70733          	add	a4,a4,a5
 33c:	fec42783          	lw	a5,-20(s0)
 340:	00279793          	slli	a5,a5,0x2
 344:	fb842603          	lw	a2,-72(s0)
 348:	00f607b3          	add	a5,a2,a5
 34c:	00e68733          	add	a4,a3,a4
 350:	00e7a023          	sw	a4,0(a5)
 354:	fec42783          	lw	a5,-20(s0)
 358:	00178793          	addi	a5,a5,1
 35c:	fef42623          	sw	a5,-20(s0)
 360:	fec42703          	lw	a4,-20(s0)
 364:	fcc42783          	lw	a5,-52(s0)
 368:	d6f740e3          	blt	a4,a5,c8 <spmv+0x30>
 36c:	00000013          	nop
 370:	04c12083          	lw	ra,76(sp)
 374:	04812403          	lw	s0,72(sp)
 378:	05010113          	addi	sp,sp,80
 37c:	00008067          	ret

00000380 <my_main>:
 380:	82010113          	addi	sp,sp,-2016
 384:	7c112e23          	sw	ra,2012(sp)
 388:	7c812c23          	sw	s0,2008(sp)
 38c:	7e010413          	addi	s0,sp,2016
 390:	82040793          	addi	a5,s0,-2016
 394:	00005737          	lui	a4,0x5
 398:	6b870713          	addi	a4,a4,1720 # 56b8 <ptr>
 39c:	000056b7          	lui	a3,0x5
 3a0:	ee868693          	addi	a3,a3,-280 # 4ee8 <x>
 3a4:	00003637          	lui	a2,0x3
 3a8:	96c60613          	addi	a2,a2,-1684 # 296c <idx>
 3ac:	3f000593          	li	a1,1008
 3b0:	1f400513          	li	a0,500
 3b4:	ce5ff0ef          	jal	ra,98 <spmv>
 3b8:	00000013          	nop
 3bc:	7dc12083          	lw	ra,2012(sp)
 3c0:	7d812403          	lw	s0,2008(sp)
 3c4:	7e010113          	addi	sp,sp,2016
 3c8:	00008067          	ret

000003cc <__mulsi3>:
/* Our RV64 64-bit routine is equivalent to our RV32 32-bit routine.  */
# define __muldi3 __mulsi3
#endif

FUNC_BEGIN (__muldi3)
  mv     a2, a0
 3cc:	00050613          	mv	a2,a0
  li     a0, 0
 3d0:	00000513          	li	a0,0
.L1:
  andi   a3, a1, 1
 3d4:	0015f693          	andi	a3,a1,1
  beqz   a3, .L2
 3d8:	00068463          	beqz	a3,3e0 <__mulsi3+0x14>
  add    a0, a0, a2
 3dc:	00c50533          	add	a0,a0,a2
.L2:
  srli   a1, a1, 1
 3e0:	0015d593          	srli	a1,a1,0x1
  slli   a2, a2, 1
 3e4:	00161613          	slli	a2,a2,0x1
  bnez   a1, .L1
 3e8:	fe0596e3          	bnez	a1,3d4 <__mulsi3+0x8>
  ret
 3ec:	00008067          	ret
