
./rv32im_main.elf:     file format elf32-littleriscv


Disassembly of section .text:

00000000 <_start>:
       0:	00007197          	auipc	gp,0x7
       4:	cb818193          	addi	gp,gp,-840 # 6cb8 <__global_pointer$>
       8:	a9c18513          	addi	a0,gp,-1380 # 6754 <_edata>
       c:	00007617          	auipc	a2,0x7
      10:	4ac60613          	addi	a2,a2,1196 # 74b8 <__BSS_END__>
      14:	40a60633          	sub	a2,a2,a0
      18:	00000593          	li	a1,0
      1c:	61d040ef          	jal	ra,4e38 <memset>
      20:	00005517          	auipc	a0,0x5
      24:	d1450513          	addi	a0,a0,-748 # 4d34 <__libc_fini_array>
      28:	4c9040ef          	jal	ra,4cf0 <atexit>
      2c:	565040ef          	jal	ra,4d90 <__libc_init_array>
      30:	00012503          	lw	a0,0(sp)
      34:	00410593          	addi	a1,sp,4
      38:	00000613          	li	a2,0
      3c:	0f0000ef          	jal	ra,12c <main>
      40:	4c50406f          	j	4d04 <exit>

00000044 <_fini>:
      44:	00008067          	ret

00000048 <deregister_tm_clones>:
      48:	a9018713          	addi	a4,gp,-1392 # 6748 <_global_impure_ptr>
      4c:	a9018793          	addi	a5,gp,-1392 # 6748 <_global_impure_ptr>
      50:	00e78c63          	beq	a5,a4,68 <deregister_tm_clones+0x20>
      54:	00000337          	lui	t1,0x0
      58:	00030313          	mv	t1,t1
      5c:	00030663          	beqz	t1,68 <deregister_tm_clones+0x20>
      60:	a9018513          	addi	a0,gp,-1392 # 6748 <_global_impure_ptr>
      64:	00030067          	jr	t1 # 0 <_start>
      68:	00008067          	ret

0000006c <register_tm_clones>:
      6c:	a9018593          	addi	a1,gp,-1392 # 6748 <_global_impure_ptr>
      70:	a9018793          	addi	a5,gp,-1392 # 6748 <_global_impure_ptr>
      74:	40f585b3          	sub	a1,a1,a5
      78:	4025d593          	srai	a1,a1,0x2
      7c:	01f5d793          	srli	a5,a1,0x1f
      80:	00b785b3          	add	a1,a5,a1
      84:	4015d593          	srai	a1,a1,0x1
      88:	00058c63          	beqz	a1,a0 <register_tm_clones+0x34>
      8c:	00000337          	lui	t1,0x0
      90:	00030313          	mv	t1,t1
      94:	00030663          	beqz	t1,a0 <register_tm_clones+0x34>
      98:	a9018513          	addi	a0,gp,-1392 # 6748 <_global_impure_ptr>
      9c:	00030067          	jr	t1 # 0 <_start>
      a0:	00008067          	ret

000000a4 <__do_global_dtors_aux>:
      a4:	ac01c703          	lbu	a4,-1344(gp) # 6778 <completed.5430>
      a8:	04071663          	bnez	a4,f4 <__do_global_dtors_aux+0x50>
      ac:	ff010113          	addi	sp,sp,-16
      b0:	00812423          	sw	s0,8(sp)
      b4:	00112623          	sw	ra,12(sp)
      b8:	00078413          	mv	s0,a5
      bc:	f8dff0ef          	jal	ra,48 <deregister_tm_clones>
      c0:	000007b7          	lui	a5,0x0
      c4:	00078793          	mv	a5,a5
      c8:	00078a63          	beqz	a5,dc <__do_global_dtors_aux+0x38>
      cc:	00006537          	lui	a0,0x6
      d0:	31450513          	addi	a0,a0,788 # 6314 <__FRAME_END__>
      d4:	00000097          	auipc	ra,0x0
      d8:	000000e7          	jalr	zero # 0 <_start>
      dc:	00100793          	li	a5,1
      e0:	acf18023          	sb	a5,-1344(gp) # 6778 <completed.5430>
      e4:	00c12083          	lw	ra,12(sp)
      e8:	00812403          	lw	s0,8(sp)
      ec:	01010113          	addi	sp,sp,16
      f0:	00008067          	ret
      f4:	00008067          	ret

000000f8 <frame_dummy>:
      f8:	000007b7          	lui	a5,0x0
      fc:	00078793          	mv	a5,a5
     100:	02078463          	beqz	a5,128 <frame_dummy+0x30>
     104:	00006537          	lui	a0,0x6
     108:	ff010113          	addi	sp,sp,-16
     10c:	ac418593          	addi	a1,gp,-1340 # 677c <object.5435>
     110:	31450513          	addi	a0,a0,788 # 6314 <__FRAME_END__>
     114:	00112623          	sw	ra,12(sp)
     118:	00000097          	auipc	ra,0x0
     11c:	000000e7          	jalr	zero # 0 <_start>
     120:	00c12083          	lw	ra,12(sp)
     124:	01010113          	addi	sp,sp,16
     128:	f45ff06f          	j	6c <register_tm_clones>

0000012c <main>:
     12c:	00000093          	li	ra,0
     130:	00000293          	li	t0,0
     134:	00000313          	li	t1,0
     138:	00000393          	li	t2,0
     13c:	00000413          	li	s0,0
     140:	00000493          	li	s1,0
     144:	00000513          	li	a0,0
     148:	00000593          	li	a1,0
     14c:	00000613          	li	a2,0
     150:	00000693          	li	a3,0
     154:	00000713          	li	a4,0
     158:	00000793          	li	a5,0
     15c:	00000813          	li	a6,0
     160:	00000893          	li	a7,0
     164:	00000913          	li	s2,0
     168:	00000993          	li	s3,0
     16c:	00000a13          	li	s4,0
     170:	00000a93          	li	s5,0
     174:	00000b13          	li	s6,0
     178:	00000b93          	li	s7,0
     17c:	00000c13          	li	s8,0
     180:	00000c93          	li	s9,0
     184:	00000d13          	li	s10,0
     188:	00000d93          	li	s11,0
     18c:	00000e13          	li	t3,0
     190:	00000e93          	li	t4,0
     194:	00000f13          	li	t5,0
     198:	00000f93          	li	t6,0
     19c:	051040ef          	jal	ra,49ec <my_main>

000001a0 <loop>:
     1a0:	0000006f          	j	1a0 <loop>

000001a4 <init_nodes>:
     1a4:	fe010113          	addi	sp,sp,-32
     1a8:	00812e23          	sw	s0,28(sp)
     1ac:	02010413          	addi	s0,sp,32
     1b0:	fea42623          	sw	a0,-20(s0)
     1b4:	fec42783          	lw	a5,-20(s0)
     1b8:	0007a023          	sw	zero,0(a5) # 0 <_start>
     1bc:	fec42783          	lw	a5,-20(s0)
     1c0:	00100713          	li	a4,1
     1c4:	00e7a223          	sw	a4,4(a5)
     1c8:	fec42783          	lw	a5,-20(s0)
     1cc:	00100713          	li	a4,1
     1d0:	00e7a423          	sw	a4,8(a5)
     1d4:	fec42783          	lw	a5,-20(s0)
     1d8:	80000737          	lui	a4,0x80000
     1dc:	08070713          	addi	a4,a4,128 # 80000080 <__BSS_END__+0x7fff8bc8>
     1e0:	00e7a623          	sw	a4,12(a5)
     1e4:	fec42783          	lw	a5,-20(s0)
     1e8:	0007a823          	sw	zero,16(a5)
     1ec:	fec42783          	lw	a5,-20(s0)
     1f0:	0007a737          	lui	a4,0x7a
     1f4:	12070713          	addi	a4,a4,288 # 7a120 <__BSS_END__+0x72c68>
     1f8:	00e7aa23          	sw	a4,20(a5)
     1fc:	fec42783          	lw	a5,-20(s0)
     200:	01878793          	addi	a5,a5,24
     204:	00100713          	li	a4,1
     208:	00e7a023          	sw	a4,0(a5)
     20c:	fec42783          	lw	a5,-20(s0)
     210:	01878793          	addi	a5,a5,24
     214:	00100713          	li	a4,1
     218:	00e7a223          	sw	a4,4(a5)
     21c:	fec42783          	lw	a5,-20(s0)
     220:	01878793          	addi	a5,a5,24
     224:	00200713          	li	a4,2
     228:	00e7a423          	sw	a4,8(a5)
     22c:	fec42783          	lw	a5,-20(s0)
     230:	01878793          	addi	a5,a5,24
     234:	80000737          	lui	a4,0x80000
     238:	08470713          	addi	a4,a4,132 # 80000084 <__BSS_END__+0x7fff8bcc>
     23c:	00e7a623          	sw	a4,12(a5)
     240:	fec42783          	lw	a5,-20(s0)
     244:	01878793          	addi	a5,a5,24
     248:	0007a823          	sw	zero,16(a5)
     24c:	fec42783          	lw	a5,-20(s0)
     250:	01878793          	addi	a5,a5,24
     254:	0007a737          	lui	a4,0x7a
     258:	12070713          	addi	a4,a4,288 # 7a120 <__BSS_END__+0x72c68>
     25c:	00e7aa23          	sw	a4,20(a5)
     260:	00000013          	nop
     264:	01c12403          	lw	s0,28(sp)
     268:	02010113          	addi	sp,sp,32
     26c:	00008067          	ret

00000270 <init_prgs>:
     270:	fe010113          	addi	sp,sp,-32
     274:	00812e23          	sw	s0,28(sp)
     278:	02010413          	addi	s0,sp,32
     27c:	fea42623          	sw	a0,-20(s0)
     280:	fec42783          	lw	a5,-20(s0)
     284:	00005737          	lui	a4,0x5
     288:	0e870713          	addi	a4,a4,232 # 50e8 <__errno+0x8>
     28c:	00e7a023          	sw	a4,0(a5)
     290:	fec42783          	lw	a5,-20(s0)
     294:	00020737          	lui	a4,0x20
     298:	ff070713          	addi	a4,a4,-16 # 1fff0 <__BSS_END__+0x18b38>
     29c:	00e7a423          	sw	a4,8(a5)
     2a0:	fec42783          	lw	a5,-20(s0)
     2a4:	0007a823          	sw	zero,16(a5)
     2a8:	fec42783          	lw	a5,-20(s0)
     2ac:	0007ac23          	sw	zero,24(a5)
     2b0:	fec42783          	lw	a5,-20(s0)
     2b4:	0207a023          	sw	zero,32(a5)
     2b8:	fec42783          	lw	a5,-20(s0)
     2bc:	00500713          	li	a4,5
     2c0:	02e7a223          	sw	a4,36(a5)
     2c4:	fec42783          	lw	a5,-20(s0)
     2c8:	00500713          	li	a4,5
     2cc:	02e7a423          	sw	a4,40(a5)
     2d0:	fec42783          	lw	a5,-20(s0)
     2d4:	0207a623          	sw	zero,44(a5)
     2d8:	fec42783          	lw	a5,-20(s0)
     2dc:	03078793          	addi	a5,a5,48
     2e0:	00005737          	lui	a4,0x5
     2e4:	0f070713          	addi	a4,a4,240 # 50f0 <__errno+0x10>
     2e8:	00e7a023          	sw	a4,0(a5)
     2ec:	fec42783          	lw	a5,-20(s0)
     2f0:	03078793          	addi	a5,a5,48
     2f4:	00172737          	lui	a4,0x172
     2f8:	b8870713          	addi	a4,a4,-1144 # 171b88 <__BSS_END__+0x16a6d0>
     2fc:	00e7a423          	sw	a4,8(a5)
     300:	fec42783          	lw	a5,-20(s0)
     304:	03078793          	addi	a5,a5,48
     308:	0007a823          	sw	zero,16(a5)
     30c:	fec42783          	lw	a5,-20(s0)
     310:	03078793          	addi	a5,a5,48
     314:	0007ac23          	sw	zero,24(a5)
     318:	fec42783          	lw	a5,-20(s0)
     31c:	03078793          	addi	a5,a5,48
     320:	0207a023          	sw	zero,32(a5)
     324:	fec42783          	lw	a5,-20(s0)
     328:	03078793          	addi	a5,a5,48
     32c:	00500713          	li	a4,5
     330:	02e7a223          	sw	a4,36(a5)
     334:	fec42783          	lw	a5,-20(s0)
     338:	03078793          	addi	a5,a5,48
     33c:	00500713          	li	a4,5
     340:	02e7a423          	sw	a4,40(a5)
     344:	fec42783          	lw	a5,-20(s0)
     348:	03078793          	addi	a5,a5,48
     34c:	0207a623          	sw	zero,44(a5)
     350:	00000013          	nop
     354:	01c12403          	lw	s0,28(sp)
     358:	02010113          	addi	sp,sp,32
     35c:	00008067          	ret

00000360 <init_archs>:
     360:	fe010113          	addi	sp,sp,-32
     364:	00812e23          	sw	s0,28(sp)
     368:	02010413          	addi	s0,sp,32
     36c:	fea42623          	sw	a0,-20(s0)
     370:	fec42783          	lw	a5,-20(s0)
     374:	0007a023          	sw	zero,0(a5)
     378:	fec42783          	lw	a5,-20(s0)
     37c:	46500713          	li	a4,1125
     380:	00e7a223          	sw	a4,4(a5)
     384:	fec42783          	lw	a5,-20(s0)
     388:	00878793          	addi	a5,a5,8
     38c:	00300713          	li	a4,3
     390:	00e7a023          	sw	a4,0(a5)
     394:	fec42783          	lw	a5,-20(s0)
     398:	00878793          	addi	a5,a5,8
     39c:	46600713          	li	a4,1126
     3a0:	00e7a223          	sw	a4,4(a5)
     3a4:	00000013          	nop
     3a8:	01c12403          	lw	s0,28(sp)
     3ac:	02010113          	addi	sp,sp,32
     3b0:	00008067          	ret

000003b4 <init_charges>:
     3b4:	fe010113          	addi	sp,sp,-32
     3b8:	00812e23          	sw	s0,28(sp)
     3bc:	02010413          	addi	s0,sp,32
     3c0:	fea42623          	sw	a0,-20(s0)
     3c4:	fec42783          	lw	a5,-20(s0)
     3c8:	00004737          	lui	a4,0x4
     3cc:	a9870713          	addi	a4,a4,-1384 # 3a98 <node_get+0x148>
     3d0:	00e7a023          	sw	a4,0(a5)
     3d4:	fec42783          	lw	a5,-20(s0)
     3d8:	00478793          	addi	a5,a5,4
     3dc:	00004737          	lui	a4,0x4
     3e0:	a9870713          	addi	a4,a4,-1384 # 3a98 <node_get+0x148>
     3e4:	00e7a023          	sw	a4,0(a5)
     3e8:	fec42783          	lw	a5,-20(s0)
     3ec:	00878793          	addi	a5,a5,8
     3f0:	00004737          	lui	a4,0x4
     3f4:	e8070713          	addi	a4,a4,-384 # 3e80 <node_assign_prg+0xc8>
     3f8:	00e7a023          	sw	a4,0(a5)
     3fc:	fec42783          	lw	a5,-20(s0)
     400:	00c78793          	addi	a5,a5,12
     404:	00004737          	lui	a4,0x4
     408:	26870713          	addi	a4,a4,616 # 4268 <prgs_execution_time_debug+0xbc>
     40c:	00e7a023          	sw	a4,0(a5)
     410:	fec42783          	lw	a5,-20(s0)
     414:	01078793          	addi	a5,a5,16
     418:	00004737          	lui	a4,0x4
     41c:	65070713          	addi	a4,a4,1616 # 4650 <queue_build_event_queue+0x38>
     420:	00e7a023          	sw	a4,0(a5)
     424:	fec42783          	lw	a5,-20(s0)
     428:	01478793          	addi	a5,a5,20
     42c:	00005737          	lui	a4,0x5
     430:	a3870713          	addi	a4,a4,-1480 # 4a38 <my_main+0x4c>
     434:	00e7a023          	sw	a4,0(a5)
     438:	fec42783          	lw	a5,-20(s0)
     43c:	01878793          	addi	a5,a5,24
     440:	00005737          	lui	a4,0x5
     444:	e2070713          	addi	a4,a4,-480 # 4e20 <__libc_init_array+0x90>
     448:	00e7a023          	sw	a4,0(a5)
     44c:	fec42783          	lw	a5,-20(s0)
     450:	01c78793          	addi	a5,a5,28
     454:	00005737          	lui	a4,0x5
     458:	20870713          	addi	a4,a4,520 # 5208 <__errno+0x128>
     45c:	00e7a023          	sw	a4,0(a5)
     460:	fec42783          	lw	a5,-20(s0)
     464:	02078793          	addi	a5,a5,32
     468:	00006737          	lui	a4,0x6
     46c:	9d870713          	addi	a4,a4,-1576 # 59d8 <__errno+0x8f8>
     470:	00e7a023          	sw	a4,0(a5)
     474:	fec42783          	lw	a5,-20(s0)
     478:	02478793          	addi	a5,a5,36
     47c:	00006737          	lui	a4,0x6
     480:	9d870713          	addi	a4,a4,-1576 # 59d8 <__errno+0x8f8>
     484:	00e7a023          	sw	a4,0(a5)
     488:	fec42783          	lw	a5,-20(s0)
     48c:	02878793          	addi	a5,a5,40
     490:	00006737          	lui	a4,0x6
     494:	9d870713          	addi	a4,a4,-1576 # 59d8 <__errno+0x8f8>
     498:	00e7a023          	sw	a4,0(a5)
     49c:	fec42783          	lw	a5,-20(s0)
     4a0:	02c78793          	addi	a5,a5,44
     4a4:	00006737          	lui	a4,0x6
     4a8:	dc070713          	addi	a4,a4,-576 # 5dc0 <__errno+0xce0>
     4ac:	00e7a023          	sw	a4,0(a5)
     4b0:	fec42783          	lw	a5,-20(s0)
     4b4:	03078793          	addi	a5,a5,48
     4b8:	00006737          	lui	a4,0x6
     4bc:	dc070713          	addi	a4,a4,-576 # 5dc0 <__errno+0xce0>
     4c0:	00e7a023          	sw	a4,0(a5)
     4c4:	fec42783          	lw	a5,-20(s0)
     4c8:	03478793          	addi	a5,a5,52
     4cc:	00006737          	lui	a4,0x6
     4d0:	dc070713          	addi	a4,a4,-576 # 5dc0 <__errno+0xce0>
     4d4:	00e7a023          	sw	a4,0(a5)
     4d8:	fec42783          	lw	a5,-20(s0)
     4dc:	03878793          	addi	a5,a5,56
     4e0:	00006737          	lui	a4,0x6
     4e4:	1a870713          	addi	a4,a4,424 # 61a8 <__errno+0x10c8>
     4e8:	00e7a023          	sw	a4,0(a5)
     4ec:	fec42783          	lw	a5,-20(s0)
     4f0:	03c78793          	addi	a5,a5,60
     4f4:	00006737          	lui	a4,0x6
     4f8:	1a870713          	addi	a4,a4,424 # 61a8 <__errno+0x10c8>
     4fc:	00e7a023          	sw	a4,0(a5)
     500:	fec42783          	lw	a5,-20(s0)
     504:	04078793          	addi	a5,a5,64
     508:	00006737          	lui	a4,0x6
     50c:	1a870713          	addi	a4,a4,424 # 61a8 <__errno+0x10c8>
     510:	00e7a023          	sw	a4,0(a5)
     514:	fec42783          	lw	a5,-20(s0)
     518:	04478793          	addi	a5,a5,68
     51c:	00006737          	lui	a4,0x6
     520:	1a870713          	addi	a4,a4,424 # 61a8 <__errno+0x10c8>
     524:	00e7a023          	sw	a4,0(a5)
     528:	fec42783          	lw	a5,-20(s0)
     52c:	04878793          	addi	a5,a5,72
     530:	00006737          	lui	a4,0x6
     534:	1a870713          	addi	a4,a4,424 # 61a8 <__errno+0x10c8>
     538:	00e7a023          	sw	a4,0(a5)
     53c:	fec42783          	lw	a5,-20(s0)
     540:	04c78793          	addi	a5,a5,76
     544:	00007737          	lui	a4,0x7
     548:	14870713          	addi	a4,a4,328 # 7148 <__global_pointer$+0x490>
     54c:	00e7a023          	sw	a4,0(a5)
     550:	fec42783          	lw	a5,-20(s0)
     554:	05078793          	addi	a5,a5,80
     558:	00008737          	lui	a4,0x8
     55c:	0e870713          	addi	a4,a4,232 # 80e8 <__BSS_END__+0xc30>
     560:	00e7a023          	sw	a4,0(a5)
     564:	fec42783          	lw	a5,-20(s0)
     568:	05478793          	addi	a5,a5,84
     56c:	00009737          	lui	a4,0x9
     570:	ca070713          	addi	a4,a4,-864 # 8ca0 <__BSS_END__+0x17e8>
     574:	00e7a023          	sw	a4,0(a5)
     578:	fec42783          	lw	a5,-20(s0)
     57c:	05878793          	addi	a5,a5,88
     580:	0000a737          	lui	a4,0xa
     584:	c4070713          	addi	a4,a4,-960 # 9c40 <__BSS_END__+0x2788>
     588:	00e7a023          	sw	a4,0(a5)
     58c:	fec42783          	lw	a5,-20(s0)
     590:	05c78793          	addi	a5,a5,92
     594:	0000b737          	lui	a4,0xb
     598:	be070713          	addi	a4,a4,-1056 # abe0 <__BSS_END__+0x3728>
     59c:	00e7a023          	sw	a4,0(a5)
     5a0:	fec42783          	lw	a5,-20(s0)
     5a4:	06078793          	addi	a5,a5,96
     5a8:	0000a737          	lui	a4,0xa
     5ac:	85870713          	addi	a4,a4,-1960 # 9858 <__BSS_END__+0x23a0>
     5b0:	00e7a023          	sw	a4,0(a5)
     5b4:	fec42783          	lw	a5,-20(s0)
     5b8:	06478793          	addi	a5,a5,100
     5bc:	00008737          	lui	a4,0x8
     5c0:	0e870713          	addi	a4,a4,232 # 80e8 <__BSS_END__+0xc30>
     5c4:	00e7a023          	sw	a4,0(a5)
     5c8:	fec42783          	lw	a5,-20(s0)
     5cc:	06878793          	addi	a5,a5,104
     5d0:	00007737          	lui	a4,0x7
     5d4:	d6070713          	addi	a4,a4,-672 # 6d60 <__global_pointer$+0xa8>
     5d8:	00e7a023          	sw	a4,0(a5)
     5dc:	fec42783          	lw	a5,-20(s0)
     5e0:	06c78793          	addi	a5,a5,108
     5e4:	00006737          	lui	a4,0x6
     5e8:	9d870713          	addi	a4,a4,-1576 # 59d8 <__errno+0x8f8>
     5ec:	00e7a023          	sw	a4,0(a5)
     5f0:	fec42783          	lw	a5,-20(s0)
     5f4:	07078793          	addi	a5,a5,112
     5f8:	00004737          	lui	a4,0x4
     5fc:	65070713          	addi	a4,a4,1616 # 4650 <queue_build_event_queue+0x38>
     600:	00e7a023          	sw	a4,0(a5)
     604:	fec42783          	lw	a5,-20(s0)
     608:	07478793          	addi	a5,a5,116
     60c:	00004737          	lui	a4,0x4
     610:	26870713          	addi	a4,a4,616 # 4268 <prgs_execution_time_debug+0xbc>
     614:	00e7a023          	sw	a4,0(a5)
     618:	fec42783          	lw	a5,-20(s0)
     61c:	07878793          	addi	a5,a5,120
     620:	00004737          	lui	a4,0x4
     624:	e8070713          	addi	a4,a4,-384 # 3e80 <node_assign_prg+0xc8>
     628:	00e7a023          	sw	a4,0(a5)
     62c:	fec42783          	lw	a5,-20(s0)
     630:	07c78793          	addi	a5,a5,124
     634:	00004737          	lui	a4,0x4
     638:	e8070713          	addi	a4,a4,-384 # 3e80 <node_assign_prg+0xc8>
     63c:	00e7a023          	sw	a4,0(a5)
     640:	fec42783          	lw	a5,-20(s0)
     644:	08078793          	addi	a5,a5,128
     648:	00004737          	lui	a4,0x4
     64c:	a9870713          	addi	a4,a4,-1384 # 3a98 <node_get+0x148>
     650:	00e7a023          	sw	a4,0(a5)
     654:	fec42783          	lw	a5,-20(s0)
     658:	08478793          	addi	a5,a5,132
     65c:	00003737          	lui	a4,0x3
     660:	6b070713          	addi	a4,a4,1712 # 36b0 <print_str_dec_n+0x58>
     664:	00e7a023          	sw	a4,0(a5)
     668:	fec42783          	lw	a5,-20(s0)
     66c:	08878793          	addi	a5,a5,136
     670:	00004737          	lui	a4,0x4
     674:	26870713          	addi	a4,a4,616 # 4268 <prgs_execution_time_debug+0xbc>
     678:	00e7a023          	sw	a4,0(a5)
     67c:	fec42783          	lw	a5,-20(s0)
     680:	08c78793          	addi	a5,a5,140
     684:	00005737          	lui	a4,0x5
     688:	e2070713          	addi	a4,a4,-480 # 4e20 <__libc_init_array+0x90>
     68c:	00e7a023          	sw	a4,0(a5)
     690:	fec42783          	lw	a5,-20(s0)
     694:	09078793          	addi	a5,a5,144
     698:	00006737          	lui	a4,0x6
     69c:	9d870713          	addi	a4,a4,-1576 # 59d8 <__errno+0x8f8>
     6a0:	00e7a023          	sw	a4,0(a5)
     6a4:	fec42783          	lw	a5,-20(s0)
     6a8:	09478793          	addi	a5,a5,148
     6ac:	00006737          	lui	a4,0x6
     6b0:	1a870713          	addi	a4,a4,424 # 61a8 <__errno+0x10c8>
     6b4:	00e7a023          	sw	a4,0(a5)
     6b8:	fec42783          	lw	a5,-20(s0)
     6bc:	09878793          	addi	a5,a5,152
     6c0:	00007737          	lui	a4,0x7
     6c4:	d6070713          	addi	a4,a4,-672 # 6d60 <__global_pointer$+0xa8>
     6c8:	00e7a023          	sw	a4,0(a5)
     6cc:	fec42783          	lw	a5,-20(s0)
     6d0:	09c78793          	addi	a5,a5,156
     6d4:	00008737          	lui	a4,0x8
     6d8:	d0070713          	addi	a4,a4,-768 # 7d00 <__BSS_END__+0x848>
     6dc:	00e7a023          	sw	a4,0(a5)
     6e0:	fec42783          	lw	a5,-20(s0)
     6e4:	0a078793          	addi	a5,a5,160
     6e8:	00009737          	lui	a4,0x9
     6ec:	8b870713          	addi	a4,a4,-1864 # 88b8 <__BSS_END__+0x1400>
     6f0:	00e7a023          	sw	a4,0(a5)
     6f4:	fec42783          	lw	a5,-20(s0)
     6f8:	0a478793          	addi	a5,a5,164
     6fc:	0000a737          	lui	a4,0xa
     700:	85870713          	addi	a4,a4,-1960 # 9858 <__BSS_END__+0x23a0>
     704:	00e7a023          	sw	a4,0(a5)
     708:	fec42783          	lw	a5,-20(s0)
     70c:	0a878793          	addi	a5,a5,168
     710:	0000a737          	lui	a4,0xa
     714:	41070713          	addi	a4,a4,1040 # a410 <__BSS_END__+0x2f58>
     718:	00e7a023          	sw	a4,0(a5)
     71c:	fec42783          	lw	a5,-20(s0)
     720:	0ac78793          	addi	a5,a5,172
     724:	0000b737          	lui	a4,0xb
     728:	3b070713          	addi	a4,a4,944 # b3b0 <__BSS_END__+0x3ef8>
     72c:	00e7a023          	sw	a4,0(a5)
     730:	fec42783          	lw	a5,-20(s0)
     734:	0b078793          	addi	a5,a5,176
     738:	0000a737          	lui	a4,0xa
     73c:	41070713          	addi	a4,a4,1040 # a410 <__BSS_END__+0x2f58>
     740:	00e7a023          	sw	a4,0(a5)
     744:	fec42783          	lw	a5,-20(s0)
     748:	0b478793          	addi	a5,a5,180
     74c:	0000a737          	lui	a4,0xa
     750:	85870713          	addi	a4,a4,-1960 # 9858 <__BSS_END__+0x23a0>
     754:	00e7a023          	sw	a4,0(a5)
     758:	fec42783          	lw	a5,-20(s0)
     75c:	0b878793          	addi	a5,a5,184
     760:	00009737          	lui	a4,0x9
     764:	8b870713          	addi	a4,a4,-1864 # 88b8 <__BSS_END__+0x1400>
     768:	00e7a023          	sw	a4,0(a5)
     76c:	fec42783          	lw	a5,-20(s0)
     770:	0bc78793          	addi	a5,a5,188
     774:	00008737          	lui	a4,0x8
     778:	91870713          	addi	a4,a4,-1768 # 7918 <__BSS_END__+0x460>
     77c:	00e7a023          	sw	a4,0(a5)
     780:	fec42783          	lw	a5,-20(s0)
     784:	0c078793          	addi	a5,a5,192
     788:	00007737          	lui	a4,0x7
     78c:	97870713          	addi	a4,a4,-1672 # 6978 <queue+0x1dc>
     790:	00e7a023          	sw	a4,0(a5)
     794:	fec42783          	lw	a5,-20(s0)
     798:	0c478793          	addi	a5,a5,196
     79c:	00006737          	lui	a4,0x6
     7a0:	59070713          	addi	a4,a4,1424 # 6590 <__fini_array_end+0x270>
     7a4:	00e7a023          	sw	a4,0(a5)
     7a8:	fec42783          	lw	a5,-20(s0)
     7ac:	0c878793          	addi	a5,a5,200
     7b0:	00006737          	lui	a4,0x6
     7b4:	1a870713          	addi	a4,a4,424 # 61a8 <__errno+0x10c8>
     7b8:	00e7a023          	sw	a4,0(a5)
     7bc:	fec42783          	lw	a5,-20(s0)
     7c0:	0cc78793          	addi	a5,a5,204
     7c4:	00006737          	lui	a4,0x6
     7c8:	9d870713          	addi	a4,a4,-1576 # 59d8 <__errno+0x8f8>
     7cc:	00e7a023          	sw	a4,0(a5)
     7d0:	fec42783          	lw	a5,-20(s0)
     7d4:	0d078793          	addi	a5,a5,208
     7d8:	00005737          	lui	a4,0x5
     7dc:	5f070713          	addi	a4,a4,1520 # 55f0 <__errno+0x510>
     7e0:	00e7a023          	sw	a4,0(a5)
     7e4:	fec42783          	lw	a5,-20(s0)
     7e8:	0d478793          	addi	a5,a5,212
     7ec:	00005737          	lui	a4,0x5
     7f0:	20870713          	addi	a4,a4,520 # 5208 <__errno+0x128>
     7f4:	00e7a023          	sw	a4,0(a5)
     7f8:	fec42783          	lw	a5,-20(s0)
     7fc:	0d878793          	addi	a5,a5,216
     800:	00005737          	lui	a4,0x5
     804:	5f070713          	addi	a4,a4,1520 # 55f0 <__errno+0x510>
     808:	00e7a023          	sw	a4,0(a5)
     80c:	fec42783          	lw	a5,-20(s0)
     810:	0dc78793          	addi	a5,a5,220
     814:	00006737          	lui	a4,0x6
     818:	dc070713          	addi	a4,a4,-576 # 5dc0 <__errno+0xce0>
     81c:	00e7a023          	sw	a4,0(a5)
     820:	fec42783          	lw	a5,-20(s0)
     824:	0e078793          	addi	a5,a5,224
     828:	00006737          	lui	a4,0x6
     82c:	1a870713          	addi	a4,a4,424 # 61a8 <__errno+0x10c8>
     830:	00e7a023          	sw	a4,0(a5)
     834:	fec42783          	lw	a5,-20(s0)
     838:	0e478793          	addi	a5,a5,228
     83c:	00007737          	lui	a4,0x7
     840:	97870713          	addi	a4,a4,-1672 # 6978 <queue+0x1dc>
     844:	00e7a023          	sw	a4,0(a5)
     848:	fec42783          	lw	a5,-20(s0)
     84c:	0e878793          	addi	a5,a5,232
     850:	00007737          	lui	a4,0x7
     854:	d6070713          	addi	a4,a4,-672 # 6d60 <__global_pointer$+0xa8>
     858:	00e7a023          	sw	a4,0(a5)
     85c:	fec42783          	lw	a5,-20(s0)
     860:	0ec78793          	addi	a5,a5,236
     864:	00006737          	lui	a4,0x6
     868:	59070713          	addi	a4,a4,1424 # 6590 <__fini_array_end+0x270>
     86c:	00e7a023          	sw	a4,0(a5)
     870:	fec42783          	lw	a5,-20(s0)
     874:	0f078793          	addi	a5,a5,240
     878:	00006737          	lui	a4,0x6
     87c:	1a870713          	addi	a4,a4,424 # 61a8 <__errno+0x10c8>
     880:	00e7a023          	sw	a4,0(a5)
     884:	fec42783          	lw	a5,-20(s0)
     888:	0f478793          	addi	a5,a5,244
     88c:	00006737          	lui	a4,0x6
     890:	9d870713          	addi	a4,a4,-1576 # 59d8 <__errno+0x8f8>
     894:	00e7a023          	sw	a4,0(a5)
     898:	fec42783          	lw	a5,-20(s0)
     89c:	0f878793          	addi	a5,a5,248
     8a0:	00005737          	lui	a4,0x5
     8a4:	20870713          	addi	a4,a4,520 # 5208 <__errno+0x128>
     8a8:	00e7a023          	sw	a4,0(a5)
     8ac:	fec42783          	lw	a5,-20(s0)
     8b0:	0fc78793          	addi	a5,a5,252
     8b4:	00005737          	lui	a4,0x5
     8b8:	a3870713          	addi	a4,a4,-1480 # 4a38 <my_main+0x4c>
     8bc:	00e7a023          	sw	a4,0(a5)
     8c0:	fec42783          	lw	a5,-20(s0)
     8c4:	10078793          	addi	a5,a5,256
     8c8:	00005737          	lui	a4,0x5
     8cc:	e2070713          	addi	a4,a4,-480 # 4e20 <__libc_init_array+0x90>
     8d0:	00e7a023          	sw	a4,0(a5)
     8d4:	fec42783          	lw	a5,-20(s0)
     8d8:	10478793          	addi	a5,a5,260
     8dc:	00005737          	lui	a4,0x5
     8e0:	20870713          	addi	a4,a4,520 # 5208 <__errno+0x128>
     8e4:	00e7a023          	sw	a4,0(a5)
     8e8:	fec42783          	lw	a5,-20(s0)
     8ec:	10878793          	addi	a5,a5,264
     8f0:	00006737          	lui	a4,0x6
     8f4:	9d870713          	addi	a4,a4,-1576 # 59d8 <__errno+0x8f8>
     8f8:	00e7a023          	sw	a4,0(a5)
     8fc:	fec42783          	lw	a5,-20(s0)
     900:	10c78793          	addi	a5,a5,268
     904:	00006737          	lui	a4,0x6
     908:	dc070713          	addi	a4,a4,-576 # 5dc0 <__errno+0xce0>
     90c:	00e7a023          	sw	a4,0(a5)
     910:	fec42783          	lw	a5,-20(s0)
     914:	11078793          	addi	a5,a5,272
     918:	00006737          	lui	a4,0x6
     91c:	1a870713          	addi	a4,a4,424 # 61a8 <__errno+0x10c8>
     920:	00e7a023          	sw	a4,0(a5)
     924:	fec42783          	lw	a5,-20(s0)
     928:	11478793          	addi	a5,a5,276
     92c:	0000a737          	lui	a4,0xa
     930:	85870713          	addi	a4,a4,-1960 # 9858 <__BSS_END__+0x23a0>
     934:	00e7a023          	sw	a4,0(a5)
     938:	fec42783          	lw	a5,-20(s0)
     93c:	11878793          	addi	a5,a5,280
     940:	0000d737          	lui	a4,0xd
     944:	f0870713          	addi	a4,a4,-248 # cf08 <__BSS_END__+0x5a50>
     948:	00e7a023          	sw	a4,0(a5)
     94c:	fec42783          	lw	a5,-20(s0)
     950:	11c78793          	addi	a5,a5,284
     954:	00010737          	lui	a4,0x10
     958:	5b870713          	addi	a4,a4,1464 # 105b8 <__BSS_END__+0x9100>
     95c:	00e7a023          	sw	a4,0(a5)
     960:	fec42783          	lw	a5,-20(s0)
     964:	12078793          	addi	a5,a5,288
     968:	00014737          	lui	a4,0x14
     96c:	c6870713          	addi	a4,a4,-920 # 13c68 <__BSS_END__+0xc7b0>
     970:	00e7a023          	sw	a4,0(a5)
     974:	fec42783          	lw	a5,-20(s0)
     978:	12478793          	addi	a5,a5,292
     97c:	00017737          	lui	a4,0x17
     980:	31870713          	addi	a4,a4,792 # 17318 <__BSS_END__+0xfe60>
     984:	00e7a023          	sw	a4,0(a5)
     988:	fec42783          	lw	a5,-20(s0)
     98c:	12878793          	addi	a5,a5,296
     990:	00016737          	lui	a4,0x16
     994:	f9070713          	addi	a4,a4,-112 # 15f90 <__BSS_END__+0xead8>
     998:	00e7a023          	sw	a4,0(a5)
     99c:	fec42783          	lw	a5,-20(s0)
     9a0:	12c78793          	addi	a5,a5,300
     9a4:	00015737          	lui	a4,0x15
     9a8:	c0870713          	addi	a4,a4,-1016 # 14c08 <__BSS_END__+0xd750>
     9ac:	00e7a023          	sw	a4,0(a5)
     9b0:	fec42783          	lw	a5,-20(s0)
     9b4:	13078793          	addi	a5,a5,304
     9b8:	00014737          	lui	a4,0x14
     9bc:	88070713          	addi	a4,a4,-1920 # 13880 <__BSS_END__+0xc3c8>
     9c0:	00e7a023          	sw	a4,0(a5)
     9c4:	fec42783          	lw	a5,-20(s0)
     9c8:	13478793          	addi	a5,a5,308
     9cc:	00012737          	lui	a4,0x12
     9d0:	4f870713          	addi	a4,a4,1272 # 124f8 <__BSS_END__+0xb040>
     9d4:	00e7a023          	sw	a4,0(a5)
     9d8:	fec42783          	lw	a5,-20(s0)
     9dc:	13878793          	addi	a5,a5,312
     9e0:	00011737          	lui	a4,0x11
     9e4:	55870713          	addi	a4,a4,1368 # 11558 <__BSS_END__+0xa0a0>
     9e8:	00e7a023          	sw	a4,0(a5)
     9ec:	fec42783          	lw	a5,-20(s0)
     9f0:	13c78793          	addi	a5,a5,316
     9f4:	00011737          	lui	a4,0x11
     9f8:	9a070713          	addi	a4,a4,-1632 # 109a0 <__BSS_END__+0x94e8>
     9fc:	00e7a023          	sw	a4,0(a5)
     a00:	fec42783          	lw	a5,-20(s0)
     a04:	14078793          	addi	a5,a5,320
     a08:	00010737          	lui	a4,0x10
     a0c:	de870713          	addi	a4,a4,-536 # fde8 <__BSS_END__+0x8930>
     a10:	00e7a023          	sw	a4,0(a5)
     a14:	fec42783          	lw	a5,-20(s0)
     a18:	14478793          	addi	a5,a5,324
     a1c:	0000f737          	lui	a4,0xf
     a20:	23070713          	addi	a4,a4,560 # f230 <__BSS_END__+0x7d78>
     a24:	00e7a023          	sw	a4,0(a5)
     a28:	fec42783          	lw	a5,-20(s0)
     a2c:	14878793          	addi	a5,a5,328
     a30:	0000e737          	lui	a4,0xe
     a34:	67870713          	addi	a4,a4,1656 # e678 <__BSS_END__+0x71c0>
     a38:	00e7a023          	sw	a4,0(a5)
     a3c:	fec42783          	lw	a5,-20(s0)
     a40:	14c78793          	addi	a5,a5,332
     a44:	0000e737          	lui	a4,0xe
     a48:	ac070713          	addi	a4,a4,-1344 # dac0 <__BSS_END__+0x6608>
     a4c:	00e7a023          	sw	a4,0(a5)
     a50:	fec42783          	lw	a5,-20(s0)
     a54:	15078793          	addi	a5,a5,336
     a58:	0000e737          	lui	a4,0xe
     a5c:	ac070713          	addi	a4,a4,-1344 # dac0 <__BSS_END__+0x6608>
     a60:	00e7a023          	sw	a4,0(a5)
     a64:	fec42783          	lw	a5,-20(s0)
     a68:	15478793          	addi	a5,a5,340
     a6c:	0000e737          	lui	a4,0xe
     a70:	ac070713          	addi	a4,a4,-1344 # dac0 <__BSS_END__+0x6608>
     a74:	00e7a023          	sw	a4,0(a5)
     a78:	fec42783          	lw	a5,-20(s0)
     a7c:	15878793          	addi	a5,a5,344
     a80:	0000e737          	lui	a4,0xe
     a84:	ac070713          	addi	a4,a4,-1344 # dac0 <__BSS_END__+0x6608>
     a88:	00e7a023          	sw	a4,0(a5)
     a8c:	fec42783          	lw	a5,-20(s0)
     a90:	15c78793          	addi	a5,a5,348
     a94:	0000e737          	lui	a4,0xe
     a98:	ac070713          	addi	a4,a4,-1344 # dac0 <__BSS_END__+0x6608>
     a9c:	00e7a023          	sw	a4,0(a5)
     aa0:	fec42783          	lw	a5,-20(s0)
     aa4:	16078793          	addi	a5,a5,352
     aa8:	0000d737          	lui	a4,0xd
     aac:	6d870713          	addi	a4,a4,1752 # d6d8 <__BSS_END__+0x6220>
     ab0:	00e7a023          	sw	a4,0(a5)
     ab4:	fec42783          	lw	a5,-20(s0)
     ab8:	16478793          	addi	a5,a5,356
     abc:	0000f737          	lui	a4,0xf
     ac0:	a6070713          	addi	a4,a4,-1440 # ea60 <__BSS_END__+0x75a8>
     ac4:	00e7a023          	sw	a4,0(a5)
     ac8:	fec42783          	lw	a5,-20(s0)
     acc:	16878793          	addi	a5,a5,360
     ad0:	00010737          	lui	a4,0x10
     ad4:	de870713          	addi	a4,a4,-536 # fde8 <__BSS_END__+0x8930>
     ad8:	00e7a023          	sw	a4,0(a5)
     adc:	fec42783          	lw	a5,-20(s0)
     ae0:	16c78793          	addi	a5,a5,364
     ae4:	00011737          	lui	a4,0x11
     ae8:	17070713          	addi	a4,a4,368 # 11170 <__BSS_END__+0x9cb8>
     aec:	00e7a023          	sw	a4,0(a5)
     af0:	fec42783          	lw	a5,-20(s0)
     af4:	17078793          	addi	a5,a5,368
     af8:	00012737          	lui	a4,0x12
     afc:	4f870713          	addi	a4,a4,1272 # 124f8 <__BSS_END__+0xb040>
     b00:	00e7a023          	sw	a4,0(a5)
     b04:	fec42783          	lw	a5,-20(s0)
     b08:	17478793          	addi	a5,a5,372
     b0c:	00014737          	lui	a4,0x14
     b10:	88070713          	addi	a4,a4,-1920 # 13880 <__BSS_END__+0xc3c8>
     b14:	00e7a023          	sw	a4,0(a5)
     b18:	fec42783          	lw	a5,-20(s0)
     b1c:	17878793          	addi	a5,a5,376
     b20:	00015737          	lui	a4,0x15
     b24:	82070713          	addi	a4,a4,-2016 # 14820 <__BSS_END__+0xd368>
     b28:	00e7a023          	sw	a4,0(a5)
     b2c:	fec42783          	lw	a5,-20(s0)
     b30:	17c78793          	addi	a5,a5,380
     b34:	00015737          	lui	a4,0x15
     b38:	3d870713          	addi	a4,a4,984 # 153d8 <__BSS_END__+0xdf20>
     b3c:	00e7a023          	sw	a4,0(a5)
     b40:	fec42783          	lw	a5,-20(s0)
     b44:	18078793          	addi	a5,a5,384
     b48:	00016737          	lui	a4,0x16
     b4c:	f9070713          	addi	a4,a4,-112 # 15f90 <__BSS_END__+0xead8>
     b50:	00e7a023          	sw	a4,0(a5)
     b54:	fec42783          	lw	a5,-20(s0)
     b58:	18478793          	addi	a5,a5,388
     b5c:	00017737          	lui	a4,0x17
     b60:	b4870713          	addi	a4,a4,-1208 # 16b48 <__BSS_END__+0xf690>
     b64:	00e7a023          	sw	a4,0(a5)
     b68:	fec42783          	lw	a5,-20(s0)
     b6c:	18878793          	addi	a5,a5,392
     b70:	00017737          	lui	a4,0x17
     b74:	70070713          	addi	a4,a4,1792 # 17700 <__BSS_END__+0x10248>
     b78:	00e7a023          	sw	a4,0(a5)
     b7c:	fec42783          	lw	a5,-20(s0)
     b80:	18c78793          	addi	a5,a5,396
     b84:	00019737          	lui	a4,0x19
     b88:	e7070713          	addi	a4,a4,-400 # 18e70 <__BSS_END__+0x119b8>
     b8c:	00e7a023          	sw	a4,0(a5)
     b90:	fec42783          	lw	a5,-20(s0)
     b94:	19078793          	addi	a5,a5,400
     b98:	0001a737          	lui	a4,0x1a
     b9c:	5e070713          	addi	a4,a4,1504 # 1a5e0 <__BSS_END__+0x13128>
     ba0:	00e7a023          	sw	a4,0(a5)
     ba4:	fec42783          	lw	a5,-20(s0)
     ba8:	19478793          	addi	a5,a5,404
     bac:	0001c737          	lui	a4,0x1c
     bb0:	96870713          	addi	a4,a4,-1688 # 1b968 <__BSS_END__+0x144b0>
     bb4:	00e7a023          	sw	a4,0(a5)
     bb8:	fec42783          	lw	a5,-20(s0)
     bbc:	19878793          	addi	a5,a5,408
     bc0:	0001d737          	lui	a4,0x1d
     bc4:	0d870713          	addi	a4,a4,216 # 1d0d8 <__BSS_END__+0x15c20>
     bc8:	00e7a023          	sw	a4,0(a5)
     bcc:	fec42783          	lw	a5,-20(s0)
     bd0:	19c78793          	addi	a5,a5,412
     bd4:	0001f737          	lui	a4,0x1f
     bd8:	84870713          	addi	a4,a4,-1976 # 1e848 <__BSS_END__+0x17390>
     bdc:	00e7a023          	sw	a4,0(a5)
     be0:	fec42783          	lw	a5,-20(s0)
     be4:	1a078793          	addi	a5,a5,416
     be8:	0001d737          	lui	a4,0x1d
     bec:	0d870713          	addi	a4,a4,216 # 1d0d8 <__BSS_END__+0x15c20>
     bf0:	00e7a023          	sw	a4,0(a5)
     bf4:	fec42783          	lw	a5,-20(s0)
     bf8:	1a478793          	addi	a5,a5,420
     bfc:	0001c737          	lui	a4,0x1c
     c00:	96870713          	addi	a4,a4,-1688 # 1b968 <__BSS_END__+0x144b0>
     c04:	00e7a023          	sw	a4,0(a5)
     c08:	fec42783          	lw	a5,-20(s0)
     c0c:	1a878793          	addi	a5,a5,424
     c10:	0001a737          	lui	a4,0x1a
     c14:	1f870713          	addi	a4,a4,504 # 1a1f8 <__BSS_END__+0x12d40>
     c18:	00e7a023          	sw	a4,0(a5)
     c1c:	fec42783          	lw	a5,-20(s0)
     c20:	1ac78793          	addi	a5,a5,428
     c24:	00019737          	lui	a4,0x19
     c28:	a8870713          	addi	a4,a4,-1400 # 18a88 <__BSS_END__+0x115d0>
     c2c:	00e7a023          	sw	a4,0(a5)
     c30:	fec42783          	lw	a5,-20(s0)
     c34:	1b078793          	addi	a5,a5,432
     c38:	00017737          	lui	a4,0x17
     c3c:	31870713          	addi	a4,a4,792 # 17318 <__BSS_END__+0xfe60>
     c40:	00e7a023          	sw	a4,0(a5)
     c44:	fec42783          	lw	a5,-20(s0)
     c48:	1b478793          	addi	a5,a5,436
     c4c:	00018737          	lui	a4,0x18
     c50:	ed070713          	addi	a4,a4,-304 # 17ed0 <__BSS_END__+0x10a18>
     c54:	00e7a023          	sw	a4,0(a5)
     c58:	fec42783          	lw	a5,-20(s0)
     c5c:	1b878793          	addi	a5,a5,440
     c60:	00019737          	lui	a4,0x19
     c64:	a8870713          	addi	a4,a4,-1400 # 18a88 <__BSS_END__+0x115d0>
     c68:	00e7a023          	sw	a4,0(a5)
     c6c:	fec42783          	lw	a5,-20(s0)
     c70:	1bc78793          	addi	a5,a5,444
     c74:	00019737          	lui	a4,0x19
     c78:	64070713          	addi	a4,a4,1600 # 19640 <__BSS_END__+0x12188>
     c7c:	00e7a023          	sw	a4,0(a5)
     c80:	fec42783          	lw	a5,-20(s0)
     c84:	1c078793          	addi	a5,a5,448
     c88:	0001a737          	lui	a4,0x1a
     c8c:	1f870713          	addi	a4,a4,504 # 1a1f8 <__BSS_END__+0x12d40>
     c90:	00e7a023          	sw	a4,0(a5)
     c94:	fec42783          	lw	a5,-20(s0)
     c98:	1c478793          	addi	a5,a5,452
     c9c:	0001b737          	lui	a4,0x1b
     ca0:	db070713          	addi	a4,a4,-592 # 1adb0 <__BSS_END__+0x138f8>
     ca4:	00e7a023          	sw	a4,0(a5)
     ca8:	fec42783          	lw	a5,-20(s0)
     cac:	1c878793          	addi	a5,a5,456
     cb0:	0001a737          	lui	a4,0x1a
     cb4:	1f870713          	addi	a4,a4,504 # 1a1f8 <__BSS_END__+0x12d40>
     cb8:	00e7a023          	sw	a4,0(a5)
     cbc:	fec42783          	lw	a5,-20(s0)
     cc0:	1cc78793          	addi	a5,a5,460
     cc4:	0001a737          	lui	a4,0x1a
     cc8:	a2870713          	addi	a4,a4,-1496 # 19a28 <__BSS_END__+0x12570>
     ccc:	00e7a023          	sw	a4,0(a5)
     cd0:	fec42783          	lw	a5,-20(s0)
     cd4:	1d078793          	addi	a5,a5,464
     cd8:	00019737          	lui	a4,0x19
     cdc:	e7070713          	addi	a4,a4,-400 # 18e70 <__BSS_END__+0x119b8>
     ce0:	00e7a023          	sw	a4,0(a5)
     ce4:	fec42783          	lw	a5,-20(s0)
     ce8:	1d478793          	addi	a5,a5,468
     cec:	00018737          	lui	a4,0x18
     cf0:	2b870713          	addi	a4,a4,696 # 182b8 <__BSS_END__+0x10e00>
     cf4:	00e7a023          	sw	a4,0(a5)
     cf8:	fec42783          	lw	a5,-20(s0)
     cfc:	1d878793          	addi	a5,a5,472
     d00:	00018737          	lui	a4,0x18
     d04:	ae870713          	addi	a4,a4,-1304 # 17ae8 <__BSS_END__+0x10630>
     d08:	00e7a023          	sw	a4,0(a5)
     d0c:	fec42783          	lw	a5,-20(s0)
     d10:	1dc78793          	addi	a5,a5,476
     d14:	00017737          	lui	a4,0x17
     d18:	f3070713          	addi	a4,a4,-208 # 16f30 <__BSS_END__+0xfa78>
     d1c:	00e7a023          	sw	a4,0(a5)
     d20:	fec42783          	lw	a5,-20(s0)
     d24:	1e078793          	addi	a5,a5,480
     d28:	00016737          	lui	a4,0x16
     d2c:	76070713          	addi	a4,a4,1888 # 16760 <__BSS_END__+0xf2a8>
     d30:	00e7a023          	sw	a4,0(a5)
     d34:	fec42783          	lw	a5,-20(s0)
     d38:	1e478793          	addi	a5,a5,484
     d3c:	00016737          	lui	a4,0x16
     d40:	f9070713          	addi	a4,a4,-112 # 15f90 <__BSS_END__+0xead8>
     d44:	00e7a023          	sw	a4,0(a5)
     d48:	fec42783          	lw	a5,-20(s0)
     d4c:	1e878793          	addi	a5,a5,488
     d50:	00015737          	lui	a4,0x15
     d54:	3d870713          	addi	a4,a4,984 # 153d8 <__BSS_END__+0xdf20>
     d58:	00e7a023          	sw	a4,0(a5)
     d5c:	fec42783          	lw	a5,-20(s0)
     d60:	1ec78793          	addi	a5,a5,492
     d64:	00015737          	lui	a4,0x15
     d68:	c0870713          	addi	a4,a4,-1016 # 14c08 <__BSS_END__+0xd750>
     d6c:	00e7a023          	sw	a4,0(a5)
     d70:	fec42783          	lw	a5,-20(s0)
     d74:	1f078793          	addi	a5,a5,496
     d78:	00014737          	lui	a4,0x14
     d7c:	88070713          	addi	a4,a4,-1920 # 13880 <__BSS_END__+0xc3c8>
     d80:	00e7a023          	sw	a4,0(a5)
     d84:	fec42783          	lw	a5,-20(s0)
     d88:	1f478793          	addi	a5,a5,500
     d8c:	00012737          	lui	a4,0x12
     d90:	4f870713          	addi	a4,a4,1272 # 124f8 <__BSS_END__+0xb040>
     d94:	00e7a023          	sw	a4,0(a5)
     d98:	fec42783          	lw	a5,-20(s0)
     d9c:	1f878793          	addi	a5,a5,504
     da0:	00011737          	lui	a4,0x11
     da4:	d8870713          	addi	a4,a4,-632 # 10d88 <__BSS_END__+0x98d0>
     da8:	00e7a023          	sw	a4,0(a5)
     dac:	fec42783          	lw	a5,-20(s0)
     db0:	1fc78793          	addi	a5,a5,508
     db4:	00010737          	lui	a4,0x10
     db8:	a0070713          	addi	a4,a4,-1536 # fa00 <__BSS_END__+0x8548>
     dbc:	00e7a023          	sw	a4,0(a5)
     dc0:	fec42783          	lw	a5,-20(s0)
     dc4:	20078793          	addi	a5,a5,512
     dc8:	0000e737          	lui	a4,0xe
     dcc:	67870713          	addi	a4,a4,1656 # e678 <__BSS_END__+0x71c0>
     dd0:	00e7a023          	sw	a4,0(a5)
     dd4:	fec42783          	lw	a5,-20(s0)
     dd8:	20478793          	addi	a5,a5,516
     ddc:	0000f737          	lui	a4,0xf
     de0:	23070713          	addi	a4,a4,560 # f230 <__BSS_END__+0x7d78>
     de4:	00e7a023          	sw	a4,0(a5)
     de8:	fec42783          	lw	a5,-20(s0)
     dec:	20878793          	addi	a5,a5,520
     df0:	00010737          	lui	a4,0x10
     df4:	1d070713          	addi	a4,a4,464 # 101d0 <__BSS_END__+0x8d18>
     df8:	00e7a023          	sw	a4,0(a5)
     dfc:	fec42783          	lw	a5,-20(s0)
     e00:	20c78793          	addi	a5,a5,524
     e04:	00011737          	lui	a4,0x11
     e08:	17070713          	addi	a4,a4,368 # 11170 <__BSS_END__+0x9cb8>
     e0c:	00e7a023          	sw	a4,0(a5)
     e10:	fec42783          	lw	a5,-20(s0)
     e14:	21078793          	addi	a5,a5,528
     e18:	00012737          	lui	a4,0x12
     e1c:	d2870713          	addi	a4,a4,-728 # 11d28 <__BSS_END__+0xa870>
     e20:	00e7a023          	sw	a4,0(a5)
     e24:	fec42783          	lw	a5,-20(s0)
     e28:	21478793          	addi	a5,a5,532
     e2c:	00013737          	lui	a4,0x13
     e30:	cc870713          	addi	a4,a4,-824 # 12cc8 <__BSS_END__+0xb810>
     e34:	00e7a023          	sw	a4,0(a5)
     e38:	fec42783          	lw	a5,-20(s0)
     e3c:	21878793          	addi	a5,a5,536
     e40:	00013737          	lui	a4,0x13
     e44:	0b070713          	addi	a4,a4,176 # 130b0 <__BSS_END__+0xbbf8>
     e48:	00e7a023          	sw	a4,0(a5)
     e4c:	fec42783          	lw	a5,-20(s0)
     e50:	21c78793          	addi	a5,a5,540
     e54:	00013737          	lui	a4,0x13
     e58:	49870713          	addi	a4,a4,1176 # 13498 <__BSS_END__+0xbfe0>
     e5c:	00e7a023          	sw	a4,0(a5)
     e60:	fec42783          	lw	a5,-20(s0)
     e64:	22078793          	addi	a5,a5,544
     e68:	00014737          	lui	a4,0x14
     e6c:	c6870713          	addi	a4,a4,-920 # 13c68 <__BSS_END__+0xc7b0>
     e70:	00e7a023          	sw	a4,0(a5)
     e74:	fec42783          	lw	a5,-20(s0)
     e78:	22478793          	addi	a5,a5,548
     e7c:	00014737          	lui	a4,0x14
     e80:	05070713          	addi	a4,a4,80 # 14050 <__BSS_END__+0xcb98>
     e84:	00e7a023          	sw	a4,0(a5)
     e88:	fec42783          	lw	a5,-20(s0)
     e8c:	22878793          	addi	a5,a5,552
     e90:	00015737          	lui	a4,0x15
     e94:	82070713          	addi	a4,a4,-2016 # 14820 <__BSS_END__+0xd368>
     e98:	00e7a023          	sw	a4,0(a5)
     e9c:	fec42783          	lw	a5,-20(s0)
     ea0:	22c78793          	addi	a5,a5,556
     ea4:	00015737          	lui	a4,0x15
     ea8:	7c070713          	addi	a4,a4,1984 # 157c0 <__BSS_END__+0xe308>
     eac:	00e7a023          	sw	a4,0(a5)
     eb0:	fec42783          	lw	a5,-20(s0)
     eb4:	23078793          	addi	a5,a5,560
     eb8:	00016737          	lui	a4,0x16
     ebc:	37870713          	addi	a4,a4,888 # 16378 <__BSS_END__+0xeec0>
     ec0:	00e7a023          	sw	a4,0(a5)
     ec4:	fec42783          	lw	a5,-20(s0)
     ec8:	23478793          	addi	a5,a5,564
     ecc:	00017737          	lui	a4,0x17
     ed0:	31870713          	addi	a4,a4,792 # 17318 <__BSS_END__+0xfe60>
     ed4:	00e7a023          	sw	a4,0(a5)
     ed8:	fec42783          	lw	a5,-20(s0)
     edc:	23878793          	addi	a5,a5,568
     ee0:	00018737          	lui	a4,0x18
     ee4:	2b870713          	addi	a4,a4,696 # 182b8 <__BSS_END__+0x10e00>
     ee8:	00e7a023          	sw	a4,0(a5)
     eec:	fec42783          	lw	a5,-20(s0)
     ef0:	23c78793          	addi	a5,a5,572
     ef4:	00019737          	lui	a4,0x19
     ef8:	25870713          	addi	a4,a4,600 # 19258 <__BSS_END__+0x11da0>
     efc:	00e7a023          	sw	a4,0(a5)
     f00:	fec42783          	lw	a5,-20(s0)
     f04:	24078793          	addi	a5,a5,576
     f08:	00019737          	lui	a4,0x19
     f0c:	e7070713          	addi	a4,a4,-400 # 18e70 <__BSS_END__+0x119b8>
     f10:	00e7a023          	sw	a4,0(a5)
     f14:	fec42783          	lw	a5,-20(s0)
     f18:	24478793          	addi	a5,a5,580
     f1c:	00019737          	lui	a4,0x19
     f20:	a8870713          	addi	a4,a4,-1400 # 18a88 <__BSS_END__+0x115d0>
     f24:	00e7a023          	sw	a4,0(a5)
     f28:	fec42783          	lw	a5,-20(s0)
     f2c:	24878793          	addi	a5,a5,584
     f30:	00019737          	lui	a4,0x19
     f34:	a8870713          	addi	a4,a4,-1400 # 18a88 <__BSS_END__+0x115d0>
     f38:	00e7a023          	sw	a4,0(a5)
     f3c:	fec42783          	lw	a5,-20(s0)
     f40:	24c78793          	addi	a5,a5,588
     f44:	00018737          	lui	a4,0x18
     f48:	6a070713          	addi	a4,a4,1696 # 186a0 <__BSS_END__+0x111e8>
     f4c:	00e7a023          	sw	a4,0(a5)
     f50:	fec42783          	lw	a5,-20(s0)
     f54:	25078793          	addi	a5,a5,592
     f58:	00018737          	lui	a4,0x18
     f5c:	2b870713          	addi	a4,a4,696 # 182b8 <__BSS_END__+0x10e00>
     f60:	00e7a023          	sw	a4,0(a5)
     f64:	fec42783          	lw	a5,-20(s0)
     f68:	25478793          	addi	a5,a5,596
     f6c:	00018737          	lui	a4,0x18
     f70:	6a070713          	addi	a4,a4,1696 # 186a0 <__BSS_END__+0x111e8>
     f74:	00e7a023          	sw	a4,0(a5)
     f78:	fec42783          	lw	a5,-20(s0)
     f7c:	25878793          	addi	a5,a5,600
     f80:	00019737          	lui	a4,0x19
     f84:	a8870713          	addi	a4,a4,-1400 # 18a88 <__BSS_END__+0x115d0>
     f88:	00e7a023          	sw	a4,0(a5)
     f8c:	fec42783          	lw	a5,-20(s0)
     f90:	25c78793          	addi	a5,a5,604
     f94:	00019737          	lui	a4,0x19
     f98:	e7070713          	addi	a4,a4,-400 # 18e70 <__BSS_END__+0x119b8>
     f9c:	00e7a023          	sw	a4,0(a5)
     fa0:	fec42783          	lw	a5,-20(s0)
     fa4:	26078793          	addi	a5,a5,608
     fa8:	00019737          	lui	a4,0x19
     fac:	25870713          	addi	a4,a4,600 # 19258 <__BSS_END__+0x11da0>
     fb0:	00e7a023          	sw	a4,0(a5)
     fb4:	fec42783          	lw	a5,-20(s0)
     fb8:	26478793          	addi	a5,a5,612
     fbc:	00019737          	lui	a4,0x19
     fc0:	64070713          	addi	a4,a4,1600 # 19640 <__BSS_END__+0x12188>
     fc4:	00e7a023          	sw	a4,0(a5)
     fc8:	fec42783          	lw	a5,-20(s0)
     fcc:	26878793          	addi	a5,a5,616
     fd0:	0001b737          	lui	a4,0x1b
     fd4:	db070713          	addi	a4,a4,-592 # 1adb0 <__BSS_END__+0x138f8>
     fd8:	00e7a023          	sw	a4,0(a5)
     fdc:	fec42783          	lw	a5,-20(s0)
     fe0:	26c78793          	addi	a5,a5,620
     fe4:	0001c737          	lui	a4,0x1c
     fe8:	52070713          	addi	a4,a4,1312 # 1c520 <__BSS_END__+0x15068>
     fec:	00e7a023          	sw	a4,0(a5)
     ff0:	fec42783          	lw	a5,-20(s0)
     ff4:	27078793          	addi	a5,a5,624
     ff8:	0001e737          	lui	a4,0x1e
     ffc:	c9070713          	addi	a4,a4,-880 # 1dc90 <__BSS_END__+0x167d8>
    1000:	00e7a023          	sw	a4,0(a5)
    1004:	fec42783          	lw	a5,-20(s0)
    1008:	27478793          	addi	a5,a5,628
    100c:	0001f737          	lui	a4,0x1f
    1010:	40070713          	addi	a4,a4,1024 # 1f400 <__BSS_END__+0x17f48>
    1014:	00e7a023          	sw	a4,0(a5)
    1018:	fec42783          	lw	a5,-20(s0)
    101c:	27878793          	addi	a5,a5,632
    1020:	00021737          	lui	a4,0x21
    1024:	b7070713          	addi	a4,a4,-1168 # 20b70 <__BSS_END__+0x196b8>
    1028:	00e7a023          	sw	a4,0(a5)
    102c:	fec42783          	lw	a5,-20(s0)
    1030:	27c78793          	addi	a5,a5,636
    1034:	00020737          	lui	a4,0x20
    1038:	fb870713          	addi	a4,a4,-72 # 1ffb8 <__BSS_END__+0x18b00>
    103c:	00e7a023          	sw	a4,0(a5)
    1040:	fec42783          	lw	a5,-20(s0)
    1044:	28078793          	addi	a5,a5,640
    1048:	0001f737          	lui	a4,0x1f
    104c:	01870713          	addi	a4,a4,24 # 1f018 <__BSS_END__+0x17b60>
    1050:	00e7a023          	sw	a4,0(a5)
    1054:	fec42783          	lw	a5,-20(s0)
    1058:	28478793          	addi	a5,a5,644
    105c:	0001e737          	lui	a4,0x1e
    1060:	07870713          	addi	a4,a4,120 # 1e078 <__BSS_END__+0x16bc0>
    1064:	00e7a023          	sw	a4,0(a5)
    1068:	fec42783          	lw	a5,-20(s0)
    106c:	28878793          	addi	a5,a5,648
    1070:	0001d737          	lui	a4,0x1d
    1074:	0d870713          	addi	a4,a4,216 # 1d0d8 <__BSS_END__+0x15c20>
    1078:	00e7a023          	sw	a4,0(a5)
    107c:	fec42783          	lw	a5,-20(s0)
    1080:	28c78793          	addi	a5,a5,652
    1084:	0001c737          	lui	a4,0x1c
    1088:	13870713          	addi	a4,a4,312 # 1c138 <__BSS_END__+0x14c80>
    108c:	00e7a023          	sw	a4,0(a5)
    1090:	fec42783          	lw	a5,-20(s0)
    1094:	29078793          	addi	a5,a5,656
    1098:	0001f737          	lui	a4,0x1f
    109c:	84870713          	addi	a4,a4,-1976 # 1e848 <__BSS_END__+0x17390>
    10a0:	00e7a023          	sw	a4,0(a5)
    10a4:	fec42783          	lw	a5,-20(s0)
    10a8:	29478793          	addi	a5,a5,660
    10ac:	00021737          	lui	a4,0x21
    10b0:	f5870713          	addi	a4,a4,-168 # 20f58 <__BSS_END__+0x19aa0>
    10b4:	00e7a023          	sw	a4,0(a5)
    10b8:	fec42783          	lw	a5,-20(s0)
    10bc:	29878793          	addi	a5,a5,664
    10c0:	00023737          	lui	a4,0x23
    10c4:	66870713          	addi	a4,a4,1640 # 23668 <__BSS_END__+0x1c1b0>
    10c8:	00e7a023          	sw	a4,0(a5)
    10cc:	fec42783          	lw	a5,-20(s0)
    10d0:	29c78793          	addi	a5,a5,668
    10d4:	00026737          	lui	a4,0x26
    10d8:	d7870713          	addi	a4,a4,-648 # 25d78 <__BSS_END__+0x1e8c0>
    10dc:	00e7a023          	sw	a4,0(a5)
    10e0:	fec42783          	lw	a5,-20(s0)
    10e4:	2a078793          	addi	a5,a5,672
    10e8:	00028737          	lui	a4,0x28
    10ec:	48870713          	addi	a4,a4,1160 # 28488 <__BSS_END__+0x20fd0>
    10f0:	00e7a023          	sw	a4,0(a5)
    10f4:	fec42783          	lw	a5,-20(s0)
    10f8:	2a478793          	addi	a5,a5,676
    10fc:	00029737          	lui	a4,0x29
    1100:	c5870713          	addi	a4,a4,-936 # 28c58 <__BSS_END__+0x217a0>
    1104:	00e7a023          	sw	a4,0(a5)
    1108:	fec42783          	lw	a5,-20(s0)
    110c:	2a878793          	addi	a5,a5,680
    1110:	00029737          	lui	a4,0x29
    1114:	42870713          	addi	a4,a4,1064 # 29428 <__BSS_END__+0x21f70>
    1118:	00e7a023          	sw	a4,0(a5)
    111c:	fec42783          	lw	a5,-20(s0)
    1120:	2ac78793          	addi	a5,a5,684
    1124:	0002a737          	lui	a4,0x2a
    1128:	bf870713          	addi	a4,a4,-1032 # 29bf8 <__BSS_END__+0x22740>
    112c:	00e7a023          	sw	a4,0(a5)
    1130:	fec42783          	lw	a5,-20(s0)
    1134:	2b078793          	addi	a5,a5,688
    1138:	0002a737          	lui	a4,0x2a
    113c:	3c870713          	addi	a4,a4,968 # 2a3c8 <__BSS_END__+0x22f10>
    1140:	00e7a023          	sw	a4,0(a5)
    1144:	fec42783          	lw	a5,-20(s0)
    1148:	2b478793          	addi	a5,a5,692
    114c:	0002b737          	lui	a4,0x2b
    1150:	b9870713          	addi	a4,a4,-1128 # 2ab98 <__BSS_END__+0x236e0>
    1154:	00e7a023          	sw	a4,0(a5)
    1158:	fec42783          	lw	a5,-20(s0)
    115c:	2b878793          	addi	a5,a5,696
    1160:	0002b737          	lui	a4,0x2b
    1164:	f8070713          	addi	a4,a4,-128 # 2af80 <__BSS_END__+0x23ac8>
    1168:	00e7a023          	sw	a4,0(a5)
    116c:	fec42783          	lw	a5,-20(s0)
    1170:	2bc78793          	addi	a5,a5,700
    1174:	0002b737          	lui	a4,0x2b
    1178:	f8070713          	addi	a4,a4,-128 # 2af80 <__BSS_END__+0x23ac8>
    117c:	00e7a023          	sw	a4,0(a5)
    1180:	fec42783          	lw	a5,-20(s0)
    1184:	2c078793          	addi	a5,a5,704
    1188:	0002b737          	lui	a4,0x2b
    118c:	f8070713          	addi	a4,a4,-128 # 2af80 <__BSS_END__+0x23ac8>
    1190:	00e7a023          	sw	a4,0(a5)
    1194:	fec42783          	lw	a5,-20(s0)
    1198:	2c478793          	addi	a5,a5,708
    119c:	0002b737          	lui	a4,0x2b
    11a0:	f8070713          	addi	a4,a4,-128 # 2af80 <__BSS_END__+0x23ac8>
    11a4:	00e7a023          	sw	a4,0(a5)
    11a8:	fec42783          	lw	a5,-20(s0)
    11ac:	2c878793          	addi	a5,a5,712
    11b0:	0002b737          	lui	a4,0x2b
    11b4:	f8070713          	addi	a4,a4,-128 # 2af80 <__BSS_END__+0x23ac8>
    11b8:	00e7a023          	sw	a4,0(a5)
    11bc:	fec42783          	lw	a5,-20(s0)
    11c0:	2cc78793          	addi	a5,a5,716
    11c4:	0002c737          	lui	a4,0x2c
    11c8:	30870713          	addi	a4,a4,776 # 2c308 <__BSS_END__+0x24e50>
    11cc:	00e7a023          	sw	a4,0(a5)
    11d0:	fec42783          	lw	a5,-20(s0)
    11d4:	2d078793          	addi	a5,a5,720
    11d8:	0002d737          	lui	a4,0x2d
    11dc:	69070713          	addi	a4,a4,1680 # 2d690 <__BSS_END__+0x261d8>
    11e0:	00e7a023          	sw	a4,0(a5)
    11e4:	fec42783          	lw	a5,-20(s0)
    11e8:	2d478793          	addi	a5,a5,724
    11ec:	0002f737          	lui	a4,0x2f
    11f0:	e0070713          	addi	a4,a4,-512 # 2ee00 <__BSS_END__+0x27948>
    11f4:	00e7a023          	sw	a4,0(a5)
    11f8:	fec42783          	lw	a5,-20(s0)
    11fc:	2d878793          	addi	a5,a5,728
    1200:	00030737          	lui	a4,0x30
    1204:	18870713          	addi	a4,a4,392 # 30188 <__BSS_END__+0x28cd0>
    1208:	00e7a023          	sw	a4,0(a5)
    120c:	fec42783          	lw	a5,-20(s0)
    1210:	2dc78793          	addi	a5,a5,732
    1214:	00031737          	lui	a4,0x31
    1218:	51070713          	addi	a4,a4,1296 # 31510 <__BSS_END__+0x2a058>
    121c:	00e7a023          	sw	a4,0(a5)
    1220:	fec42783          	lw	a5,-20(s0)
    1224:	2e078793          	addi	a5,a5,736
    1228:	00031737          	lui	a4,0x31
    122c:	12870713          	addi	a4,a4,296 # 31128 <__BSS_END__+0x29c70>
    1230:	00e7a023          	sw	a4,0(a5)
    1234:	fec42783          	lw	a5,-20(s0)
    1238:	2e478793          	addi	a5,a5,740
    123c:	00031737          	lui	a4,0x31
    1240:	d4070713          	addi	a4,a4,-704 # 30d40 <__BSS_END__+0x29888>
    1244:	00e7a023          	sw	a4,0(a5)
    1248:	fec42783          	lw	a5,-20(s0)
    124c:	2e878793          	addi	a5,a5,744
    1250:	00031737          	lui	a4,0x31
    1254:	95870713          	addi	a4,a4,-1704 # 30958 <__BSS_END__+0x294a0>
    1258:	00e7a023          	sw	a4,0(a5)
    125c:	fec42783          	lw	a5,-20(s0)
    1260:	2ec78793          	addi	a5,a5,748
    1264:	00030737          	lui	a4,0x30
    1268:	57070713          	addi	a4,a4,1392 # 30570 <__BSS_END__+0x290b8>
    126c:	00e7a023          	sw	a4,0(a5)
    1270:	fec42783          	lw	a5,-20(s0)
    1274:	2f078793          	addi	a5,a5,752
    1278:	00030737          	lui	a4,0x30
    127c:	18870713          	addi	a4,a4,392 # 30188 <__BSS_END__+0x28cd0>
    1280:	00e7a023          	sw	a4,0(a5)
    1284:	fec42783          	lw	a5,-20(s0)
    1288:	2f478793          	addi	a5,a5,756
    128c:	0002d737          	lui	a4,0x2d
    1290:	2a870713          	addi	a4,a4,680 # 2d2a8 <__BSS_END__+0x25df0>
    1294:	00e7a023          	sw	a4,0(a5)
    1298:	fec42783          	lw	a5,-20(s0)
    129c:	2f878793          	addi	a5,a5,760
    12a0:	0002a737          	lui	a4,0x2a
    12a4:	fe070713          	addi	a4,a4,-32 # 29fe0 <__BSS_END__+0x22b28>
    12a8:	00e7a023          	sw	a4,0(a5)
    12ac:	fec42783          	lw	a5,-20(s0)
    12b0:	2fc78793          	addi	a5,a5,764
    12b4:	00027737          	lui	a4,0x27
    12b8:	10070713          	addi	a4,a4,256 # 27100 <__BSS_END__+0x1fc48>
    12bc:	00e7a023          	sw	a4,0(a5)
    12c0:	fec42783          	lw	a5,-20(s0)
    12c4:	30078793          	addi	a5,a5,768
    12c8:	00024737          	lui	a4,0x24
    12cc:	22070713          	addi	a4,a4,544 # 24220 <__BSS_END__+0x1cd68>
    12d0:	00e7a023          	sw	a4,0(a5)
    12d4:	fec42783          	lw	a5,-20(s0)
    12d8:	30478793          	addi	a5,a5,772
    12dc:	00021737          	lui	a4,0x21
    12e0:	f5870713          	addi	a4,a4,-168 # 20f58 <__BSS_END__+0x19aa0>
    12e4:	00e7a023          	sw	a4,0(a5)
    12e8:	fec42783          	lw	a5,-20(s0)
    12ec:	30878793          	addi	a5,a5,776
    12f0:	00022737          	lui	a4,0x22
    12f4:	2e070713          	addi	a4,a4,736 # 222e0 <__BSS_END__+0x1ae28>
    12f8:	00e7a023          	sw	a4,0(a5)
    12fc:	fec42783          	lw	a5,-20(s0)
    1300:	30c78793          	addi	a5,a5,780
    1304:	00023737          	lui	a4,0x23
    1308:	66870713          	addi	a4,a4,1640 # 23668 <__BSS_END__+0x1c1b0>
    130c:	00e7a023          	sw	a4,0(a5)
    1310:	fec42783          	lw	a5,-20(s0)
    1314:	31078793          	addi	a5,a5,784
    1318:	00025737          	lui	a4,0x25
    131c:	9f070713          	addi	a4,a4,-1552 # 249f0 <__BSS_END__+0x1d538>
    1320:	00e7a023          	sw	a4,0(a5)
    1324:	fec42783          	lw	a5,-20(s0)
    1328:	31478793          	addi	a5,a5,788
    132c:	00026737          	lui	a4,0x26
    1330:	d7870713          	addi	a4,a4,-648 # 25d78 <__BSS_END__+0x1e8c0>
    1334:	00e7a023          	sw	a4,0(a5)
    1338:	fec42783          	lw	a5,-20(s0)
    133c:	31878793          	addi	a5,a5,792
    1340:	00027737          	lui	a4,0x27
    1344:	10070713          	addi	a4,a4,256 # 27100 <__BSS_END__+0x1fc48>
    1348:	00e7a023          	sw	a4,0(a5)
    134c:	fec42783          	lw	a5,-20(s0)
    1350:	31c78793          	addi	a5,a5,796
    1354:	00028737          	lui	a4,0x28
    1358:	0a070713          	addi	a4,a4,160 # 280a0 <__BSS_END__+0x20be8>
    135c:	00e7a023          	sw	a4,0(a5)
    1360:	fec42783          	lw	a5,-20(s0)
    1364:	32078793          	addi	a5,a5,800
    1368:	00029737          	lui	a4,0x29
    136c:	04070713          	addi	a4,a4,64 # 29040 <__BSS_END__+0x21b88>
    1370:	00e7a023          	sw	a4,0(a5)
    1374:	fec42783          	lw	a5,-20(s0)
    1378:	32478793          	addi	a5,a5,804
    137c:	0002a737          	lui	a4,0x2a
    1380:	3c870713          	addi	a4,a4,968 # 2a3c8 <__BSS_END__+0x22f10>
    1384:	00e7a023          	sw	a4,0(a5)
    1388:	fec42783          	lw	a5,-20(s0)
    138c:	32878793          	addi	a5,a5,808
    1390:	0002b737          	lui	a4,0x2b
    1394:	36870713          	addi	a4,a4,872 # 2b368 <__BSS_END__+0x23eb0>
    1398:	00e7a023          	sw	a4,0(a5)
    139c:	fec42783          	lw	a5,-20(s0)
    13a0:	32c78793          	addi	a5,a5,812
    13a4:	0002c737          	lui	a4,0x2c
    13a8:	30870713          	addi	a4,a4,776 # 2c308 <__BSS_END__+0x24e50>
    13ac:	00e7a023          	sw	a4,0(a5)
    13b0:	fec42783          	lw	a5,-20(s0)
    13b4:	33078793          	addi	a5,a5,816
    13b8:	0002c737          	lui	a4,0x2c
    13bc:	30870713          	addi	a4,a4,776 # 2c308 <__BSS_END__+0x24e50>
    13c0:	00e7a023          	sw	a4,0(a5)
    13c4:	fec42783          	lw	a5,-20(s0)
    13c8:	33478793          	addi	a5,a5,820
    13cc:	0002c737          	lui	a4,0x2c
    13d0:	f2070713          	addi	a4,a4,-224 # 2bf20 <__BSS_END__+0x24a68>
    13d4:	00e7a023          	sw	a4,0(a5)
    13d8:	fec42783          	lw	a5,-20(s0)
    13dc:	33878793          	addi	a5,a5,824
    13e0:	0002c737          	lui	a4,0x2c
    13e4:	f2070713          	addi	a4,a4,-224 # 2bf20 <__BSS_END__+0x24a68>
    13e8:	00e7a023          	sw	a4,0(a5)
    13ec:	fec42783          	lw	a5,-20(s0)
    13f0:	33c78793          	addi	a5,a5,828
    13f4:	0002c737          	lui	a4,0x2c
    13f8:	b3870713          	addi	a4,a4,-1224 # 2bb38 <__BSS_END__+0x24680>
    13fc:	00e7a023          	sw	a4,0(a5)
    1400:	fec42783          	lw	a5,-20(s0)
    1404:	34078793          	addi	a5,a5,832
    1408:	0002c737          	lui	a4,0x2c
    140c:	b3870713          	addi	a4,a4,-1224 # 2bb38 <__BSS_END__+0x24680>
    1410:	00e7a023          	sw	a4,0(a5)
    1414:	fec42783          	lw	a5,-20(s0)
    1418:	34478793          	addi	a5,a5,836
    141c:	0002a737          	lui	a4,0x2a
    1420:	fe070713          	addi	a4,a4,-32 # 29fe0 <__BSS_END__+0x22b28>
    1424:	00e7a023          	sw	a4,0(a5)
    1428:	fec42783          	lw	a5,-20(s0)
    142c:	34878793          	addi	a5,a5,840
    1430:	00028737          	lui	a4,0x28
    1434:	48870713          	addi	a4,a4,1160 # 28488 <__BSS_END__+0x20fd0>
    1438:	00e7a023          	sw	a4,0(a5)
    143c:	fec42783          	lw	a5,-20(s0)
    1440:	34c78793          	addi	a5,a5,844
    1444:	00027737          	lui	a4,0x27
    1448:	93070713          	addi	a4,a4,-1744 # 26930 <__BSS_END__+0x1f478>
    144c:	00e7a023          	sw	a4,0(a5)
    1450:	fec42783          	lw	a5,-20(s0)
    1454:	35078793          	addi	a5,a5,848
    1458:	00025737          	lui	a4,0x25
    145c:	1c070713          	addi	a4,a4,448 # 251c0 <__BSS_END__+0x1dd08>
    1460:	00e7a023          	sw	a4,0(a5)
    1464:	fec42783          	lw	a5,-20(s0)
    1468:	35478793          	addi	a5,a5,852
    146c:	00023737          	lui	a4,0x23
    1470:	66870713          	addi	a4,a4,1640 # 23668 <__BSS_END__+0x1c1b0>
    1474:	00e7a023          	sw	a4,0(a5)
    1478:	fec42783          	lw	a5,-20(s0)
    147c:	35878793          	addi	a5,a5,856
    1480:	00022737          	lui	a4,0x22
    1484:	6c870713          	addi	a4,a4,1736 # 226c8 <__BSS_END__+0x1b210>
    1488:	00e7a023          	sw	a4,0(a5)
    148c:	fec42783          	lw	a5,-20(s0)
    1490:	35c78793          	addi	a5,a5,860
    1494:	00022737          	lui	a4,0x22
    1498:	b1070713          	addi	a4,a4,-1264 # 21b10 <__BSS_END__+0x1a658>
    149c:	00e7a023          	sw	a4,0(a5)
    14a0:	fec42783          	lw	a5,-20(s0)
    14a4:	36078793          	addi	a5,a5,864
    14a8:	00021737          	lui	a4,0x21
    14ac:	b7070713          	addi	a4,a4,-1168 # 20b70 <__BSS_END__+0x196b8>
    14b0:	00e7a023          	sw	a4,0(a5)
    14b4:	fec42783          	lw	a5,-20(s0)
    14b8:	36478793          	addi	a5,a5,868
    14bc:	00020737          	lui	a4,0x20
    14c0:	fb870713          	addi	a4,a4,-72 # 1ffb8 <__BSS_END__+0x18b00>
    14c4:	00e7a023          	sw	a4,0(a5)
    14c8:	fec42783          	lw	a5,-20(s0)
    14cc:	36878793          	addi	a5,a5,872
    14d0:	0001f737          	lui	a4,0x1f
    14d4:	01870713          	addi	a4,a4,24 # 1f018 <__BSS_END__+0x17b60>
    14d8:	00e7a023          	sw	a4,0(a5)
    14dc:	fec42783          	lw	a5,-20(s0)
    14e0:	36c78793          	addi	a5,a5,876
    14e4:	0001f737          	lui	a4,0x1f
    14e8:	7e870713          	addi	a4,a4,2024 # 1f7e8 <__BSS_END__+0x18330>
    14ec:	00e7a023          	sw	a4,0(a5)
    14f0:	fec42783          	lw	a5,-20(s0)
    14f4:	37078793          	addi	a5,a5,880
    14f8:	00020737          	lui	a4,0x20
    14fc:	fb870713          	addi	a4,a4,-72 # 1ffb8 <__BSS_END__+0x18b00>
    1500:	00e7a023          	sw	a4,0(a5)
    1504:	fec42783          	lw	a5,-20(s0)
    1508:	37478793          	addi	a5,a5,884
    150c:	00020737          	lui	a4,0x20
    1510:	78870713          	addi	a4,a4,1928 # 20788 <__BSS_END__+0x192d0>
    1514:	00e7a023          	sw	a4,0(a5)
    1518:	fec42783          	lw	a5,-20(s0)
    151c:	37878793          	addi	a5,a5,888
    1520:	00021737          	lui	a4,0x21
    1524:	f5870713          	addi	a4,a4,-168 # 20f58 <__BSS_END__+0x19aa0>
    1528:	00e7a023          	sw	a4,0(a5)
    152c:	fec42783          	lw	a5,-20(s0)
    1530:	37c78793          	addi	a5,a5,892
    1534:	00021737          	lui	a4,0x21
    1538:	34070713          	addi	a4,a4,832 # 21340 <__BSS_END__+0x19e88>
    153c:	00e7a023          	sw	a4,0(a5)
    1540:	fec42783          	lw	a5,-20(s0)
    1544:	38078793          	addi	a5,a5,896
    1548:	00024737          	lui	a4,0x24
    154c:	22070713          	addi	a4,a4,544 # 24220 <__BSS_END__+0x1cd68>
    1550:	00e7a023          	sw	a4,0(a5)
    1554:	fec42783          	lw	a5,-20(s0)
    1558:	38478793          	addi	a5,a5,900
    155c:	00027737          	lui	a4,0x27
    1560:	10070713          	addi	a4,a4,256 # 27100 <__BSS_END__+0x1fc48>
    1564:	00e7a023          	sw	a4,0(a5)
    1568:	fec42783          	lw	a5,-20(s0)
    156c:	38878793          	addi	a5,a5,904
    1570:	0002a737          	lui	a4,0x2a
    1574:	bf870713          	addi	a4,a4,-1032 # 29bf8 <__BSS_END__+0x22740>
    1578:	00e7a023          	sw	a4,0(a5)
    157c:	fec42783          	lw	a5,-20(s0)
    1580:	38c78793          	addi	a5,a5,908
    1584:	0002d737          	lui	a4,0x2d
    1588:	ad870713          	addi	a4,a4,-1320 # 2cad8 <__BSS_END__+0x25620>
    158c:	00e7a023          	sw	a4,0(a5)
    1590:	fec42783          	lw	a5,-20(s0)
    1594:	39078793          	addi	a5,a5,912
    1598:	00030737          	lui	a4,0x30
    159c:	9b870713          	addi	a4,a4,-1608 # 2f9b8 <__BSS_END__+0x28500>
    15a0:	00e7a023          	sw	a4,0(a5)
    15a4:	fec42783          	lw	a5,-20(s0)
    15a8:	39478793          	addi	a5,a5,916
    15ac:	0002f737          	lui	a4,0x2f
    15b0:	5d070713          	addi	a4,a4,1488 # 2f5d0 <__BSS_END__+0x28118>
    15b4:	00e7a023          	sw	a4,0(a5)
    15b8:	fec42783          	lw	a5,-20(s0)
    15bc:	39878793          	addi	a5,a5,920
    15c0:	0002f737          	lui	a4,0x2f
    15c4:	5d070713          	addi	a4,a4,1488 # 2f5d0 <__BSS_END__+0x28118>
    15c8:	00e7a023          	sw	a4,0(a5)
    15cc:	fec42783          	lw	a5,-20(s0)
    15d0:	39c78793          	addi	a5,a5,924
    15d4:	0002f737          	lui	a4,0x2f
    15d8:	1e870713          	addi	a4,a4,488 # 2f1e8 <__BSS_END__+0x27d30>
    15dc:	00e7a023          	sw	a4,0(a5)
    15e0:	fec42783          	lw	a5,-20(s0)
    15e4:	3a078793          	addi	a5,a5,928
    15e8:	0002f737          	lui	a4,0x2f
    15ec:	1e870713          	addi	a4,a4,488 # 2f1e8 <__BSS_END__+0x27d30>
    15f0:	00e7a023          	sw	a4,0(a5)
    15f4:	fec42783          	lw	a5,-20(s0)
    15f8:	3a478793          	addi	a5,a5,932
    15fc:	0002f737          	lui	a4,0x2f
    1600:	e0070713          	addi	a4,a4,-512 # 2ee00 <__BSS_END__+0x27948>
    1604:	00e7a023          	sw	a4,0(a5)
    1608:	fec42783          	lw	a5,-20(s0)
    160c:	3a878793          	addi	a5,a5,936
    1610:	0002f737          	lui	a4,0x2f
    1614:	1e870713          	addi	a4,a4,488 # 2f1e8 <__BSS_END__+0x27d30>
    1618:	00e7a023          	sw	a4,0(a5)
    161c:	fec42783          	lw	a5,-20(s0)
    1620:	3ac78793          	addi	a5,a5,940
    1624:	0002f737          	lui	a4,0x2f
    1628:	1e870713          	addi	a4,a4,488 # 2f1e8 <__BSS_END__+0x27d30>
    162c:	00e7a023          	sw	a4,0(a5)
    1630:	fec42783          	lw	a5,-20(s0)
    1634:	3b078793          	addi	a5,a5,944
    1638:	0002f737          	lui	a4,0x2f
    163c:	1e870713          	addi	a4,a4,488 # 2f1e8 <__BSS_END__+0x27d30>
    1640:	00e7a023          	sw	a4,0(a5)
    1644:	fec42783          	lw	a5,-20(s0)
    1648:	3b478793          	addi	a5,a5,948
    164c:	0002f737          	lui	a4,0x2f
    1650:	5d070713          	addi	a4,a4,1488 # 2f5d0 <__BSS_END__+0x28118>
    1654:	00e7a023          	sw	a4,0(a5)
    1658:	fec42783          	lw	a5,-20(s0)
    165c:	3b878793          	addi	a5,a5,952
    1660:	0002f737          	lui	a4,0x2f
    1664:	5d070713          	addi	a4,a4,1488 # 2f5d0 <__BSS_END__+0x28118>
    1668:	00e7a023          	sw	a4,0(a5)
    166c:	fec42783          	lw	a5,-20(s0)
    1670:	3bc78793          	addi	a5,a5,956
    1674:	0002f737          	lui	a4,0x2f
    1678:	a1870713          	addi	a4,a4,-1512 # 2ea18 <__BSS_END__+0x27560>
    167c:	00e7a023          	sw	a4,0(a5)
    1680:	fec42783          	lw	a5,-20(s0)
    1684:	3c078793          	addi	a5,a5,960
    1688:	0002e737          	lui	a4,0x2e
    168c:	e6070713          	addi	a4,a4,-416 # 2de60 <__BSS_END__+0x269a8>
    1690:	00e7a023          	sw	a4,0(a5)
    1694:	fec42783          	lw	a5,-20(s0)
    1698:	3c478793          	addi	a5,a5,964
    169c:	0002d737          	lui	a4,0x2d
    16a0:	2a870713          	addi	a4,a4,680 # 2d2a8 <__BSS_END__+0x25df0>
    16a4:	00e7a023          	sw	a4,0(a5)
    16a8:	fec42783          	lw	a5,-20(s0)
    16ac:	3c878793          	addi	a5,a5,968
    16b0:	0002c737          	lui	a4,0x2c
    16b4:	30870713          	addi	a4,a4,776 # 2c308 <__BSS_END__+0x24e50>
    16b8:	00e7a023          	sw	a4,0(a5)
    16bc:	fec42783          	lw	a5,-20(s0)
    16c0:	3cc78793          	addi	a5,a5,972
    16c4:	0002b737          	lui	a4,0x2b
    16c8:	75070713          	addi	a4,a4,1872 # 2b750 <__BSS_END__+0x24298>
    16cc:	00e7a023          	sw	a4,0(a5)
    16d0:	fec42783          	lw	a5,-20(s0)
    16d4:	3d078793          	addi	a5,a5,976
    16d8:	0002b737          	lui	a4,0x2b
    16dc:	36870713          	addi	a4,a4,872 # 2b368 <__BSS_END__+0x23eb0>
    16e0:	00e7a023          	sw	a4,0(a5)
    16e4:	fec42783          	lw	a5,-20(s0)
    16e8:	3d478793          	addi	a5,a5,980
    16ec:	0002b737          	lui	a4,0x2b
    16f0:	f8070713          	addi	a4,a4,-128 # 2af80 <__BSS_END__+0x23ac8>
    16f4:	00e7a023          	sw	a4,0(a5)
    16f8:	fec42783          	lw	a5,-20(s0)
    16fc:	3d878793          	addi	a5,a5,984
    1700:	0002a737          	lui	a4,0x2a
    1704:	7b070713          	addi	a4,a4,1968 # 2a7b0 <__BSS_END__+0x232f8>
    1708:	00e7a023          	sw	a4,0(a5)
    170c:	fec42783          	lw	a5,-20(s0)
    1710:	3dc78793          	addi	a5,a5,988
    1714:	0002a737          	lui	a4,0x2a
    1718:	3c870713          	addi	a4,a4,968 # 2a3c8 <__BSS_END__+0x22f10>
    171c:	00e7a023          	sw	a4,0(a5)
    1720:	fec42783          	lw	a5,-20(s0)
    1724:	3e078793          	addi	a5,a5,992
    1728:	0002a737          	lui	a4,0x2a
    172c:	bf870713          	addi	a4,a4,-1032 # 29bf8 <__BSS_END__+0x22740>
    1730:	00e7a023          	sw	a4,0(a5)
    1734:	fec42783          	lw	a5,-20(s0)
    1738:	3e478793          	addi	a5,a5,996
    173c:	0002a737          	lui	a4,0x2a
    1740:	7b070713          	addi	a4,a4,1968 # 2a7b0 <__BSS_END__+0x232f8>
    1744:	00e7a023          	sw	a4,0(a5)
    1748:	fec42783          	lw	a5,-20(s0)
    174c:	3e878793          	addi	a5,a5,1000
    1750:	0002b737          	lui	a4,0x2b
    1754:	75070713          	addi	a4,a4,1872 # 2b750 <__BSS_END__+0x24298>
    1758:	00e7a023          	sw	a4,0(a5)
    175c:	fec42783          	lw	a5,-20(s0)
    1760:	3ec78793          	addi	a5,a5,1004
    1764:	0002c737          	lui	a4,0x2c
    1768:	30870713          	addi	a4,a4,776 # 2c308 <__BSS_END__+0x24e50>
    176c:	00e7a023          	sw	a4,0(a5)
    1770:	fec42783          	lw	a5,-20(s0)
    1774:	3f078793          	addi	a5,a5,1008
    1778:	0002d737          	lui	a4,0x2d
    177c:	ec070713          	addi	a4,a4,-320 # 2cec0 <__BSS_END__+0x25a08>
    1780:	00e7a023          	sw	a4,0(a5)
    1784:	fec42783          	lw	a5,-20(s0)
    1788:	3f478793          	addi	a5,a5,1012
    178c:	0002e737          	lui	a4,0x2e
    1790:	a7870713          	addi	a4,a4,-1416 # 2da78 <__BSS_END__+0x265c0>
    1794:	00e7a023          	sw	a4,0(a5)
    1798:	fec42783          	lw	a5,-20(s0)
    179c:	3f878793          	addi	a5,a5,1016
    17a0:	0002f737          	lui	a4,0x2f
    17a4:	e0070713          	addi	a4,a4,-512 # 2ee00 <__BSS_END__+0x27948>
    17a8:	00e7a023          	sw	a4,0(a5)
    17ac:	fec42783          	lw	a5,-20(s0)
    17b0:	3fc78793          	addi	a5,a5,1020
    17b4:	00030737          	lui	a4,0x30
    17b8:	18870713          	addi	a4,a4,392 # 30188 <__BSS_END__+0x28cd0>
    17bc:	00e7a023          	sw	a4,0(a5)
    17c0:	fec42783          	lw	a5,-20(s0)
    17c4:	40078793          	addi	a5,a5,1024
    17c8:	00031737          	lui	a4,0x31
    17cc:	12870713          	addi	a4,a4,296 # 31128 <__BSS_END__+0x29c70>
    17d0:	00e7a023          	sw	a4,0(a5)
    17d4:	fec42783          	lw	a5,-20(s0)
    17d8:	40478793          	addi	a5,a5,1028
    17dc:	00032737          	lui	a4,0x32
    17e0:	4b070713          	addi	a4,a4,1200 # 324b0 <__BSS_END__+0x2aff8>
    17e4:	00e7a023          	sw	a4,0(a5)
    17e8:	fec42783          	lw	a5,-20(s0)
    17ec:	40878793          	addi	a5,a5,1032
    17f0:	00034737          	lui	a4,0x34
    17f4:	83870713          	addi	a4,a4,-1992 # 33838 <__BSS_END__+0x2c380>
    17f8:	00e7a023          	sw	a4,0(a5)
    17fc:	fec42783          	lw	a5,-20(s0)
    1800:	40c78793          	addi	a5,a5,1036
    1804:	00032737          	lui	a4,0x32
    1808:	ce070713          	addi	a4,a4,-800 # 31ce0 <__BSS_END__+0x2a828>
    180c:	00e7a023          	sw	a4,0(a5)
    1810:	fec42783          	lw	a5,-20(s0)
    1814:	41078793          	addi	a5,a5,1040
    1818:	00030737          	lui	a4,0x30
    181c:	18870713          	addi	a4,a4,392 # 30188 <__BSS_END__+0x28cd0>
    1820:	00e7a023          	sw	a4,0(a5)
    1824:	fec42783          	lw	a5,-20(s0)
    1828:	41478793          	addi	a5,a5,1044
    182c:	0002e737          	lui	a4,0x2e
    1830:	63070713          	addi	a4,a4,1584 # 2e630 <__BSS_END__+0x27178>
    1834:	00e7a023          	sw	a4,0(a5)
    1838:	fec42783          	lw	a5,-20(s0)
    183c:	41878793          	addi	a5,a5,1048
    1840:	0002d737          	lui	a4,0x2d
    1844:	ad870713          	addi	a4,a4,-1320 # 2cad8 <__BSS_END__+0x25620>
    1848:	00e7a023          	sw	a4,0(a5)
    184c:	fec42783          	lw	a5,-20(s0)
    1850:	41c78793          	addi	a5,a5,1052
    1854:	0002b737          	lui	a4,0x2b
    1858:	f8070713          	addi	a4,a4,-128 # 2af80 <__BSS_END__+0x23ac8>
    185c:	00e7a023          	sw	a4,0(a5)
    1860:	fec42783          	lw	a5,-20(s0)
    1864:	42078793          	addi	a5,a5,1056
    1868:	0002b737          	lui	a4,0x2b
    186c:	f8070713          	addi	a4,a4,-128 # 2af80 <__BSS_END__+0x23ac8>
    1870:	00e7a023          	sw	a4,0(a5)
    1874:	fec42783          	lw	a5,-20(s0)
    1878:	42478793          	addi	a5,a5,1060
    187c:	0002b737          	lui	a4,0x2b
    1880:	f8070713          	addi	a4,a4,-128 # 2af80 <__BSS_END__+0x23ac8>
    1884:	00e7a023          	sw	a4,0(a5)
    1888:	fec42783          	lw	a5,-20(s0)
    188c:	42878793          	addi	a5,a5,1064
    1890:	0002b737          	lui	a4,0x2b
    1894:	36870713          	addi	a4,a4,872 # 2b368 <__BSS_END__+0x23eb0>
    1898:	00e7a023          	sw	a4,0(a5)
    189c:	fec42783          	lw	a5,-20(s0)
    18a0:	42c78793          	addi	a5,a5,1068
    18a4:	0002b737          	lui	a4,0x2b
    18a8:	36870713          	addi	a4,a4,872 # 2b368 <__BSS_END__+0x23eb0>
    18ac:	00e7a023          	sw	a4,0(a5)
    18b0:	fec42783          	lw	a5,-20(s0)
    18b4:	43078793          	addi	a5,a5,1072
    18b8:	0002b737          	lui	a4,0x2b
    18bc:	75070713          	addi	a4,a4,1872 # 2b750 <__BSS_END__+0x24298>
    18c0:	00e7a023          	sw	a4,0(a5)
    18c4:	fec42783          	lw	a5,-20(s0)
    18c8:	43478793          	addi	a5,a5,1076
    18cc:	0002d737          	lui	a4,0x2d
    18d0:	ad870713          	addi	a4,a4,-1320 # 2cad8 <__BSS_END__+0x25620>
    18d4:	00e7a023          	sw	a4,0(a5)
    18d8:	fec42783          	lw	a5,-20(s0)
    18dc:	43878793          	addi	a5,a5,1080
    18e0:	0002e737          	lui	a4,0x2e
    18e4:	24870713          	addi	a4,a4,584 # 2e248 <__BSS_END__+0x26d90>
    18e8:	00e7a023          	sw	a4,0(a5)
    18ec:	fec42783          	lw	a5,-20(s0)
    18f0:	43c78793          	addi	a5,a5,1084
    18f4:	00030737          	lui	a4,0x30
    18f8:	9b870713          	addi	a4,a4,-1608 # 2f9b8 <__BSS_END__+0x28500>
    18fc:	00e7a023          	sw	a4,0(a5)
    1900:	fec42783          	lw	a5,-20(s0)
    1904:	44078793          	addi	a5,a5,1088
    1908:	00031737          	lui	a4,0x31
    190c:	d4070713          	addi	a4,a4,-704 # 30d40 <__BSS_END__+0x29888>
    1910:	00e7a023          	sw	a4,0(a5)
    1914:	fec42783          	lw	a5,-20(s0)
    1918:	44478793          	addi	a5,a5,1092
    191c:	00032737          	lui	a4,0x32
    1920:	4b070713          	addi	a4,a4,1200 # 324b0 <__BSS_END__+0x2aff8>
    1924:	00e7a023          	sw	a4,0(a5)
    1928:	fec42783          	lw	a5,-20(s0)
    192c:	44878793          	addi	a5,a5,1096
    1930:	00032737          	lui	a4,0x32
    1934:	ce070713          	addi	a4,a4,-800 # 31ce0 <__BSS_END__+0x2a828>
    1938:	00e7a023          	sw	a4,0(a5)
    193c:	fec42783          	lw	a5,-20(s0)
    1940:	44c78793          	addi	a5,a5,1100
    1944:	00031737          	lui	a4,0x31
    1948:	12870713          	addi	a4,a4,296 # 31128 <__BSS_END__+0x29c70>
    194c:	00e7a023          	sw	a4,0(a5)
    1950:	fec42783          	lw	a5,-20(s0)
    1954:	45078793          	addi	a5,a5,1104
    1958:	00031737          	lui	a4,0x31
    195c:	95870713          	addi	a4,a4,-1704 # 30958 <__BSS_END__+0x294a0>
    1960:	00e7a023          	sw	a4,0(a5)
    1964:	fec42783          	lw	a5,-20(s0)
    1968:	45478793          	addi	a5,a5,1108
    196c:	00030737          	lui	a4,0x30
    1970:	da070713          	addi	a4,a4,-608 # 2fda0 <__BSS_END__+0x288e8>
    1974:	00e7a023          	sw	a4,0(a5)
    1978:	fec42783          	lw	a5,-20(s0)
    197c:	45878793          	addi	a5,a5,1112
    1980:	0002f737          	lui	a4,0x2f
    1984:	5d070713          	addi	a4,a4,1488 # 2f5d0 <__BSS_END__+0x28118>
    1988:	00e7a023          	sw	a4,0(a5)
    198c:	fec42783          	lw	a5,-20(s0)
    1990:	45c78793          	addi	a5,a5,1116
    1994:	00031737          	lui	a4,0x31
    1998:	95870713          	addi	a4,a4,-1704 # 30958 <__BSS_END__+0x294a0>
    199c:	00e7a023          	sw	a4,0(a5)
    19a0:	fec42783          	lw	a5,-20(s0)
    19a4:	46078793          	addi	a5,a5,1120
    19a8:	00032737          	lui	a4,0x32
    19ac:	ce070713          	addi	a4,a4,-800 # 31ce0 <__BSS_END__+0x2a828>
    19b0:	00e7a023          	sw	a4,0(a5)
    19b4:	fec42783          	lw	a5,-20(s0)
    19b8:	46478793          	addi	a5,a5,1124
    19bc:	00033737          	lui	a4,0x33
    19c0:	06870713          	addi	a4,a4,104 # 33068 <__BSS_END__+0x2bbb0>
    19c4:	00e7a023          	sw	a4,0(a5)
    19c8:	fec42783          	lw	a5,-20(s0)
    19cc:	46878793          	addi	a5,a5,1128
    19d0:	00034737          	lui	a4,0x34
    19d4:	3f070713          	addi	a4,a4,1008 # 343f0 <__BSS_END__+0x2cf38>
    19d8:	00e7a023          	sw	a4,0(a5)
    19dc:	fec42783          	lw	a5,-20(s0)
    19e0:	46c78793          	addi	a5,a5,1132
    19e4:	00035737          	lui	a4,0x35
    19e8:	39070713          	addi	a4,a4,912 # 35390 <__BSS_END__+0x2ded8>
    19ec:	00e7a023          	sw	a4,0(a5)
    19f0:	fec42783          	lw	a5,-20(s0)
    19f4:	47078793          	addi	a5,a5,1136
    19f8:	00037737          	lui	a4,0x37
    19fc:	b0070713          	addi	a4,a4,-1280 # 36b00 <__BSS_END__+0x2f648>
    1a00:	00e7a023          	sw	a4,0(a5)
    1a04:	fec42783          	lw	a5,-20(s0)
    1a08:	47478793          	addi	a5,a5,1140
    1a0c:	00038737          	lui	a4,0x38
    1a10:	e8870713          	addi	a4,a4,-376 # 37e88 <__BSS_END__+0x309d0>
    1a14:	00e7a023          	sw	a4,0(a5)
    1a18:	fec42783          	lw	a5,-20(s0)
    1a1c:	47878793          	addi	a5,a5,1144
    1a20:	00039737          	lui	a4,0x39
    1a24:	21070713          	addi	a4,a4,528 # 39210 <__BSS_END__+0x31d58>
    1a28:	00e7a023          	sw	a4,0(a5)
    1a2c:	fec42783          	lw	a5,-20(s0)
    1a30:	47c78793          	addi	a5,a5,1148
    1a34:	0003a737          	lui	a4,0x3a
    1a38:	59870713          	addi	a4,a4,1432 # 3a598 <__BSS_END__+0x330e0>
    1a3c:	00e7a023          	sw	a4,0(a5)
    1a40:	fec42783          	lw	a5,-20(s0)
    1a44:	48078793          	addi	a5,a5,1152
    1a48:	0003c737          	lui	a4,0x3c
    1a4c:	92070713          	addi	a4,a4,-1760 # 3b920 <__BSS_END__+0x34468>
    1a50:	00e7a023          	sw	a4,0(a5)
    1a54:	fec42783          	lw	a5,-20(s0)
    1a58:	48478793          	addi	a5,a5,1156
    1a5c:	0003b737          	lui	a4,0x3b
    1a60:	98070713          	addi	a4,a4,-1664 # 3a980 <__BSS_END__+0x334c8>
    1a64:	00e7a023          	sw	a4,0(a5)
    1a68:	fec42783          	lw	a5,-20(s0)
    1a6c:	48878793          	addi	a5,a5,1160
    1a70:	00039737          	lui	a4,0x39
    1a74:	5f870713          	addi	a4,a4,1528 # 395f8 <__BSS_END__+0x32140>
    1a78:	00e7a023          	sw	a4,0(a5)
    1a7c:	fec42783          	lw	a5,-20(s0)
    1a80:	48c78793          	addi	a5,a5,1164
    1a84:	00038737          	lui	a4,0x38
    1a88:	27070713          	addi	a4,a4,624 # 38270 <__BSS_END__+0x30db8>
    1a8c:	00e7a023          	sw	a4,0(a5)
    1a90:	fec42783          	lw	a5,-20(s0)
    1a94:	49078793          	addi	a5,a5,1168
    1a98:	00037737          	lui	a4,0x37
    1a9c:	ee870713          	addi	a4,a4,-280 # 36ee8 <__BSS_END__+0x2fa30>
    1aa0:	00e7a023          	sw	a4,0(a5)
    1aa4:	fec42783          	lw	a5,-20(s0)
    1aa8:	49478793          	addi	a5,a5,1172
    1aac:	00036737          	lui	a4,0x36
    1ab0:	f4870713          	addi	a4,a4,-184 # 35f48 <__BSS_END__+0x2ea90>
    1ab4:	00e7a023          	sw	a4,0(a5)
    1ab8:	fec42783          	lw	a5,-20(s0)
    1abc:	49878793          	addi	a5,a5,1176
    1ac0:	00035737          	lui	a4,0x35
    1ac4:	77870713          	addi	a4,a4,1912 # 35778 <__BSS_END__+0x2e2c0>
    1ac8:	00e7a023          	sw	a4,0(a5)
    1acc:	fec42783          	lw	a5,-20(s0)
    1ad0:	49c78793          	addi	a5,a5,1180
    1ad4:	00035737          	lui	a4,0x35
    1ad8:	fa870713          	addi	a4,a4,-88 # 34fa8 <__BSS_END__+0x2daf0>
    1adc:	00e7a023          	sw	a4,0(a5)
    1ae0:	fec42783          	lw	a5,-20(s0)
    1ae4:	4a078793          	addi	a5,a5,1184
    1ae8:	00035737          	lui	a4,0x35
    1aec:	bc070713          	addi	a4,a4,-1088 # 34bc0 <__BSS_END__+0x2d708>
    1af0:	00e7a023          	sw	a4,0(a5)
    1af4:	fec42783          	lw	a5,-20(s0)
    1af8:	4a478793          	addi	a5,a5,1188
    1afc:	00034737          	lui	a4,0x34
    1b00:	3f070713          	addi	a4,a4,1008 # 343f0 <__BSS_END__+0x2cf38>
    1b04:	00e7a023          	sw	a4,0(a5)
    1b08:	fec42783          	lw	a5,-20(s0)
    1b0c:	4a878793          	addi	a5,a5,1192
    1b10:	00034737          	lui	a4,0x34
    1b14:	c2070713          	addi	a4,a4,-992 # 33c20 <__BSS_END__+0x2c768>
    1b18:	00e7a023          	sw	a4,0(a5)
    1b1c:	fec42783          	lw	a5,-20(s0)
    1b20:	4ac78793          	addi	a5,a5,1196
    1b24:	00032737          	lui	a4,0x32
    1b28:	8f870713          	addi	a4,a4,-1800 # 318f8 <__BSS_END__+0x2a440>
    1b2c:	00e7a023          	sw	a4,0(a5)
    1b30:	fec42783          	lw	a5,-20(s0)
    1b34:	4b078793          	addi	a5,a5,1200
    1b38:	0002f737          	lui	a4,0x2f
    1b3c:	5d070713          	addi	a4,a4,1488 # 2f5d0 <__BSS_END__+0x28118>
    1b40:	00e7a023          	sw	a4,0(a5)
    1b44:	fec42783          	lw	a5,-20(s0)
    1b48:	4b478793          	addi	a5,a5,1204
    1b4c:	0002d737          	lui	a4,0x2d
    1b50:	2a870713          	addi	a4,a4,680 # 2d2a8 <__BSS_END__+0x25df0>
    1b54:	00e7a023          	sw	a4,0(a5)
    1b58:	fec42783          	lw	a5,-20(s0)
    1b5c:	4b878793          	addi	a5,a5,1208
    1b60:	0002b737          	lui	a4,0x2b
    1b64:	b9870713          	addi	a4,a4,-1128 # 2ab98 <__BSS_END__+0x236e0>
    1b68:	00e7a023          	sw	a4,0(a5)
    1b6c:	fec42783          	lw	a5,-20(s0)
    1b70:	4bc78793          	addi	a5,a5,1212
    1b74:	00029737          	lui	a4,0x29
    1b78:	87070713          	addi	a4,a4,-1936 # 28870 <__BSS_END__+0x213b8>
    1b7c:	00e7a023          	sw	a4,0(a5)
    1b80:	fec42783          	lw	a5,-20(s0)
    1b84:	4c078793          	addi	a5,a5,1216
    1b88:	0002b737          	lui	a4,0x2b
    1b8c:	f8070713          	addi	a4,a4,-128 # 2af80 <__BSS_END__+0x23ac8>
    1b90:	00e7a023          	sw	a4,0(a5)
    1b94:	fec42783          	lw	a5,-20(s0)
    1b98:	4c478793          	addi	a5,a5,1220
    1b9c:	0002d737          	lui	a4,0x2d
    1ba0:	69070713          	addi	a4,a4,1680 # 2d690 <__BSS_END__+0x261d8>
    1ba4:	00e7a023          	sw	a4,0(a5)
    1ba8:	fec42783          	lw	a5,-20(s0)
    1bac:	4c878793          	addi	a5,a5,1224
    1bb0:	00030737          	lui	a4,0x30
    1bb4:	18870713          	addi	a4,a4,392 # 30188 <__BSS_END__+0x28cd0>
    1bb8:	00e7a023          	sw	a4,0(a5)
    1bbc:	fec42783          	lw	a5,-20(s0)
    1bc0:	4cc78793          	addi	a5,a5,1228
    1bc4:	00033737          	lui	a4,0x33
    1bc8:	89870713          	addi	a4,a4,-1896 # 32898 <__BSS_END__+0x2b3e0>
    1bcc:	00e7a023          	sw	a4,0(a5)
    1bd0:	fec42783          	lw	a5,-20(s0)
    1bd4:	4d078793          	addi	a5,a5,1232
    1bd8:	00035737          	lui	a4,0x35
    1bdc:	fa870713          	addi	a4,a4,-88 # 34fa8 <__BSS_END__+0x2daf0>
    1be0:	00e7a023          	sw	a4,0(a5)
    1be4:	fec42783          	lw	a5,-20(s0)
    1be8:	4d478793          	addi	a5,a5,1236
    1bec:	00034737          	lui	a4,0x34
    1bf0:	7d870713          	addi	a4,a4,2008 # 347d8 <__BSS_END__+0x2d320>
    1bf4:	00e7a023          	sw	a4,0(a5)
    1bf8:	fec42783          	lw	a5,-20(s0)
    1bfc:	4d878793          	addi	a5,a5,1240
    1c00:	00034737          	lui	a4,0x34
    1c04:	3f070713          	addi	a4,a4,1008 # 343f0 <__BSS_END__+0x2cf38>
    1c08:	00e7a023          	sw	a4,0(a5)
    1c0c:	fec42783          	lw	a5,-20(s0)
    1c10:	4dc78793          	addi	a5,a5,1244
    1c14:	00034737          	lui	a4,0x34
    1c18:	c2070713          	addi	a4,a4,-992 # 33c20 <__BSS_END__+0x2c768>
    1c1c:	00e7a023          	sw	a4,0(a5)
    1c20:	fec42783          	lw	a5,-20(s0)
    1c24:	4e078793          	addi	a5,a5,1248
    1c28:	00033737          	lui	a4,0x33
    1c2c:	45070713          	addi	a4,a4,1104 # 33450 <__BSS_END__+0x2bf98>
    1c30:	00e7a023          	sw	a4,0(a5)
    1c34:	fec42783          	lw	a5,-20(s0)
    1c38:	4e478793          	addi	a5,a5,1252
    1c3c:	00033737          	lui	a4,0x33
    1c40:	06870713          	addi	a4,a4,104 # 33068 <__BSS_END__+0x2bbb0>
    1c44:	00e7a023          	sw	a4,0(a5)
    1c48:	fec42783          	lw	a5,-20(s0)
    1c4c:	4e878793          	addi	a5,a5,1256
    1c50:	00034737          	lui	a4,0x34
    1c54:	83870713          	addi	a4,a4,-1992 # 33838 <__BSS_END__+0x2c380>
    1c58:	00e7a023          	sw	a4,0(a5)
    1c5c:	fec42783          	lw	a5,-20(s0)
    1c60:	4ec78793          	addi	a5,a5,1260
    1c64:	00034737          	lui	a4,0x34
    1c68:	00870713          	addi	a4,a4,8 # 34008 <__BSS_END__+0x2cb50>
    1c6c:	00e7a023          	sw	a4,0(a5)
    1c70:	fec42783          	lw	a5,-20(s0)
    1c74:	4f078793          	addi	a5,a5,1264
    1c78:	00034737          	lui	a4,0x34
    1c7c:	3f070713          	addi	a4,a4,1008 # 343f0 <__BSS_END__+0x2cf38>
    1c80:	00e7a023          	sw	a4,0(a5)
    1c84:	fec42783          	lw	a5,-20(s0)
    1c88:	4f478793          	addi	a5,a5,1268
    1c8c:	00035737          	lui	a4,0x35
    1c90:	bc070713          	addi	a4,a4,-1088 # 34bc0 <__BSS_END__+0x2d708>
    1c94:	00e7a023          	sw	a4,0(a5)
    1c98:	fec42783          	lw	a5,-20(s0)
    1c9c:	4f878793          	addi	a5,a5,1272
    1ca0:	00035737          	lui	a4,0x35
    1ca4:	39070713          	addi	a4,a4,912 # 35390 <__BSS_END__+0x2ded8>
    1ca8:	00e7a023          	sw	a4,0(a5)
    1cac:	fec42783          	lw	a5,-20(s0)
    1cb0:	4fc78793          	addi	a5,a5,1276
    1cb4:	00036737          	lui	a4,0x36
    1cb8:	71870713          	addi	a4,a4,1816 # 36718 <__BSS_END__+0x2f260>
    1cbc:	00e7a023          	sw	a4,0(a5)
    1cc0:	fec42783          	lw	a5,-20(s0)
    1cc4:	50078793          	addi	a5,a5,1280
    1cc8:	00038737          	lui	a4,0x38
    1ccc:	aa070713          	addi	a4,a4,-1376 # 37aa0 <__BSS_END__+0x305e8>
    1cd0:	00e7a023          	sw	a4,0(a5)
    1cd4:	fec42783          	lw	a5,-20(s0)
    1cd8:	50478793          	addi	a5,a5,1284
    1cdc:	00039737          	lui	a4,0x39
    1ce0:	a4070713          	addi	a4,a4,-1472 # 38a40 <__BSS_END__+0x31588>
    1ce4:	00e7a023          	sw	a4,0(a5)
    1ce8:	fec42783          	lw	a5,-20(s0)
    1cec:	50878793          	addi	a5,a5,1288
    1cf0:	0003a737          	lui	a4,0x3a
    1cf4:	dc870713          	addi	a4,a4,-568 # 39dc8 <__BSS_END__+0x32910>
    1cf8:	00e7a023          	sw	a4,0(a5)
    1cfc:	fec42783          	lw	a5,-20(s0)
    1d00:	50c78793          	addi	a5,a5,1292
    1d04:	0003b737          	lui	a4,0x3b
    1d08:	d6870713          	addi	a4,a4,-664 # 3ad68 <__BSS_END__+0x338b0>
    1d0c:	00e7a023          	sw	a4,0(a5)
    1d10:	fec42783          	lw	a5,-20(s0)
    1d14:	51078793          	addi	a5,a5,1296
    1d18:	0003b737          	lui	a4,0x3b
    1d1c:	d6870713          	addi	a4,a4,-664 # 3ad68 <__BSS_END__+0x338b0>
    1d20:	00e7a023          	sw	a4,0(a5)
    1d24:	fec42783          	lw	a5,-20(s0)
    1d28:	51478793          	addi	a5,a5,1300
    1d2c:	0003b737          	lui	a4,0x3b
    1d30:	98070713          	addi	a4,a4,-1664 # 3a980 <__BSS_END__+0x334c8>
    1d34:	00e7a023          	sw	a4,0(a5)
    1d38:	fec42783          	lw	a5,-20(s0)
    1d3c:	51878793          	addi	a5,a5,1304
    1d40:	0003b737          	lui	a4,0x3b
    1d44:	98070713          	addi	a4,a4,-1664 # 3a980 <__BSS_END__+0x334c8>
    1d48:	00e7a023          	sw	a4,0(a5)
    1d4c:	fec42783          	lw	a5,-20(s0)
    1d50:	51c78793          	addi	a5,a5,1308
    1d54:	0003a737          	lui	a4,0x3a
    1d58:	59870713          	addi	a4,a4,1432 # 3a598 <__BSS_END__+0x330e0>
    1d5c:	00e7a023          	sw	a4,0(a5)
    1d60:	fec42783          	lw	a5,-20(s0)
    1d64:	52078793          	addi	a5,a5,1312
    1d68:	0003a737          	lui	a4,0x3a
    1d6c:	59870713          	addi	a4,a4,1432 # 3a598 <__BSS_END__+0x330e0>
    1d70:	00e7a023          	sw	a4,0(a5)
    1d74:	fec42783          	lw	a5,-20(s0)
    1d78:	52478793          	addi	a5,a5,1316
    1d7c:	00036737          	lui	a4,0x36
    1d80:	33070713          	addi	a4,a4,816 # 36330 <__BSS_END__+0x2ee78>
    1d84:	00e7a023          	sw	a4,0(a5)
    1d88:	fec42783          	lw	a5,-20(s0)
    1d8c:	52878793          	addi	a5,a5,1320
    1d90:	00032737          	lui	a4,0x32
    1d94:	4b070713          	addi	a4,a4,1200 # 324b0 <__BSS_END__+0x2aff8>
    1d98:	00e7a023          	sw	a4,0(a5)
    1d9c:	fec42783          	lw	a5,-20(s0)
    1da0:	52c78793          	addi	a5,a5,1324
    1da4:	0002e737          	lui	a4,0x2e
    1da8:	24870713          	addi	a4,a4,584 # 2e248 <__BSS_END__+0x26d90>
    1dac:	00e7a023          	sw	a4,0(a5)
    1db0:	fec42783          	lw	a5,-20(s0)
    1db4:	53078793          	addi	a5,a5,1328
    1db8:	0002a737          	lui	a4,0x2a
    1dbc:	3c870713          	addi	a4,a4,968 # 2a3c8 <__BSS_END__+0x22f10>
    1dc0:	00e7a023          	sw	a4,0(a5)
    1dc4:	fec42783          	lw	a5,-20(s0)
    1dc8:	53478793          	addi	a5,a5,1332
    1dcc:	00026737          	lui	a4,0x26
    1dd0:	16070713          	addi	a4,a4,352 # 26160 <__BSS_END__+0x1eca8>
    1dd4:	00e7a023          	sw	a4,0(a5)
    1dd8:	fec42783          	lw	a5,-20(s0)
    1ddc:	53878793          	addi	a5,a5,1336
    1de0:	00024737          	lui	a4,0x24
    1de4:	60870713          	addi	a4,a4,1544 # 24608 <__BSS_END__+0x1d150>
    1de8:	00e7a023          	sw	a4,0(a5)
    1dec:	fec42783          	lw	a5,-20(s0)
    1df0:	53c78793          	addi	a5,a5,1340
    1df4:	00023737          	lui	a4,0x23
    1df8:	e9870713          	addi	a4,a4,-360 # 22e98 <__BSS_END__+0x1b9e0>
    1dfc:	00e7a023          	sw	a4,0(a5)
    1e00:	fec42783          	lw	a5,-20(s0)
    1e04:	54078793          	addi	a5,a5,1344
    1e08:	00021737          	lui	a4,0x21
    1e0c:	34070713          	addi	a4,a4,832 # 21340 <__BSS_END__+0x19e88>
    1e10:	00e7a023          	sw	a4,0(a5)
    1e14:	fec42783          	lw	a5,-20(s0)
    1e18:	54478793          	addi	a5,a5,1348
    1e1c:	0001f737          	lui	a4,0x1f
    1e20:	7e870713          	addi	a4,a4,2024 # 1f7e8 <__BSS_END__+0x18330>
    1e24:	00e7a023          	sw	a4,0(a5)
    1e28:	fec42783          	lw	a5,-20(s0)
    1e2c:	54878793          	addi	a5,a5,1352
    1e30:	0001e737          	lui	a4,0x1e
    1e34:	c9070713          	addi	a4,a4,-880 # 1dc90 <__BSS_END__+0x167d8>
    1e38:	00e7a023          	sw	a4,0(a5)
    1e3c:	fec42783          	lw	a5,-20(s0)
    1e40:	54c78793          	addi	a5,a5,1356
    1e44:	00020737          	lui	a4,0x20
    1e48:	78870713          	addi	a4,a4,1928 # 20788 <__BSS_END__+0x192d0>
    1e4c:	00e7a023          	sw	a4,0(a5)
    1e50:	fec42783          	lw	a5,-20(s0)
    1e54:	55078793          	addi	a5,a5,1360
    1e58:	00023737          	lui	a4,0x23
    1e5c:	e9870713          	addi	a4,a4,-360 # 22e98 <__BSS_END__+0x1b9e0>
    1e60:	00e7a023          	sw	a4,0(a5)
    1e64:	fec42783          	lw	a5,-20(s0)
    1e68:	55478793          	addi	a5,a5,1364
    1e6c:	00026737          	lui	a4,0x26
    1e70:	99070713          	addi	a4,a4,-1648 # 25990 <__BSS_END__+0x1e4d8>
    1e74:	00e7a023          	sw	a4,0(a5)
    1e78:	fec42783          	lw	a5,-20(s0)
    1e7c:	55878793          	addi	a5,a5,1368
    1e80:	00028737          	lui	a4,0x28
    1e84:	0a070713          	addi	a4,a4,160 # 280a0 <__BSS_END__+0x20be8>
    1e88:	00e7a023          	sw	a4,0(a5)
    1e8c:	fec42783          	lw	a5,-20(s0)
    1e90:	55c78793          	addi	a5,a5,1372
    1e94:	0002a737          	lui	a4,0x2a
    1e98:	7b070713          	addi	a4,a4,1968 # 2a7b0 <__BSS_END__+0x232f8>
    1e9c:	00e7a023          	sw	a4,0(a5)
    1ea0:	fec42783          	lw	a5,-20(s0)
    1ea4:	56078793          	addi	a5,a5,1376
    1ea8:	0002e737          	lui	a4,0x2e
    1eac:	24870713          	addi	a4,a4,584 # 2e248 <__BSS_END__+0x26d90>
    1eb0:	00e7a023          	sw	a4,0(a5)
    1eb4:	fec42783          	lw	a5,-20(s0)
    1eb8:	56478793          	addi	a5,a5,1380
    1ebc:	00032737          	lui	a4,0x32
    1ec0:	0c870713          	addi	a4,a4,200 # 320c8 <__BSS_END__+0x2ac10>
    1ec4:	00e7a023          	sw	a4,0(a5)
    1ec8:	fec42783          	lw	a5,-20(s0)
    1ecc:	56878793          	addi	a5,a5,1384
    1ed0:	00036737          	lui	a4,0x36
    1ed4:	b6070713          	addi	a4,a4,-1184 # 35b60 <__BSS_END__+0x2e6a8>
    1ed8:	00e7a023          	sw	a4,0(a5)
    1edc:	fec42783          	lw	a5,-20(s0)
    1ee0:	56c78793          	addi	a5,a5,1388
    1ee4:	00039737          	lui	a4,0x39
    1ee8:	5f870713          	addi	a4,a4,1528 # 395f8 <__BSS_END__+0x32140>
    1eec:	00e7a023          	sw	a4,0(a5)
    1ef0:	fec42783          	lw	a5,-20(s0)
    1ef4:	57078793          	addi	a5,a5,1392
    1ef8:	0003d737          	lui	a4,0x3d
    1efc:	09070713          	addi	a4,a4,144 # 3d090 <__BSS_END__+0x35bd8>
    1f00:	00e7a023          	sw	a4,0(a5)
    1f04:	fec42783          	lw	a5,-20(s0)
    1f08:	57478793          	addi	a5,a5,1396
    1f0c:	0003c737          	lui	a4,0x3c
    1f10:	0f070713          	addi	a4,a4,240 # 3c0f0 <__BSS_END__+0x34c38>
    1f14:	00e7a023          	sw	a4,0(a5)
    1f18:	fec42783          	lw	a5,-20(s0)
    1f1c:	57878793          	addi	a5,a5,1400
    1f20:	0003b737          	lui	a4,0x3b
    1f24:	15070713          	addi	a4,a4,336 # 3b150 <__BSS_END__+0x33c98>
    1f28:	00e7a023          	sw	a4,0(a5)
    1f2c:	fec42783          	lw	a5,-20(s0)
    1f30:	57c78793          	addi	a5,a5,1404
    1f34:	0003a737          	lui	a4,0x3a
    1f38:	1b070713          	addi	a4,a4,432 # 3a1b0 <__BSS_END__+0x32cf8>
    1f3c:	00e7a023          	sw	a4,0(a5)
    1f40:	fec42783          	lw	a5,-20(s0)
    1f44:	58078793          	addi	a5,a5,1408
    1f48:	00039737          	lui	a4,0x39
    1f4c:	21070713          	addi	a4,a4,528 # 39210 <__BSS_END__+0x31d58>
    1f50:	00e7a023          	sw	a4,0(a5)
    1f54:	fec42783          	lw	a5,-20(s0)
    1f58:	58478793          	addi	a5,a5,1412
    1f5c:	00038737          	lui	a4,0x38
    1f60:	65870713          	addi	a4,a4,1624 # 38658 <__BSS_END__+0x311a0>
    1f64:	00e7a023          	sw	a4,0(a5)
    1f68:	fec42783          	lw	a5,-20(s0)
    1f6c:	58878793          	addi	a5,a5,1416
    1f70:	00035737          	lui	a4,0x35
    1f74:	bc070713          	addi	a4,a4,-1088 # 34bc0 <__BSS_END__+0x2d708>
    1f78:	00e7a023          	sw	a4,0(a5)
    1f7c:	fec42783          	lw	a5,-20(s0)
    1f80:	58c78793          	addi	a5,a5,1420
    1f84:	00031737          	lui	a4,0x31
    1f88:	12870713          	addi	a4,a4,296 # 31128 <__BSS_END__+0x29c70>
    1f8c:	00e7a023          	sw	a4,0(a5)
    1f90:	fec42783          	lw	a5,-20(s0)
    1f94:	59078793          	addi	a5,a5,1424
    1f98:	0002d737          	lui	a4,0x2d
    1f9c:	69070713          	addi	a4,a4,1680 # 2d690 <__BSS_END__+0x261d8>
    1fa0:	00e7a023          	sw	a4,0(a5)
    1fa4:	fec42783          	lw	a5,-20(s0)
    1fa8:	59478793          	addi	a5,a5,1428
    1fac:	0002a737          	lui	a4,0x2a
    1fb0:	bf870713          	addi	a4,a4,-1032 # 29bf8 <__BSS_END__+0x22740>
    1fb4:	00e7a023          	sw	a4,0(a5)
    1fb8:	fec42783          	lw	a5,-20(s0)
    1fbc:	59878793          	addi	a5,a5,1432
    1fc0:	00026737          	lui	a4,0x26
    1fc4:	16070713          	addi	a4,a4,352 # 26160 <__BSS_END__+0x1eca8>
    1fc8:	00e7a023          	sw	a4,0(a5)
    1fcc:	fec42783          	lw	a5,-20(s0)
    1fd0:	59c78793          	addi	a5,a5,1436
    1fd4:	00023737          	lui	a4,0x23
    1fd8:	28070713          	addi	a4,a4,640 # 23280 <__BSS_END__+0x1bdc8>
    1fdc:	00e7a023          	sw	a4,0(a5)
    1fe0:	fec42783          	lw	a5,-20(s0)
    1fe4:	5a078793          	addi	a5,a5,1440
    1fe8:	00020737          	lui	a4,0x20
    1fec:	78870713          	addi	a4,a4,1928 # 20788 <__BSS_END__+0x192d0>
    1ff0:	00e7a023          	sw	a4,0(a5)
    1ff4:	fec42783          	lw	a5,-20(s0)
    1ff8:	5a478793          	addi	a5,a5,1444
    1ffc:	0001e737          	lui	a4,0x1e
    2000:	8a870713          	addi	a4,a4,-1880 # 1d8a8 <__BSS_END__+0x163f0>
    2004:	00e7a023          	sw	a4,0(a5)
    2008:	fec42783          	lw	a5,-20(s0)
    200c:	5a878793          	addi	a5,a5,1448
    2010:	0001b737          	lui	a4,0x1b
    2014:	9c870713          	addi	a4,a4,-1592 # 1a9c8 <__BSS_END__+0x13510>
    2018:	00e7a023          	sw	a4,0(a5)
    201c:	fec42783          	lw	a5,-20(s0)
    2020:	5ac78793          	addi	a5,a5,1452
    2024:	00018737          	lui	a4,0x18
    2028:	ae870713          	addi	a4,a4,-1304 # 17ae8 <__BSS_END__+0x10630>
    202c:	00e7a023          	sw	a4,0(a5)
    2030:	fec42783          	lw	a5,-20(s0)
    2034:	5b078793          	addi	a5,a5,1456
    2038:	00017737          	lui	a4,0x17
    203c:	70070713          	addi	a4,a4,1792 # 17700 <__BSS_END__+0x10248>
    2040:	00e7a023          	sw	a4,0(a5)
    2044:	fec42783          	lw	a5,-20(s0)
    2048:	5b478793          	addi	a5,a5,1460
    204c:	00017737          	lui	a4,0x17
    2050:	70070713          	addi	a4,a4,1792 # 17700 <__BSS_END__+0x10248>
    2054:	00e7a023          	sw	a4,0(a5)
    2058:	fec42783          	lw	a5,-20(s0)
    205c:	5b878793          	addi	a5,a5,1464
    2060:	00017737          	lui	a4,0x17
    2064:	70070713          	addi	a4,a4,1792 # 17700 <__BSS_END__+0x10248>
    2068:	00e7a023          	sw	a4,0(a5)
    206c:	fec42783          	lw	a5,-20(s0)
    2070:	5bc78793          	addi	a5,a5,1468
    2074:	00017737          	lui	a4,0x17
    2078:	31870713          	addi	a4,a4,792 # 17318 <__BSS_END__+0xfe60>
    207c:	00e7a023          	sw	a4,0(a5)
    2080:	fec42783          	lw	a5,-20(s0)
    2084:	5c078793          	addi	a5,a5,1472
    2088:	00017737          	lui	a4,0x17
    208c:	31870713          	addi	a4,a4,792 # 17318 <__BSS_END__+0xfe60>
    2090:	00e7a023          	sw	a4,0(a5)
    2094:	fec42783          	lw	a5,-20(s0)
    2098:	5c478793          	addi	a5,a5,1476
    209c:	00017737          	lui	a4,0x17
    20a0:	f3070713          	addi	a4,a4,-208 # 16f30 <__BSS_END__+0xfa78>
    20a4:	00e7a023          	sw	a4,0(a5)
    20a8:	fec42783          	lw	a5,-20(s0)
    20ac:	5c878793          	addi	a5,a5,1480
    20b0:	00017737          	lui	a4,0x17
    20b4:	b4870713          	addi	a4,a4,-1208 # 16b48 <__BSS_END__+0xf690>
    20b8:	00e7a023          	sw	a4,0(a5)
    20bc:	fec42783          	lw	a5,-20(s0)
    20c0:	5cc78793          	addi	a5,a5,1484
    20c4:	00016737          	lui	a4,0x16
    20c8:	76070713          	addi	a4,a4,1888 # 16760 <__BSS_END__+0xf2a8>
    20cc:	00e7a023          	sw	a4,0(a5)
    20d0:	fec42783          	lw	a5,-20(s0)
    20d4:	5d078793          	addi	a5,a5,1488
    20d8:	00016737          	lui	a4,0x16
    20dc:	76070713          	addi	a4,a4,1888 # 16760 <__BSS_END__+0xf2a8>
    20e0:	00e7a023          	sw	a4,0(a5)
    20e4:	fec42783          	lw	a5,-20(s0)
    20e8:	5d478793          	addi	a5,a5,1492
    20ec:	00016737          	lui	a4,0x16
    20f0:	37870713          	addi	a4,a4,888 # 16378 <__BSS_END__+0xeec0>
    20f4:	00e7a023          	sw	a4,0(a5)
    20f8:	fec42783          	lw	a5,-20(s0)
    20fc:	5d878793          	addi	a5,a5,1496
    2100:	00016737          	lui	a4,0x16
    2104:	ba870713          	addi	a4,a4,-1112 # 15ba8 <__BSS_END__+0xe6f0>
    2108:	00e7a023          	sw	a4,0(a5)
    210c:	fec42783          	lw	a5,-20(s0)
    2110:	5dc78793          	addi	a5,a5,1500
    2114:	00015737          	lui	a4,0x15
    2118:	ff070713          	addi	a4,a4,-16 # 14ff0 <__BSS_END__+0xdb38>
    211c:	00e7a023          	sw	a4,0(a5)
    2120:	fec42783          	lw	a5,-20(s0)
    2124:	5e078793          	addi	a5,a5,1504
    2128:	00015737          	lui	a4,0x15
    212c:	82070713          	addi	a4,a4,-2016 # 14820 <__BSS_END__+0xd368>
    2130:	00e7a023          	sw	a4,0(a5)
    2134:	fec42783          	lw	a5,-20(s0)
    2138:	5e478793          	addi	a5,a5,1508
    213c:	00014737          	lui	a4,0x14
    2140:	05070713          	addi	a4,a4,80 # 14050 <__BSS_END__+0xcb98>
    2144:	00e7a023          	sw	a4,0(a5)
    2148:	fec42783          	lw	a5,-20(s0)
    214c:	5e878793          	addi	a5,a5,1512
    2150:	00013737          	lui	a4,0x13
    2154:	49870713          	addi	a4,a4,1176 # 13498 <__BSS_END__+0xbfe0>
    2158:	00e7a023          	sw	a4,0(a5)
    215c:	fec42783          	lw	a5,-20(s0)
    2160:	5ec78793          	addi	a5,a5,1516
    2164:	00013737          	lui	a4,0x13
    2168:	cc870713          	addi	a4,a4,-824 # 12cc8 <__BSS_END__+0xb810>
    216c:	00e7a023          	sw	a4,0(a5)
    2170:	fec42783          	lw	a5,-20(s0)
    2174:	5f078793          	addi	a5,a5,1520
    2178:	00012737          	lui	a4,0x12
    217c:	11070713          	addi	a4,a4,272 # 12110 <__BSS_END__+0xac58>
    2180:	00e7a023          	sw	a4,0(a5)
    2184:	fec42783          	lw	a5,-20(s0)
    2188:	5f478793          	addi	a5,a5,1524
    218c:	00012737          	lui	a4,0x12
    2190:	94070713          	addi	a4,a4,-1728 # 11940 <__BSS_END__+0xa488>
    2194:	00e7a023          	sw	a4,0(a5)
    2198:	fec42783          	lw	a5,-20(s0)
    219c:	5f878793          	addi	a5,a5,1528
    21a0:	00011737          	lui	a4,0x11
    21a4:	17070713          	addi	a4,a4,368 # 11170 <__BSS_END__+0x9cb8>
    21a8:	00e7a023          	sw	a4,0(a5)
    21ac:	fec42783          	lw	a5,-20(s0)
    21b0:	5fc78793          	addi	a5,a5,1532
    21b4:	00010737          	lui	a4,0x10
    21b8:	5b870713          	addi	a4,a4,1464 # 105b8 <__BSS_END__+0x9100>
    21bc:	00e7a023          	sw	a4,0(a5)
    21c0:	fec42783          	lw	a5,-20(s0)
    21c4:	60078793          	addi	a5,a5,1536
    21c8:	00010737          	lui	a4,0x10
    21cc:	de870713          	addi	a4,a4,-536 # fde8 <__BSS_END__+0x8930>
    21d0:	00e7a023          	sw	a4,0(a5)
    21d4:	fec42783          	lw	a5,-20(s0)
    21d8:	60478793          	addi	a5,a5,1540
    21dc:	0000f737          	lui	a4,0xf
    21e0:	61870713          	addi	a4,a4,1560 # f618 <__BSS_END__+0x8160>
    21e4:	00e7a023          	sw	a4,0(a5)
    21e8:	fec42783          	lw	a5,-20(s0)
    21ec:	60878793          	addi	a5,a5,1544
    21f0:	0000f737          	lui	a4,0xf
    21f4:	e4870713          	addi	a4,a4,-440 # ee48 <__BSS_END__+0x7990>
    21f8:	00e7a023          	sw	a4,0(a5)
    21fc:	fec42783          	lw	a5,-20(s0)
    2200:	60c78793          	addi	a5,a5,1548
    2204:	0000f737          	lui	a4,0xf
    2208:	a6070713          	addi	a4,a4,-1440 # ea60 <__BSS_END__+0x75a8>
    220c:	00e7a023          	sw	a4,0(a5)
    2210:	fec42783          	lw	a5,-20(s0)
    2214:	61078793          	addi	a5,a5,1552
    2218:	0000e737          	lui	a4,0xe
    221c:	29070713          	addi	a4,a4,656 # e290 <__BSS_END__+0x6dd8>
    2220:	00e7a023          	sw	a4,0(a5)
    2224:	fec42783          	lw	a5,-20(s0)
    2228:	61478793          	addi	a5,a5,1556
    222c:	00010737          	lui	a4,0x10
    2230:	a0070713          	addi	a4,a4,-1536 # fa00 <__BSS_END__+0x8548>
    2234:	00e7a023          	sw	a4,0(a5)
    2238:	fec42783          	lw	a5,-20(s0)
    223c:	61878793          	addi	a5,a5,1560
    2240:	00011737          	lui	a4,0x11
    2244:	d8870713          	addi	a4,a4,-632 # 10d88 <__BSS_END__+0x98d0>
    2248:	00e7a023          	sw	a4,0(a5)
    224c:	fec42783          	lw	a5,-20(s0)
    2250:	61c78793          	addi	a5,a5,1564
    2254:	00012737          	lui	a4,0x12
    2258:	4f870713          	addi	a4,a4,1272 # 124f8 <__BSS_END__+0xb040>
    225c:	00e7a023          	sw	a4,0(a5)
    2260:	fec42783          	lw	a5,-20(s0)
    2264:	62078793          	addi	a5,a5,1568
    2268:	00014737          	lui	a4,0x14
    226c:	c6870713          	addi	a4,a4,-920 # 13c68 <__BSS_END__+0xc7b0>
    2270:	00e7a023          	sw	a4,0(a5)
    2274:	fec42783          	lw	a5,-20(s0)
    2278:	62478793          	addi	a5,a5,1572
    227c:	00015737          	lui	a4,0x15
    2280:	3d870713          	addi	a4,a4,984 # 153d8 <__BSS_END__+0xdf20>
    2284:	00e7a023          	sw	a4,0(a5)
    2288:	fec42783          	lw	a5,-20(s0)
    228c:	62878793          	addi	a5,a5,1576
    2290:	00015737          	lui	a4,0x15
    2294:	3d870713          	addi	a4,a4,984 # 153d8 <__BSS_END__+0xdf20>
    2298:	00e7a023          	sw	a4,0(a5)
    229c:	fec42783          	lw	a5,-20(s0)
    22a0:	62c78793          	addi	a5,a5,1580
    22a4:	00015737          	lui	a4,0x15
    22a8:	3d870713          	addi	a4,a4,984 # 153d8 <__BSS_END__+0xdf20>
    22ac:	00e7a023          	sw	a4,0(a5)
    22b0:	fec42783          	lw	a5,-20(s0)
    22b4:	63078793          	addi	a5,a5,1584
    22b8:	00015737          	lui	a4,0x15
    22bc:	3d870713          	addi	a4,a4,984 # 153d8 <__BSS_END__+0xdf20>
    22c0:	00e7a023          	sw	a4,0(a5)
    22c4:	fec42783          	lw	a5,-20(s0)
    22c8:	63478793          	addi	a5,a5,1588
    22cc:	00015737          	lui	a4,0x15
    22d0:	3d870713          	addi	a4,a4,984 # 153d8 <__BSS_END__+0xdf20>
    22d4:	00e7a023          	sw	a4,0(a5)
    22d8:	fec42783          	lw	a5,-20(s0)
    22dc:	63878793          	addi	a5,a5,1592
    22e0:	00015737          	lui	a4,0x15
    22e4:	3d870713          	addi	a4,a4,984 # 153d8 <__BSS_END__+0xdf20>
    22e8:	00e7a023          	sw	a4,0(a5)
    22ec:	fec42783          	lw	a5,-20(s0)
    22f0:	63c78793          	addi	a5,a5,1596
    22f4:	00016737          	lui	a4,0x16
    22f8:	f9070713          	addi	a4,a4,-112 # 15f90 <__BSS_END__+0xead8>
    22fc:	00e7a023          	sw	a4,0(a5)
    2300:	fec42783          	lw	a5,-20(s0)
    2304:	64078793          	addi	a5,a5,1600
    2308:	00016737          	lui	a4,0x16
    230c:	76070713          	addi	a4,a4,1888 # 16760 <__BSS_END__+0xf2a8>
    2310:	00e7a023          	sw	a4,0(a5)
    2314:	fec42783          	lw	a5,-20(s0)
    2318:	64478793          	addi	a5,a5,1604
    231c:	00017737          	lui	a4,0x17
    2320:	31870713          	addi	a4,a4,792 # 17318 <__BSS_END__+0xfe60>
    2324:	00e7a023          	sw	a4,0(a5)
    2328:	fec42783          	lw	a5,-20(s0)
    232c:	64878793          	addi	a5,a5,1608
    2330:	00018737          	lui	a4,0x18
    2334:	ae870713          	addi	a4,a4,-1304 # 17ae8 <__BSS_END__+0x10630>
    2338:	00e7a023          	sw	a4,0(a5)
    233c:	fec42783          	lw	a5,-20(s0)
    2340:	64c78793          	addi	a5,a5,1612
    2344:	00018737          	lui	a4,0x18
    2348:	6a070713          	addi	a4,a4,1696 # 186a0 <__BSS_END__+0x111e8>
    234c:	00e7a023          	sw	a4,0(a5)
    2350:	fec42783          	lw	a5,-20(s0)
    2354:	65078793          	addi	a5,a5,1616
    2358:	00018737          	lui	a4,0x18
    235c:	ed070713          	addi	a4,a4,-304 # 17ed0 <__BSS_END__+0x10a18>
    2360:	00e7a023          	sw	a4,0(a5)
    2364:	fec42783          	lw	a5,-20(s0)
    2368:	65478793          	addi	a5,a5,1620
    236c:	00017737          	lui	a4,0x17
    2370:	70070713          	addi	a4,a4,1792 # 17700 <__BSS_END__+0x10248>
    2374:	00e7a023          	sw	a4,0(a5)
    2378:	fec42783          	lw	a5,-20(s0)
    237c:	65878793          	addi	a5,a5,1624
    2380:	00017737          	lui	a4,0x17
    2384:	31870713          	addi	a4,a4,792 # 17318 <__BSS_END__+0xfe60>
    2388:	00e7a023          	sw	a4,0(a5)
    238c:	fec42783          	lw	a5,-20(s0)
    2390:	65c78793          	addi	a5,a5,1628
    2394:	00017737          	lui	a4,0x17
    2398:	b4870713          	addi	a4,a4,-1208 # 16b48 <__BSS_END__+0xf690>
    239c:	00e7a023          	sw	a4,0(a5)
    23a0:	fec42783          	lw	a5,-20(s0)
    23a4:	66078793          	addi	a5,a5,1632
    23a8:	00016737          	lui	a4,0x16
    23ac:	76070713          	addi	a4,a4,1888 # 16760 <__BSS_END__+0xf2a8>
    23b0:	00e7a023          	sw	a4,0(a5)
    23b4:	fec42783          	lw	a5,-20(s0)
    23b8:	66478793          	addi	a5,a5,1636
    23bc:	00016737          	lui	a4,0x16
    23c0:	76070713          	addi	a4,a4,1888 # 16760 <__BSS_END__+0xf2a8>
    23c4:	00e7a023          	sw	a4,0(a5)
    23c8:	fec42783          	lw	a5,-20(s0)
    23cc:	66878793          	addi	a5,a5,1640
    23d0:	00017737          	lui	a4,0x17
    23d4:	b4870713          	addi	a4,a4,-1208 # 16b48 <__BSS_END__+0xf690>
    23d8:	00e7a023          	sw	a4,0(a5)
    23dc:	fec42783          	lw	a5,-20(s0)
    23e0:	66c78793          	addi	a5,a5,1644
    23e4:	00017737          	lui	a4,0x17
    23e8:	f3070713          	addi	a4,a4,-208 # 16f30 <__BSS_END__+0xfa78>
    23ec:	00e7a023          	sw	a4,0(a5)
    23f0:	fec42783          	lw	a5,-20(s0)
    23f4:	67078793          	addi	a5,a5,1648
    23f8:	00017737          	lui	a4,0x17
    23fc:	31870713          	addi	a4,a4,792 # 17318 <__BSS_END__+0xfe60>
    2400:	00e7a023          	sw	a4,0(a5)
    2404:	fec42783          	lw	a5,-20(s0)
    2408:	67478793          	addi	a5,a5,1652
    240c:	00017737          	lui	a4,0x17
    2410:	70070713          	addi	a4,a4,1792 # 17700 <__BSS_END__+0x10248>
    2414:	00e7a023          	sw	a4,0(a5)
    2418:	fec42783          	lw	a5,-20(s0)
    241c:	67878793          	addi	a5,a5,1656
    2420:	00018737          	lui	a4,0x18
    2424:	ed070713          	addi	a4,a4,-304 # 17ed0 <__BSS_END__+0x10a18>
    2428:	00e7a023          	sw	a4,0(a5)
    242c:	fec42783          	lw	a5,-20(s0)
    2430:	67c78793          	addi	a5,a5,1660
    2434:	00018737          	lui	a4,0x18
    2438:	6a070713          	addi	a4,a4,1696 # 186a0 <__BSS_END__+0x111e8>
    243c:	00e7a023          	sw	a4,0(a5)
    2440:	fec42783          	lw	a5,-20(s0)
    2444:	68078793          	addi	a5,a5,1664
    2448:	00019737          	lui	a4,0x19
    244c:	e7070713          	addi	a4,a4,-400 # 18e70 <__BSS_END__+0x119b8>
    2450:	00e7a023          	sw	a4,0(a5)
    2454:	fec42783          	lw	a5,-20(s0)
    2458:	68478793          	addi	a5,a5,1668
    245c:	00019737          	lui	a4,0x19
    2460:	64070713          	addi	a4,a4,1600 # 19640 <__BSS_END__+0x12188>
    2464:	00e7a023          	sw	a4,0(a5)
    2468:	fec42783          	lw	a5,-20(s0)
    246c:	68878793          	addi	a5,a5,1672
    2470:	0001a737          	lui	a4,0x1a
    2474:	e1070713          	addi	a4,a4,-496 # 19e10 <__BSS_END__+0x12958>
    2478:	00e7a023          	sw	a4,0(a5)
    247c:	fec42783          	lw	a5,-20(s0)
    2480:	68c78793          	addi	a5,a5,1676
    2484:	0001b737          	lui	a4,0x1b
    2488:	9c870713          	addi	a4,a4,-1592 # 1a9c8 <__BSS_END__+0x13510>
    248c:	00e7a023          	sw	a4,0(a5)
    2490:	fec42783          	lw	a5,-20(s0)
    2494:	69078793          	addi	a5,a5,1680
    2498:	0001b737          	lui	a4,0x1b
    249c:	58070713          	addi	a4,a4,1408 # 1b580 <__BSS_END__+0x140c8>
    24a0:	00e7a023          	sw	a4,0(a5)
    24a4:	fec42783          	lw	a5,-20(s0)
    24a8:	69478793          	addi	a5,a5,1684
    24ac:	0001c737          	lui	a4,0x1c
    24b0:	13870713          	addi	a4,a4,312 # 1c138 <__BSS_END__+0x14c80>
    24b4:	00e7a023          	sw	a4,0(a5)
    24b8:	fec42783          	lw	a5,-20(s0)
    24bc:	69878793          	addi	a5,a5,1688
    24c0:	0001d737          	lui	a4,0x1d
    24c4:	90870713          	addi	a4,a4,-1784 # 1c908 <__BSS_END__+0x15450>
    24c8:	00e7a023          	sw	a4,0(a5)
    24cc:	fec42783          	lw	a5,-20(s0)
    24d0:	69c78793          	addi	a5,a5,1692
    24d4:	0001d737          	lui	a4,0x1d
    24d8:	4c070713          	addi	a4,a4,1216 # 1d4c0 <__BSS_END__+0x16008>
    24dc:	00e7a023          	sw	a4,0(a5)
    24e0:	fec42783          	lw	a5,-20(s0)
    24e4:	6a078793          	addi	a5,a5,1696
    24e8:	0001c737          	lui	a4,0x1c
    24ec:	d5070713          	addi	a4,a4,-688 # 1bd50 <__BSS_END__+0x14898>
    24f0:	00e7a023          	sw	a4,0(a5)
    24f4:	fec42783          	lw	a5,-20(s0)
    24f8:	6a478793          	addi	a5,a5,1700
    24fc:	0001a737          	lui	a4,0x1a
    2500:	5e070713          	addi	a4,a4,1504 # 1a5e0 <__BSS_END__+0x13128>
    2504:	00e7a023          	sw	a4,0(a5)
    2508:	fec42783          	lw	a5,-20(s0)
    250c:	6a878793          	addi	a5,a5,1704
    2510:	00019737          	lui	a4,0x19
    2514:	25870713          	addi	a4,a4,600 # 19258 <__BSS_END__+0x11da0>
    2518:	00e7a023          	sw	a4,0(a5)
    251c:	fec42783          	lw	a5,-20(s0)
    2520:	6ac78793          	addi	a5,a5,1708
    2524:	00018737          	lui	a4,0x18
    2528:	ae870713          	addi	a4,a4,-1304 # 17ae8 <__BSS_END__+0x10630>
    252c:	00e7a023          	sw	a4,0(a5)
    2530:	fec42783          	lw	a5,-20(s0)
    2534:	6b078793          	addi	a5,a5,1712
    2538:	00016737          	lui	a4,0x16
    253c:	37870713          	addi	a4,a4,888 # 16378 <__BSS_END__+0xeec0>
    2540:	00e7a023          	sw	a4,0(a5)
    2544:	fec42783          	lw	a5,-20(s0)
    2548:	6b478793          	addi	a5,a5,1716
    254c:	00016737          	lui	a4,0x16
    2550:	76070713          	addi	a4,a4,1888 # 16760 <__BSS_END__+0xf2a8>
    2554:	00e7a023          	sw	a4,0(a5)
    2558:	fec42783          	lw	a5,-20(s0)
    255c:	6b878793          	addi	a5,a5,1720
    2560:	00017737          	lui	a4,0x17
    2564:	b4870713          	addi	a4,a4,-1208 # 16b48 <__BSS_END__+0xf690>
    2568:	00e7a023          	sw	a4,0(a5)
    256c:	fec42783          	lw	a5,-20(s0)
    2570:	6bc78793          	addi	a5,a5,1724
    2574:	00017737          	lui	a4,0x17
    2578:	b4870713          	addi	a4,a4,-1208 # 16b48 <__BSS_END__+0xf690>
    257c:	00e7a023          	sw	a4,0(a5)
    2580:	fec42783          	lw	a5,-20(s0)
    2584:	6c078793          	addi	a5,a5,1728
    2588:	00017737          	lui	a4,0x17
    258c:	f3070713          	addi	a4,a4,-208 # 16f30 <__BSS_END__+0xfa78>
    2590:	00e7a023          	sw	a4,0(a5)
    2594:	fec42783          	lw	a5,-20(s0)
    2598:	6c478793          	addi	a5,a5,1732
    259c:	00017737          	lui	a4,0x17
    25a0:	31870713          	addi	a4,a4,792 # 17318 <__BSS_END__+0xfe60>
    25a4:	00e7a023          	sw	a4,0(a5)
    25a8:	fec42783          	lw	a5,-20(s0)
    25ac:	6c878793          	addi	a5,a5,1736
    25b0:	0001a737          	lui	a4,0x1a
    25b4:	a2870713          	addi	a4,a4,-1496 # 19a28 <__BSS_END__+0x12570>
    25b8:	00e7a023          	sw	a4,0(a5)
    25bc:	fec42783          	lw	a5,-20(s0)
    25c0:	6cc78793          	addi	a5,a5,1740
    25c4:	0001c737          	lui	a4,0x1c
    25c8:	13870713          	addi	a4,a4,312 # 1c138 <__BSS_END__+0x14c80>
    25cc:	00e7a023          	sw	a4,0(a5)
    25d0:	fec42783          	lw	a5,-20(s0)
    25d4:	6d078793          	addi	a5,a5,1744
    25d8:	0001f737          	lui	a4,0x1f
    25dc:	84870713          	addi	a4,a4,-1976 # 1e848 <__BSS_END__+0x17390>
    25e0:	00e7a023          	sw	a4,0(a5)
    25e4:	fec42783          	lw	a5,-20(s0)
    25e8:	6d478793          	addi	a5,a5,1748
    25ec:	00021737          	lui	a4,0x21
    25f0:	f5870713          	addi	a4,a4,-168 # 20f58 <__BSS_END__+0x19aa0>
    25f4:	00e7a023          	sw	a4,0(a5)
    25f8:	fec42783          	lw	a5,-20(s0)
    25fc:	6d878793          	addi	a5,a5,1752
    2600:	00023737          	lui	a4,0x23
    2604:	66870713          	addi	a4,a4,1640 # 23668 <__BSS_END__+0x1c1b0>
    2608:	00e7a023          	sw	a4,0(a5)
    260c:	fec42783          	lw	a5,-20(s0)
    2610:	6dc78793          	addi	a5,a5,1756
    2614:	00024737          	lui	a4,0x24
    2618:	e3870713          	addi	a4,a4,-456 # 23e38 <__BSS_END__+0x1c980>
    261c:	00e7a023          	sw	a4,0(a5)
    2620:	fec42783          	lw	a5,-20(s0)
    2624:	6e078793          	addi	a5,a5,1760
    2628:	00024737          	lui	a4,0x24
    262c:	60870713          	addi	a4,a4,1544 # 24608 <__BSS_END__+0x1d150>
    2630:	00e7a023          	sw	a4,0(a5)
    2634:	fec42783          	lw	a5,-20(s0)
    2638:	6e478793          	addi	a5,a5,1764
    263c:	00025737          	lui	a4,0x25
    2640:	9f070713          	addi	a4,a4,-1552 # 249f0 <__BSS_END__+0x1d538>
    2644:	00e7a023          	sw	a4,0(a5)
    2648:	fec42783          	lw	a5,-20(s0)
    264c:	6e878793          	addi	a5,a5,1768
    2650:	00025737          	lui	a4,0x25
    2654:	1c070713          	addi	a4,a4,448 # 251c0 <__BSS_END__+0x1dd08>
    2658:	00e7a023          	sw	a4,0(a5)
    265c:	fec42783          	lw	a5,-20(s0)
    2660:	6ec78793          	addi	a5,a5,1772
    2664:	00026737          	lui	a4,0x26
    2668:	99070713          	addi	a4,a4,-1648 # 25990 <__BSS_END__+0x1e4d8>
    266c:	00e7a023          	sw	a4,0(a5)
    2670:	fec42783          	lw	a5,-20(s0)
    2674:	6f078793          	addi	a5,a5,1776
    2678:	00023737          	lui	a4,0x23
    267c:	e9870713          	addi	a4,a4,-360 # 22e98 <__BSS_END__+0x1b9e0>
    2680:	00e7a023          	sw	a4,0(a5)
    2684:	fec42783          	lw	a5,-20(s0)
    2688:	6f478793          	addi	a5,a5,1780
    268c:	00020737          	lui	a4,0x20
    2690:	3a070713          	addi	a4,a4,928 # 203a0 <__BSS_END__+0x18ee8>
    2694:	00e7a023          	sw	a4,0(a5)
    2698:	fec42783          	lw	a5,-20(s0)
    269c:	6f878793          	addi	a5,a5,1784
    26a0:	0001e737          	lui	a4,0x1e
    26a4:	8a870713          	addi	a4,a4,-1880 # 1d8a8 <__BSS_END__+0x163f0>
    26a8:	00e7a023          	sw	a4,0(a5)
    26ac:	fec42783          	lw	a5,-20(s0)
    26b0:	6fc78793          	addi	a5,a5,1788
    26b4:	0001b737          	lui	a4,0x1b
    26b8:	9c870713          	addi	a4,a4,-1592 # 1a9c8 <__BSS_END__+0x13510>
    26bc:	00e7a023          	sw	a4,0(a5)
    26c0:	fec42783          	lw	a5,-20(s0)
    26c4:	70078793          	addi	a5,a5,1792
    26c8:	00018737          	lui	a4,0x18
    26cc:	ed070713          	addi	a4,a4,-304 # 17ed0 <__BSS_END__+0x10a18>
    26d0:	00e7a023          	sw	a4,0(a5)
    26d4:	fec42783          	lw	a5,-20(s0)
    26d8:	70478793          	addi	a5,a5,1796
    26dc:	00017737          	lui	a4,0x17
    26e0:	70070713          	addi	a4,a4,1792 # 17700 <__BSS_END__+0x10248>
    26e4:	00e7a023          	sw	a4,0(a5)
    26e8:	fec42783          	lw	a5,-20(s0)
    26ec:	70878793          	addi	a5,a5,1800
    26f0:	00017737          	lui	a4,0x17
    26f4:	f3070713          	addi	a4,a4,-208 # 16f30 <__BSS_END__+0xfa78>
    26f8:	00e7a023          	sw	a4,0(a5)
    26fc:	fec42783          	lw	a5,-20(s0)
    2700:	70c78793          	addi	a5,a5,1804
    2704:	00016737          	lui	a4,0x16
    2708:	37870713          	addi	a4,a4,888 # 16378 <__BSS_END__+0xeec0>
    270c:	00e7a023          	sw	a4,0(a5)
    2710:	fec42783          	lw	a5,-20(s0)
    2714:	71078793          	addi	a5,a5,1808
    2718:	00016737          	lui	a4,0x16
    271c:	ba870713          	addi	a4,a4,-1112 # 15ba8 <__BSS_END__+0xe6f0>
    2720:	00e7a023          	sw	a4,0(a5)
    2724:	fec42783          	lw	a5,-20(s0)
    2728:	71478793          	addi	a5,a5,1812
    272c:	00015737          	lui	a4,0x15
    2730:	3d870713          	addi	a4,a4,984 # 153d8 <__BSS_END__+0xdf20>
    2734:	00e7a023          	sw	a4,0(a5)
    2738:	fec42783          	lw	a5,-20(s0)
    273c:	71878793          	addi	a5,a5,1816
    2740:	00015737          	lui	a4,0x15
    2744:	82070713          	addi	a4,a4,-2016 # 14820 <__BSS_END__+0xd368>
    2748:	00e7a023          	sw	a4,0(a5)
    274c:	fec42783          	lw	a5,-20(s0)
    2750:	71c78793          	addi	a5,a5,1820
    2754:	00014737          	lui	a4,0x14
    2758:	c6870713          	addi	a4,a4,-920 # 13c68 <__BSS_END__+0xc7b0>
    275c:	00e7a023          	sw	a4,0(a5)
    2760:	fec42783          	lw	a5,-20(s0)
    2764:	72078793          	addi	a5,a5,1824
    2768:	00013737          	lui	a4,0x13
    276c:	0b070713          	addi	a4,a4,176 # 130b0 <__BSS_END__+0xbbf8>
    2770:	00e7a023          	sw	a4,0(a5)
    2774:	fec42783          	lw	a5,-20(s0)
    2778:	72478793          	addi	a5,a5,1828
    277c:	00012737          	lui	a4,0x12
    2780:	4f870713          	addi	a4,a4,1272 # 124f8 <__BSS_END__+0xb040>
    2784:	00e7a023          	sw	a4,0(a5)
    2788:	fec42783          	lw	a5,-20(s0)
    278c:	72878793          	addi	a5,a5,1832
    2790:	00012737          	lui	a4,0x12
    2794:	94070713          	addi	a4,a4,-1728 # 11940 <__BSS_END__+0xa488>
    2798:	00e7a023          	sw	a4,0(a5)
    279c:	fec42783          	lw	a5,-20(s0)
    27a0:	72c78793          	addi	a5,a5,1836
    27a4:	00010737          	lui	a4,0x10
    27a8:	a0070713          	addi	a4,a4,-1536 # fa00 <__BSS_END__+0x8548>
    27ac:	00e7a023          	sw	a4,0(a5)
    27b0:	fec42783          	lw	a5,-20(s0)
    27b4:	73078793          	addi	a5,a5,1840
    27b8:	0000e737          	lui	a4,0xe
    27bc:	ac070713          	addi	a4,a4,-1344 # dac0 <__BSS_END__+0x6608>
    27c0:	00e7a023          	sw	a4,0(a5)
    27c4:	fec42783          	lw	a5,-20(s0)
    27c8:	73478793          	addi	a5,a5,1844
    27cc:	0000c737          	lui	a4,0xc
    27d0:	b8070713          	addi	a4,a4,-1152 # bb80 <__BSS_END__+0x46c8>
    27d4:	00e7a023          	sw	a4,0(a5)
    27d8:	fec42783          	lw	a5,-20(s0)
    27dc:	73878793          	addi	a5,a5,1848
    27e0:	0000a737          	lui	a4,0xa
    27e4:	c4070713          	addi	a4,a4,-960 # 9c40 <__BSS_END__+0x2788>
    27e8:	00e7a023          	sw	a4,0(a5)
    27ec:	fec42783          	lw	a5,-20(s0)
    27f0:	73c78793          	addi	a5,a5,1852
    27f4:	00008737          	lui	a4,0x8
    27f8:	d0070713          	addi	a4,a4,-768 # 7d00 <__BSS_END__+0x848>
    27fc:	00e7a023          	sw	a4,0(a5)
    2800:	fec42783          	lw	a5,-20(s0)
    2804:	74078793          	addi	a5,a5,1856
    2808:	00008737          	lui	a4,0x8
    280c:	d0070713          	addi	a4,a4,-768 # 7d00 <__BSS_END__+0x848>
    2810:	00e7a023          	sw	a4,0(a5)
    2814:	fec42783          	lw	a5,-20(s0)
    2818:	74478793          	addi	a5,a5,1860
    281c:	00008737          	lui	a4,0x8
    2820:	d0070713          	addi	a4,a4,-768 # 7d00 <__BSS_END__+0x848>
    2824:	00e7a023          	sw	a4,0(a5)
    2828:	fec42783          	lw	a5,-20(s0)
    282c:	74878793          	addi	a5,a5,1864
    2830:	00008737          	lui	a4,0x8
    2834:	d0070713          	addi	a4,a4,-768 # 7d00 <__BSS_END__+0x848>
    2838:	00e7a023          	sw	a4,0(a5)
    283c:	fec42783          	lw	a5,-20(s0)
    2840:	74c78793          	addi	a5,a5,1868
    2844:	00008737          	lui	a4,0x8
    2848:	91870713          	addi	a4,a4,-1768 # 7918 <__BSS_END__+0x460>
    284c:	00e7a023          	sw	a4,0(a5)
    2850:	fec42783          	lw	a5,-20(s0)
    2854:	75078793          	addi	a5,a5,1872
    2858:	00008737          	lui	a4,0x8
    285c:	91870713          	addi	a4,a4,-1768 # 7918 <__BSS_END__+0x460>
    2860:	00e7a023          	sw	a4,0(a5)
    2864:	fec42783          	lw	a5,-20(s0)
    2868:	75478793          	addi	a5,a5,1876
    286c:	0000d737          	lui	a4,0xd
    2870:	b2070713          	addi	a4,a4,-1248 # cb20 <__BSS_END__+0x5668>
    2874:	00e7a023          	sw	a4,0(a5)
    2878:	fec42783          	lw	a5,-20(s0)
    287c:	75878793          	addi	a5,a5,1880
    2880:	00012737          	lui	a4,0x12
    2884:	d2870713          	addi	a4,a4,-728 # 11d28 <__BSS_END__+0xa870>
    2888:	00e7a023          	sw	a4,0(a5)
    288c:	fec42783          	lw	a5,-20(s0)
    2890:	75c78793          	addi	a5,a5,1884
    2894:	00017737          	lui	a4,0x17
    2898:	f3070713          	addi	a4,a4,-208 # 16f30 <__BSS_END__+0xfa78>
    289c:	00e7a023          	sw	a4,0(a5)
    28a0:	fec42783          	lw	a5,-20(s0)
    28a4:	76078793          	addi	a5,a5,1888
    28a8:	0001c737          	lui	a4,0x1c
    28ac:	13870713          	addi	a4,a4,312 # 1c138 <__BSS_END__+0x14c80>
    28b0:	00e7a023          	sw	a4,0(a5)
    28b4:	fec42783          	lw	a5,-20(s0)
    28b8:	76478793          	addi	a5,a5,1892
    28bc:	00021737          	lui	a4,0x21
    28c0:	72870713          	addi	a4,a4,1832 # 21728 <__BSS_END__+0x1a270>
    28c4:	00e7a023          	sw	a4,0(a5)
    28c8:	fec42783          	lw	a5,-20(s0)
    28cc:	76878793          	addi	a5,a5,1896
    28d0:	00024737          	lui	a4,0x24
    28d4:	60870713          	addi	a4,a4,1544 # 24608 <__BSS_END__+0x1d150>
    28d8:	00e7a023          	sw	a4,0(a5)
    28dc:	fec42783          	lw	a5,-20(s0)
    28e0:	76c78793          	addi	a5,a5,1900
    28e4:	00028737          	lui	a4,0x28
    28e8:	8d070713          	addi	a4,a4,-1840 # 278d0 <__BSS_END__+0x20418>
    28ec:	00e7a023          	sw	a4,0(a5)
    28f0:	fec42783          	lw	a5,-20(s0)
    28f4:	77078793          	addi	a5,a5,1904
    28f8:	0002a737          	lui	a4,0x2a
    28fc:	7b070713          	addi	a4,a4,1968 # 2a7b0 <__BSS_END__+0x232f8>
    2900:	00e7a023          	sw	a4,0(a5)
    2904:	fec42783          	lw	a5,-20(s0)
    2908:	77478793          	addi	a5,a5,1908
    290c:	0002e737          	lui	a4,0x2e
    2910:	a7870713          	addi	a4,a4,-1416 # 2da78 <__BSS_END__+0x265c0>
    2914:	00e7a023          	sw	a4,0(a5)
    2918:	fec42783          	lw	a5,-20(s0)
    291c:	77878793          	addi	a5,a5,1912
    2920:	00031737          	lui	a4,0x31
    2924:	95870713          	addi	a4,a4,-1704 # 30958 <__BSS_END__+0x294a0>
    2928:	00e7a023          	sw	a4,0(a5)
    292c:	fec42783          	lw	a5,-20(s0)
    2930:	77c78793          	addi	a5,a5,1916
    2934:	00030737          	lui	a4,0x30
    2938:	18870713          	addi	a4,a4,392 # 30188 <__BSS_END__+0x28cd0>
    293c:	00e7a023          	sw	a4,0(a5)
    2940:	fec42783          	lw	a5,-20(s0)
    2944:	78078793          	addi	a5,a5,1920
    2948:	00030737          	lui	a4,0x30
    294c:	9b870713          	addi	a4,a4,-1608 # 2f9b8 <__BSS_END__+0x28500>
    2950:	00e7a023          	sw	a4,0(a5)
    2954:	fec42783          	lw	a5,-20(s0)
    2958:	78478793          	addi	a5,a5,1924
    295c:	0002f737          	lui	a4,0x2f
    2960:	1e870713          	addi	a4,a4,488 # 2f1e8 <__BSS_END__+0x27d30>
    2964:	00e7a023          	sw	a4,0(a5)
    2968:	fec42783          	lw	a5,-20(s0)
    296c:	78878793          	addi	a5,a5,1928
    2970:	0002f737          	lui	a4,0x2f
    2974:	e0070713          	addi	a4,a4,-512 # 2ee00 <__BSS_END__+0x27948>
    2978:	00e7a023          	sw	a4,0(a5)
    297c:	fec42783          	lw	a5,-20(s0)
    2980:	78c78793          	addi	a5,a5,1932
    2984:	0002e737          	lui	a4,0x2e
    2988:	63070713          	addi	a4,a4,1584 # 2e630 <__BSS_END__+0x27178>
    298c:	00e7a023          	sw	a4,0(a5)
    2990:	fec42783          	lw	a5,-20(s0)
    2994:	79078793          	addi	a5,a5,1936
    2998:	0002d737          	lui	a4,0x2d
    299c:	ec070713          	addi	a4,a4,-320 # 2cec0 <__BSS_END__+0x25a08>
    29a0:	00e7a023          	sw	a4,0(a5)
    29a4:	fec42783          	lw	a5,-20(s0)
    29a8:	79478793          	addi	a5,a5,1940
    29ac:	0002b737          	lui	a4,0x2b
    29b0:	75070713          	addi	a4,a4,1872 # 2b750 <__BSS_END__+0x24298>
    29b4:	00e7a023          	sw	a4,0(a5)
    29b8:	fec42783          	lw	a5,-20(s0)
    29bc:	79878793          	addi	a5,a5,1944
    29c0:	0002a737          	lui	a4,0x2a
    29c4:	fe070713          	addi	a4,a4,-32 # 29fe0 <__BSS_END__+0x22b28>
    29c8:	00e7a023          	sw	a4,0(a5)
    29cc:	fec42783          	lw	a5,-20(s0)
    29d0:	79c78793          	addi	a5,a5,1948
    29d4:	00029737          	lui	a4,0x29
    29d8:	87070713          	addi	a4,a4,-1936 # 28870 <__BSS_END__+0x213b8>
    29dc:	00e7a023          	sw	a4,0(a5)
    29e0:	fec42783          	lw	a5,-20(s0)
    29e4:	7a078793          	addi	a5,a5,1952
    29e8:	00027737          	lui	a4,0x27
    29ec:	10070713          	addi	a4,a4,256 # 27100 <__BSS_END__+0x1fc48>
    29f0:	00e7a023          	sw	a4,0(a5)
    29f4:	fec42783          	lw	a5,-20(s0)
    29f8:	7a478793          	addi	a5,a5,1956
    29fc:	00025737          	lui	a4,0x25
    2a00:	1c070713          	addi	a4,a4,448 # 251c0 <__BSS_END__+0x1dd08>
    2a04:	00e7a023          	sw	a4,0(a5)
    2a08:	fec42783          	lw	a5,-20(s0)
    2a0c:	7a878793          	addi	a5,a5,1960
    2a10:	00023737          	lui	a4,0x23
    2a14:	28070713          	addi	a4,a4,640 # 23280 <__BSS_END__+0x1bdc8>
    2a18:	00e7a023          	sw	a4,0(a5)
    2a1c:	fec42783          	lw	a5,-20(s0)
    2a20:	7ac78793          	addi	a5,a5,1964
    2a24:	00021737          	lui	a4,0x21
    2a28:	34070713          	addi	a4,a4,832 # 21340 <__BSS_END__+0x19e88>
    2a2c:	00e7a023          	sw	a4,0(a5)
    2a30:	fec42783          	lw	a5,-20(s0)
    2a34:	7b078793          	addi	a5,a5,1968
    2a38:	0001f737          	lui	a4,0x1f
    2a3c:	40070713          	addi	a4,a4,1024 # 1f400 <__BSS_END__+0x17f48>
    2a40:	00e7a023          	sw	a4,0(a5)
    2a44:	fec42783          	lw	a5,-20(s0)
    2a48:	7b478793          	addi	a5,a5,1972
    2a4c:	0001e737          	lui	a4,0x1e
    2a50:	8a870713          	addi	a4,a4,-1880 # 1d8a8 <__BSS_END__+0x163f0>
    2a54:	00e7a023          	sw	a4,0(a5)
    2a58:	fec42783          	lw	a5,-20(s0)
    2a5c:	7b878793          	addi	a5,a5,1976
    2a60:	0001f737          	lui	a4,0x1f
    2a64:	40070713          	addi	a4,a4,1024 # 1f400 <__BSS_END__+0x17f48>
    2a68:	00e7a023          	sw	a4,0(a5)
    2a6c:	fec42783          	lw	a5,-20(s0)
    2a70:	7bc78793          	addi	a5,a5,1980
    2a74:	00021737          	lui	a4,0x21
    2a78:	34070713          	addi	a4,a4,832 # 21340 <__BSS_END__+0x19e88>
    2a7c:	00e7a023          	sw	a4,0(a5)
    2a80:	fec42783          	lw	a5,-20(s0)
    2a84:	7c078793          	addi	a5,a5,1984
    2a88:	00023737          	lui	a4,0x23
    2a8c:	e9870713          	addi	a4,a4,-360 # 22e98 <__BSS_END__+0x1b9e0>
    2a90:	00e7a023          	sw	a4,0(a5)
    2a94:	fec42783          	lw	a5,-20(s0)
    2a98:	7c478793          	addi	a5,a5,1988
    2a9c:	00025737          	lui	a4,0x25
    2aa0:	dd870713          	addi	a4,a4,-552 # 24dd8 <__BSS_END__+0x1d920>
    2aa4:	00e7a023          	sw	a4,0(a5)
    2aa8:	fec42783          	lw	a5,-20(s0)
    2aac:	7c878793          	addi	a5,a5,1992
    2ab0:	00027737          	lui	a4,0x27
    2ab4:	d1870713          	addi	a4,a4,-744 # 26d18 <__BSS_END__+0x1f860>
    2ab8:	00e7a023          	sw	a4,0(a5)
    2abc:	fec42783          	lw	a5,-20(s0)
    2ac0:	7cc78793          	addi	a5,a5,1996
    2ac4:	00027737          	lui	a4,0x27
    2ac8:	4e870713          	addi	a4,a4,1256 # 274e8 <__BSS_END__+0x20030>
    2acc:	00e7a023          	sw	a4,0(a5)
    2ad0:	fec42783          	lw	a5,-20(s0)
    2ad4:	7d078793          	addi	a5,a5,2000
    2ad8:	00028737          	lui	a4,0x28
    2adc:	cb870713          	addi	a4,a4,-840 # 27cb8 <__BSS_END__+0x20800>
    2ae0:	00e7a023          	sw	a4,0(a5)
    2ae4:	fec42783          	lw	a5,-20(s0)
    2ae8:	7d478793          	addi	a5,a5,2004
    2aec:	00028737          	lui	a4,0x28
    2af0:	48870713          	addi	a4,a4,1160 # 28488 <__BSS_END__+0x20fd0>
    2af4:	00e7a023          	sw	a4,0(a5)
    2af8:	fec42783          	lw	a5,-20(s0)
    2afc:	7d878793          	addi	a5,a5,2008
    2b00:	00029737          	lui	a4,0x29
    2b04:	c5870713          	addi	a4,a4,-936 # 28c58 <__BSS_END__+0x217a0>
    2b08:	00e7a023          	sw	a4,0(a5)
    2b0c:	fec42783          	lw	a5,-20(s0)
    2b10:	7dc78793          	addi	a5,a5,2012
    2b14:	00029737          	lui	a4,0x29
    2b18:	42870713          	addi	a4,a4,1064 # 29428 <__BSS_END__+0x21f70>
    2b1c:	00e7a023          	sw	a4,0(a5)
    2b20:	fec42783          	lw	a5,-20(s0)
    2b24:	7e078793          	addi	a5,a5,2016
    2b28:	00025737          	lui	a4,0x25
    2b2c:	9f070713          	addi	a4,a4,-1552 # 249f0 <__BSS_END__+0x1d538>
    2b30:	00e7a023          	sw	a4,0(a5)
    2b34:	fec42783          	lw	a5,-20(s0)
    2b38:	7e478793          	addi	a5,a5,2020
    2b3c:	00020737          	lui	a4,0x20
    2b40:	bd070713          	addi	a4,a4,-1072 # 1fbd0 <__BSS_END__+0x18718>
    2b44:	00e7a023          	sw	a4,0(a5)
    2b48:	fec42783          	lw	a5,-20(s0)
    2b4c:	7e878793          	addi	a5,a5,2024
    2b50:	0001b737          	lui	a4,0x1b
    2b54:	19870713          	addi	a4,a4,408 # 1b198 <__BSS_END__+0x13ce0>
    2b58:	00e7a023          	sw	a4,0(a5)
    2b5c:	fec42783          	lw	a5,-20(s0)
    2b60:	7ec78793          	addi	a5,a5,2028
    2b64:	00016737          	lui	a4,0x16
    2b68:	37870713          	addi	a4,a4,888 # 16378 <__BSS_END__+0xeec0>
    2b6c:	00e7a023          	sw	a4,0(a5)
    2b70:	fec42783          	lw	a5,-20(s0)
    2b74:	7f078793          	addi	a5,a5,2032
    2b78:	00012737          	lui	a4,0x12
    2b7c:	94070713          	addi	a4,a4,-1728 # 11940 <__BSS_END__+0xa488>
    2b80:	00e7a023          	sw	a4,0(a5)
    2b84:	fec42783          	lw	a5,-20(s0)
    2b88:	7f478793          	addi	a5,a5,2036
    2b8c:	0000f737          	lui	a4,0xf
    2b90:	61870713          	addi	a4,a4,1560 # f618 <__BSS_END__+0x8160>
    2b94:	00e7a023          	sw	a4,0(a5)
    2b98:	fec42783          	lw	a5,-20(s0)
    2b9c:	7f878793          	addi	a5,a5,2040
    2ba0:	0000d737          	lui	a4,0xd
    2ba4:	f0870713          	addi	a4,a4,-248 # cf08 <__BSS_END__+0x5a50>
    2ba8:	00e7a023          	sw	a4,0(a5)
    2bac:	fec42783          	lw	a5,-20(s0)
    2bb0:	7fc78793          	addi	a5,a5,2044
    2bb4:	0000b737          	lui	a4,0xb
    2bb8:	be070713          	addi	a4,a4,-1056 # abe0 <__BSS_END__+0x3728>
    2bbc:	00e7a023          	sw	a4,0(a5)
    2bc0:	fec42703          	lw	a4,-20(s0)
    2bc4:	000017b7          	lui	a5,0x1
    2bc8:	80078793          	addi	a5,a5,-2048 # 800 <init_charges+0x44c>
    2bcc:	00f707b3          	add	a5,a4,a5
    2bd0:	00008737          	lui	a4,0x8
    2bd4:	4d070713          	addi	a4,a4,1232 # 84d0 <__BSS_END__+0x1018>
    2bd8:	00e7a023          	sw	a4,0(a5)
    2bdc:	fec42703          	lw	a4,-20(s0)
    2be0:	000017b7          	lui	a5,0x1
    2be4:	80478793          	addi	a5,a5,-2044 # 804 <init_charges+0x450>
    2be8:	00f707b3          	add	a5,a4,a5
    2bec:	00006737          	lui	a4,0x6
    2bf0:	1a870713          	addi	a4,a4,424 # 61a8 <__errno+0x10c8>
    2bf4:	00e7a023          	sw	a4,0(a5)
    2bf8:	fec42703          	lw	a4,-20(s0)
    2bfc:	000017b7          	lui	a5,0x1
    2c00:	80878793          	addi	a5,a5,-2040 # 808 <init_charges+0x454>
    2c04:	00f707b3          	add	a5,a4,a5
    2c08:	00006737          	lui	a4,0x6
    2c0c:	dc070713          	addi	a4,a4,-576 # 5dc0 <__errno+0xce0>
    2c10:	00e7a023          	sw	a4,0(a5)
    2c14:	fec42703          	lw	a4,-20(s0)
    2c18:	000017b7          	lui	a5,0x1
    2c1c:	80c78793          	addi	a5,a5,-2036 # 80c <init_charges+0x458>
    2c20:	00f707b3          	add	a5,a4,a5
    2c24:	00006737          	lui	a4,0x6
    2c28:	9d870713          	addi	a4,a4,-1576 # 59d8 <__errno+0x8f8>
    2c2c:	00e7a023          	sw	a4,0(a5)
    2c30:	fec42703          	lw	a4,-20(s0)
    2c34:	000017b7          	lui	a5,0x1
    2c38:	81078793          	addi	a5,a5,-2032 # 810 <init_charges+0x45c>
    2c3c:	00f707b3          	add	a5,a4,a5
    2c40:	00005737          	lui	a4,0x5
    2c44:	5f070713          	addi	a4,a4,1520 # 55f0 <__errno+0x510>
    2c48:	00e7a023          	sw	a4,0(a5)
    2c4c:	fec42703          	lw	a4,-20(s0)
    2c50:	000017b7          	lui	a5,0x1
    2c54:	81478793          	addi	a5,a5,-2028 # 814 <init_charges+0x460>
    2c58:	00f707b3          	add	a5,a4,a5
    2c5c:	00005737          	lui	a4,0x5
    2c60:	20870713          	addi	a4,a4,520 # 5208 <__errno+0x128>
    2c64:	00e7a023          	sw	a4,0(a5)
    2c68:	fec42703          	lw	a4,-20(s0)
    2c6c:	000017b7          	lui	a5,0x1
    2c70:	81878793          	addi	a5,a5,-2024 # 818 <init_charges+0x464>
    2c74:	00f707b3          	add	a5,a4,a5
    2c78:	00005737          	lui	a4,0x5
    2c7c:	e2070713          	addi	a4,a4,-480 # 4e20 <__libc_init_array+0x90>
    2c80:	00e7a023          	sw	a4,0(a5)
    2c84:	fec42703          	lw	a4,-20(s0)
    2c88:	000017b7          	lui	a5,0x1
    2c8c:	81c78793          	addi	a5,a5,-2020 # 81c <init_charges+0x468>
    2c90:	00f707b3          	add	a5,a4,a5
    2c94:	00005737          	lui	a4,0x5
    2c98:	a3870713          	addi	a4,a4,-1480 # 4a38 <my_main+0x4c>
    2c9c:	00e7a023          	sw	a4,0(a5)
    2ca0:	fec42703          	lw	a4,-20(s0)
    2ca4:	000017b7          	lui	a5,0x1
    2ca8:	82078793          	addi	a5,a5,-2016 # 820 <init_charges+0x46c>
    2cac:	00f707b3          	add	a5,a4,a5
    2cb0:	00004737          	lui	a4,0x4
    2cb4:	26870713          	addi	a4,a4,616 # 4268 <prgs_execution_time_debug+0xbc>
    2cb8:	00e7a023          	sw	a4,0(a5)
    2cbc:	fec42703          	lw	a4,-20(s0)
    2cc0:	000017b7          	lui	a5,0x1
    2cc4:	82478793          	addi	a5,a5,-2012 # 824 <init_charges+0x470>
    2cc8:	00f707b3          	add	a5,a4,a5
    2ccc:	00004737          	lui	a4,0x4
    2cd0:	e8070713          	addi	a4,a4,-384 # 3e80 <node_assign_prg+0xc8>
    2cd4:	00e7a023          	sw	a4,0(a5)
    2cd8:	fec42703          	lw	a4,-20(s0)
    2cdc:	000017b7          	lui	a5,0x1
    2ce0:	82878793          	addi	a5,a5,-2008 # 828 <init_charges+0x474>
    2ce4:	00f707b3          	add	a5,a4,a5
    2ce8:	00003737          	lui	a4,0x3
    2cec:	6b070713          	addi	a4,a4,1712 # 36b0 <print_str_dec_n+0x58>
    2cf0:	00e7a023          	sw	a4,0(a5)
    2cf4:	fec42703          	lw	a4,-20(s0)
    2cf8:	000017b7          	lui	a5,0x1
    2cfc:	82c78793          	addi	a5,a5,-2004 # 82c <init_charges+0x478>
    2d00:	00f707b3          	add	a5,a4,a5
    2d04:	00003737          	lui	a4,0x3
    2d08:	ee070713          	addi	a4,a4,-288 # 2ee0 <init_charges+0x2b2c>
    2d0c:	00e7a023          	sw	a4,0(a5)
    2d10:	fec42703          	lw	a4,-20(s0)
    2d14:	000017b7          	lui	a5,0x1
    2d18:	83078793          	addi	a5,a5,-2000 # 830 <init_charges+0x47c>
    2d1c:	00f707b3          	add	a5,a4,a5
    2d20:	00003737          	lui	a4,0x3
    2d24:	2c870713          	addi	a4,a4,712 # 32c8 <init_charges+0x2f14>
    2d28:	00e7a023          	sw	a4,0(a5)
    2d2c:	fec42703          	lw	a4,-20(s0)
    2d30:	000017b7          	lui	a5,0x1
    2d34:	83478793          	addi	a5,a5,-1996 # 834 <init_charges+0x480>
    2d38:	00f707b3          	add	a5,a4,a5
    2d3c:	00003737          	lui	a4,0x3
    2d40:	6b070713          	addi	a4,a4,1712 # 36b0 <print_str_dec_n+0x58>
    2d44:	00e7a023          	sw	a4,0(a5)
    2d48:	fec42703          	lw	a4,-20(s0)
    2d4c:	000017b7          	lui	a5,0x1
    2d50:	83878793          	addi	a5,a5,-1992 # 838 <init_charges+0x484>
    2d54:	00f707b3          	add	a5,a4,a5
    2d58:	00003737          	lui	a4,0x3
    2d5c:	6b070713          	addi	a4,a4,1712 # 36b0 <print_str_dec_n+0x58>
    2d60:	00e7a023          	sw	a4,0(a5)
    2d64:	fec42703          	lw	a4,-20(s0)
    2d68:	000017b7          	lui	a5,0x1
    2d6c:	83c78793          	addi	a5,a5,-1988 # 83c <init_charges+0x488>
    2d70:	00f707b3          	add	a5,a4,a5
    2d74:	00004737          	lui	a4,0x4
    2d78:	a9870713          	addi	a4,a4,-1384 # 3a98 <node_get+0x148>
    2d7c:	00e7a023          	sw	a4,0(a5)
    2d80:	fec42703          	lw	a4,-20(s0)
    2d84:	000017b7          	lui	a5,0x1
    2d88:	84078793          	addi	a5,a5,-1984 # 840 <init_charges+0x48c>
    2d8c:	00f707b3          	add	a5,a4,a5
    2d90:	00004737          	lui	a4,0x4
    2d94:	e8070713          	addi	a4,a4,-384 # 3e80 <node_assign_prg+0xc8>
    2d98:	00e7a023          	sw	a4,0(a5)
    2d9c:	fec42703          	lw	a4,-20(s0)
    2da0:	000017b7          	lui	a5,0x1
    2da4:	84478793          	addi	a5,a5,-1980 # 844 <init_charges+0x490>
    2da8:	00f707b3          	add	a5,a4,a5
    2dac:	00004737          	lui	a4,0x4
    2db0:	65070713          	addi	a4,a4,1616 # 4650 <queue_build_event_queue+0x38>
    2db4:	00e7a023          	sw	a4,0(a5)
    2db8:	fec42703          	lw	a4,-20(s0)
    2dbc:	000017b7          	lui	a5,0x1
    2dc0:	84878793          	addi	a5,a5,-1976 # 848 <init_charges+0x494>
    2dc4:	00f707b3          	add	a5,a4,a5
    2dc8:	00005737          	lui	a4,0x5
    2dcc:	e2070713          	addi	a4,a4,-480 # 4e20 <__libc_init_array+0x90>
    2dd0:	00e7a023          	sw	a4,0(a5)
    2dd4:	fec42703          	lw	a4,-20(s0)
    2dd8:	000017b7          	lui	a5,0x1
    2ddc:	84c78793          	addi	a5,a5,-1972 # 84c <init_charges+0x498>
    2de0:	00f707b3          	add	a5,a4,a5
    2de4:	00005737          	lui	a4,0x5
    2de8:	5f070713          	addi	a4,a4,1520 # 55f0 <__errno+0x510>
    2dec:	00e7a023          	sw	a4,0(a5)
    2df0:	fec42703          	lw	a4,-20(s0)
    2df4:	000017b7          	lui	a5,0x1
    2df8:	85078793          	addi	a5,a5,-1968 # 850 <init_charges+0x49c>
    2dfc:	00f707b3          	add	a5,a4,a5
    2e00:	00006737          	lui	a4,0x6
    2e04:	dc070713          	addi	a4,a4,-576 # 5dc0 <__errno+0xce0>
    2e08:	00e7a023          	sw	a4,0(a5)
    2e0c:	fec42703          	lw	a4,-20(s0)
    2e10:	000017b7          	lui	a5,0x1
    2e14:	85478793          	addi	a5,a5,-1964 # 854 <init_charges+0x4a0>
    2e18:	00f707b3          	add	a5,a4,a5
    2e1c:	00006737          	lui	a4,0x6
    2e20:	59070713          	addi	a4,a4,1424 # 6590 <__fini_array_end+0x270>
    2e24:	00e7a023          	sw	a4,0(a5)
    2e28:	fec42703          	lw	a4,-20(s0)
    2e2c:	000017b7          	lui	a5,0x1
    2e30:	85878793          	addi	a5,a5,-1960 # 858 <init_charges+0x4a4>
    2e34:	00f707b3          	add	a5,a4,a5
    2e38:	00007737          	lui	a4,0x7
    2e3c:	97870713          	addi	a4,a4,-1672 # 6978 <queue+0x1dc>
    2e40:	00e7a023          	sw	a4,0(a5)
    2e44:	fec42703          	lw	a4,-20(s0)
    2e48:	000017b7          	lui	a5,0x1
    2e4c:	85c78793          	addi	a5,a5,-1956 # 85c <init_charges+0x4a8>
    2e50:	00f707b3          	add	a5,a4,a5
    2e54:	00007737          	lui	a4,0x7
    2e58:	d6070713          	addi	a4,a4,-672 # 6d60 <__global_pointer$+0xa8>
    2e5c:	00e7a023          	sw	a4,0(a5)
    2e60:	fec42703          	lw	a4,-20(s0)
    2e64:	000017b7          	lui	a5,0x1
    2e68:	86078793          	addi	a5,a5,-1952 # 860 <init_charges+0x4ac>
    2e6c:	00f707b3          	add	a5,a4,a5
    2e70:	00007737          	lui	a4,0x7
    2e74:	53070713          	addi	a4,a4,1328 # 7530 <__BSS_END__+0x78>
    2e78:	00e7a023          	sw	a4,0(a5)
    2e7c:	fec42703          	lw	a4,-20(s0)
    2e80:	000017b7          	lui	a5,0x1
    2e84:	86478793          	addi	a5,a5,-1948 # 864 <init_charges+0x4b0>
    2e88:	00f707b3          	add	a5,a4,a5
    2e8c:	00008737          	lui	a4,0x8
    2e90:	91870713          	addi	a4,a4,-1768 # 7918 <__BSS_END__+0x460>
    2e94:	00e7a023          	sw	a4,0(a5)
    2e98:	fec42703          	lw	a4,-20(s0)
    2e9c:	000017b7          	lui	a5,0x1
    2ea0:	86878793          	addi	a5,a5,-1944 # 868 <init_charges+0x4b4>
    2ea4:	00f707b3          	add	a5,a4,a5
    2ea8:	00008737          	lui	a4,0x8
    2eac:	d0070713          	addi	a4,a4,-768 # 7d00 <__BSS_END__+0x848>
    2eb0:	00e7a023          	sw	a4,0(a5)
    2eb4:	fec42703          	lw	a4,-20(s0)
    2eb8:	000017b7          	lui	a5,0x1
    2ebc:	86c78793          	addi	a5,a5,-1940 # 86c <init_charges+0x4b8>
    2ec0:	00f707b3          	add	a5,a4,a5
    2ec4:	00008737          	lui	a4,0x8
    2ec8:	91870713          	addi	a4,a4,-1768 # 7918 <__BSS_END__+0x460>
    2ecc:	00e7a023          	sw	a4,0(a5)
    2ed0:	fec42703          	lw	a4,-20(s0)
    2ed4:	000017b7          	lui	a5,0x1
    2ed8:	87078793          	addi	a5,a5,-1936 # 870 <init_charges+0x4bc>
    2edc:	00f707b3          	add	a5,a4,a5
    2ee0:	00008737          	lui	a4,0x8
    2ee4:	91870713          	addi	a4,a4,-1768 # 7918 <__BSS_END__+0x460>
    2ee8:	00e7a023          	sw	a4,0(a5)
    2eec:	fec42703          	lw	a4,-20(s0)
    2ef0:	000017b7          	lui	a5,0x1
    2ef4:	87478793          	addi	a5,a5,-1932 # 874 <init_charges+0x4c0>
    2ef8:	00f707b3          	add	a5,a4,a5
    2efc:	00007737          	lui	a4,0x7
    2f00:	53070713          	addi	a4,a4,1328 # 7530 <__BSS_END__+0x78>
    2f04:	00e7a023          	sw	a4,0(a5)
    2f08:	fec42703          	lw	a4,-20(s0)
    2f0c:	000017b7          	lui	a5,0x1
    2f10:	87878793          	addi	a5,a5,-1928 # 878 <init_charges+0x4c4>
    2f14:	00f707b3          	add	a5,a4,a5
    2f18:	00007737          	lui	a4,0x7
    2f1c:	53070713          	addi	a4,a4,1328 # 7530 <__BSS_END__+0x78>
    2f20:	00e7a023          	sw	a4,0(a5)
    2f24:	fec42703          	lw	a4,-20(s0)
    2f28:	000017b7          	lui	a5,0x1
    2f2c:	87c78793          	addi	a5,a5,-1924 # 87c <init_charges+0x4c8>
    2f30:	00f707b3          	add	a5,a4,a5
    2f34:	00007737          	lui	a4,0x7
    2f38:	14870713          	addi	a4,a4,328 # 7148 <__global_pointer$+0x490>
    2f3c:	00e7a023          	sw	a4,0(a5)
    2f40:	fec42703          	lw	a4,-20(s0)
    2f44:	000017b7          	lui	a5,0x1
    2f48:	88078793          	addi	a5,a5,-1920 # 880 <init_charges+0x4cc>
    2f4c:	00f707b3          	add	a5,a4,a5
    2f50:	00007737          	lui	a4,0x7
    2f54:	14870713          	addi	a4,a4,328 # 7148 <__global_pointer$+0x490>
    2f58:	00e7a023          	sw	a4,0(a5)
    2f5c:	fec42703          	lw	a4,-20(s0)
    2f60:	000017b7          	lui	a5,0x1
    2f64:	88478793          	addi	a5,a5,-1916 # 884 <init_charges+0x4d0>
    2f68:	00f707b3          	add	a5,a4,a5
    2f6c:	00007737          	lui	a4,0x7
    2f70:	14870713          	addi	a4,a4,328 # 7148 <__global_pointer$+0x490>
    2f74:	00e7a023          	sw	a4,0(a5)
    2f78:	fec42703          	lw	a4,-20(s0)
    2f7c:	000017b7          	lui	a5,0x1
    2f80:	88878793          	addi	a5,a5,-1912 # 888 <init_charges+0x4d4>
    2f84:	00f707b3          	add	a5,a4,a5
    2f88:	00007737          	lui	a4,0x7
    2f8c:	14870713          	addi	a4,a4,328 # 7148 <__global_pointer$+0x490>
    2f90:	00e7a023          	sw	a4,0(a5)
    2f94:	fec42703          	lw	a4,-20(s0)
    2f98:	000017b7          	lui	a5,0x1
    2f9c:	88c78793          	addi	a5,a5,-1908 # 88c <init_charges+0x4d8>
    2fa0:	00f707b3          	add	a5,a4,a5
    2fa4:	00007737          	lui	a4,0x7
    2fa8:	14870713          	addi	a4,a4,328 # 7148 <__global_pointer$+0x490>
    2fac:	00e7a023          	sw	a4,0(a5)
    2fb0:	fec42703          	lw	a4,-20(s0)
    2fb4:	000017b7          	lui	a5,0x1
    2fb8:	89078793          	addi	a5,a5,-1904 # 890 <init_charges+0x4dc>
    2fbc:	00f707b3          	add	a5,a4,a5
    2fc0:	00007737          	lui	a4,0x7
    2fc4:	14870713          	addi	a4,a4,328 # 7148 <__global_pointer$+0x490>
    2fc8:	00e7a023          	sw	a4,0(a5)
    2fcc:	fec42703          	lw	a4,-20(s0)
    2fd0:	000017b7          	lui	a5,0x1
    2fd4:	89478793          	addi	a5,a5,-1900 # 894 <init_charges+0x4e0>
    2fd8:	00f707b3          	add	a5,a4,a5
    2fdc:	00007737          	lui	a4,0x7
    2fe0:	d6070713          	addi	a4,a4,-672 # 6d60 <__global_pointer$+0xa8>
    2fe4:	00e7a023          	sw	a4,0(a5)
    2fe8:	fec42703          	lw	a4,-20(s0)
    2fec:	000017b7          	lui	a5,0x1
    2ff0:	89878793          	addi	a5,a5,-1896 # 898 <init_charges+0x4e4>
    2ff4:	00f707b3          	add	a5,a4,a5
    2ff8:	00007737          	lui	a4,0x7
    2ffc:	d6070713          	addi	a4,a4,-672 # 6d60 <__global_pointer$+0xa8>
    3000:	00e7a023          	sw	a4,0(a5)
    3004:	fec42703          	lw	a4,-20(s0)
    3008:	000017b7          	lui	a5,0x1
    300c:	89c78793          	addi	a5,a5,-1892 # 89c <init_charges+0x4e8>
    3010:	00f707b3          	add	a5,a4,a5
    3014:	00007737          	lui	a4,0x7
    3018:	97870713          	addi	a4,a4,-1672 # 6978 <queue+0x1dc>
    301c:	00e7a023          	sw	a4,0(a5)
    3020:	fec42703          	lw	a4,-20(s0)
    3024:	000017b7          	lui	a5,0x1
    3028:	8a078793          	addi	a5,a5,-1888 # 8a0 <init_charges+0x4ec>
    302c:	00f707b3          	add	a5,a4,a5
    3030:	00007737          	lui	a4,0x7
    3034:	97870713          	addi	a4,a4,-1672 # 6978 <queue+0x1dc>
    3038:	00e7a023          	sw	a4,0(a5)
    303c:	fec42703          	lw	a4,-20(s0)
    3040:	000017b7          	lui	a5,0x1
    3044:	8a478793          	addi	a5,a5,-1884 # 8a4 <init_charges+0x4f0>
    3048:	00f707b3          	add	a5,a4,a5
    304c:	00007737          	lui	a4,0x7
    3050:	97870713          	addi	a4,a4,-1672 # 6978 <queue+0x1dc>
    3054:	00e7a023          	sw	a4,0(a5)
    3058:	fec42703          	lw	a4,-20(s0)
    305c:	000017b7          	lui	a5,0x1
    3060:	8a878793          	addi	a5,a5,-1880 # 8a8 <init_charges+0x4f4>
    3064:	00f707b3          	add	a5,a4,a5
    3068:	00006737          	lui	a4,0x6
    306c:	1a870713          	addi	a4,a4,424 # 61a8 <__errno+0x10c8>
    3070:	00e7a023          	sw	a4,0(a5)
    3074:	fec42703          	lw	a4,-20(s0)
    3078:	000017b7          	lui	a5,0x1
    307c:	8ac78793          	addi	a5,a5,-1876 # 8ac <init_charges+0x4f8>
    3080:	00f707b3          	add	a5,a4,a5
    3084:	00006737          	lui	a4,0x6
    3088:	dc070713          	addi	a4,a4,-576 # 5dc0 <__errno+0xce0>
    308c:	00e7a023          	sw	a4,0(a5)
    3090:	fec42703          	lw	a4,-20(s0)
    3094:	000017b7          	lui	a5,0x1
    3098:	8b078793          	addi	a5,a5,-1872 # 8b0 <init_charges+0x4fc>
    309c:	00f707b3          	add	a5,a4,a5
    30a0:	00005737          	lui	a4,0x5
    30a4:	5f070713          	addi	a4,a4,1520 # 55f0 <__errno+0x510>
    30a8:	00e7a023          	sw	a4,0(a5)
    30ac:	fec42703          	lw	a4,-20(s0)
    30b0:	000017b7          	lui	a5,0x1
    30b4:	8b478793          	addi	a5,a5,-1868 # 8b4 <init_charges+0x500>
    30b8:	00f707b3          	add	a5,a4,a5
    30bc:	00005737          	lui	a4,0x5
    30c0:	20870713          	addi	a4,a4,520 # 5208 <__errno+0x128>
    30c4:	00e7a023          	sw	a4,0(a5)
    30c8:	fec42703          	lw	a4,-20(s0)
    30cc:	000017b7          	lui	a5,0x1
    30d0:	8b878793          	addi	a5,a5,-1864 # 8b8 <init_charges+0x504>
    30d4:	00f707b3          	add	a5,a4,a5
    30d8:	00005737          	lui	a4,0x5
    30dc:	a3870713          	addi	a4,a4,-1480 # 4a38 <my_main+0x4c>
    30e0:	00e7a023          	sw	a4,0(a5)
    30e4:	fec42703          	lw	a4,-20(s0)
    30e8:	000017b7          	lui	a5,0x1
    30ec:	8bc78793          	addi	a5,a5,-1860 # 8bc <init_charges+0x508>
    30f0:	00f707b3          	add	a5,a4,a5
    30f4:	00005737          	lui	a4,0x5
    30f8:	a3870713          	addi	a4,a4,-1480 # 4a38 <my_main+0x4c>
    30fc:	00e7a023          	sw	a4,0(a5)
    3100:	fec42703          	lw	a4,-20(s0)
    3104:	000017b7          	lui	a5,0x1
    3108:	8c078793          	addi	a5,a5,-1856 # 8c0 <init_charges+0x50c>
    310c:	00f707b3          	add	a5,a4,a5
    3110:	00005737          	lui	a4,0x5
    3114:	a3870713          	addi	a4,a4,-1480 # 4a38 <my_main+0x4c>
    3118:	00e7a023          	sw	a4,0(a5)
    311c:	fec42703          	lw	a4,-20(s0)
    3120:	000017b7          	lui	a5,0x1
    3124:	8c478793          	addi	a5,a5,-1852 # 8c4 <init_charges+0x510>
    3128:	00f707b3          	add	a5,a4,a5
    312c:	00005737          	lui	a4,0x5
    3130:	e2070713          	addi	a4,a4,-480 # 4e20 <__libc_init_array+0x90>
    3134:	00e7a023          	sw	a4,0(a5)
    3138:	fec42703          	lw	a4,-20(s0)
    313c:	000017b7          	lui	a5,0x1
    3140:	8c878793          	addi	a5,a5,-1848 # 8c8 <init_charges+0x514>
    3144:	00f707b3          	add	a5,a4,a5
    3148:	00005737          	lui	a4,0x5
    314c:	e2070713          	addi	a4,a4,-480 # 4e20 <__libc_init_array+0x90>
    3150:	00e7a023          	sw	a4,0(a5)
    3154:	fec42703          	lw	a4,-20(s0)
    3158:	000017b7          	lui	a5,0x1
    315c:	8cc78793          	addi	a5,a5,-1844 # 8cc <init_charges+0x518>
    3160:	00f707b3          	add	a5,a4,a5
    3164:	00005737          	lui	a4,0x5
    3168:	e2070713          	addi	a4,a4,-480 # 4e20 <__libc_init_array+0x90>
    316c:	00e7a023          	sw	a4,0(a5)
    3170:	fec42703          	lw	a4,-20(s0)
    3174:	000017b7          	lui	a5,0x1
    3178:	8d078793          	addi	a5,a5,-1840 # 8d0 <init_charges+0x51c>
    317c:	00f707b3          	add	a5,a4,a5
    3180:	00005737          	lui	a4,0x5
    3184:	e2070713          	addi	a4,a4,-480 # 4e20 <__libc_init_array+0x90>
    3188:	00e7a023          	sw	a4,0(a5)
    318c:	fec42703          	lw	a4,-20(s0)
    3190:	000017b7          	lui	a5,0x1
    3194:	8d478793          	addi	a5,a5,-1836 # 8d4 <init_charges+0x520>
    3198:	00f707b3          	add	a5,a4,a5
    319c:	00005737          	lui	a4,0x5
    31a0:	e2070713          	addi	a4,a4,-480 # 4e20 <__libc_init_array+0x90>
    31a4:	00e7a023          	sw	a4,0(a5)
    31a8:	fec42703          	lw	a4,-20(s0)
    31ac:	000017b7          	lui	a5,0x1
    31b0:	8d878793          	addi	a5,a5,-1832 # 8d8 <init_charges+0x524>
    31b4:	00f707b3          	add	a5,a4,a5
    31b8:	00005737          	lui	a4,0x5
    31bc:	a3870713          	addi	a4,a4,-1480 # 4a38 <my_main+0x4c>
    31c0:	00e7a023          	sw	a4,0(a5)
    31c4:	fec42703          	lw	a4,-20(s0)
    31c8:	000017b7          	lui	a5,0x1
    31cc:	8dc78793          	addi	a5,a5,-1828 # 8dc <init_charges+0x528>
    31d0:	00f707b3          	add	a5,a4,a5
    31d4:	00005737          	lui	a4,0x5
    31d8:	a3870713          	addi	a4,a4,-1480 # 4a38 <my_main+0x4c>
    31dc:	00e7a023          	sw	a4,0(a5)
    31e0:	fec42703          	lw	a4,-20(s0)
    31e4:	000017b7          	lui	a5,0x1
    31e8:	8e078793          	addi	a5,a5,-1824 # 8e0 <init_charges+0x52c>
    31ec:	00f707b3          	add	a5,a4,a5
    31f0:	00005737          	lui	a4,0x5
    31f4:	a3870713          	addi	a4,a4,-1480 # 4a38 <my_main+0x4c>
    31f8:	00e7a023          	sw	a4,0(a5)
    31fc:	fec42703          	lw	a4,-20(s0)
    3200:	000017b7          	lui	a5,0x1
    3204:	8e478793          	addi	a5,a5,-1820 # 8e4 <init_charges+0x530>
    3208:	00f707b3          	add	a5,a4,a5
    320c:	00004737          	lui	a4,0x4
    3210:	65070713          	addi	a4,a4,1616 # 4650 <queue_build_event_queue+0x38>
    3214:	00e7a023          	sw	a4,0(a5)
    3218:	fec42703          	lw	a4,-20(s0)
    321c:	000017b7          	lui	a5,0x1
    3220:	8e878793          	addi	a5,a5,-1816 # 8e8 <init_charges+0x534>
    3224:	00f707b3          	add	a5,a4,a5
    3228:	00004737          	lui	a4,0x4
    322c:	e8070713          	addi	a4,a4,-384 # 3e80 <node_assign_prg+0xc8>
    3230:	00e7a023          	sw	a4,0(a5)
    3234:	fec42703          	lw	a4,-20(s0)
    3238:	000017b7          	lui	a5,0x1
    323c:	8ec78793          	addi	a5,a5,-1812 # 8ec <init_charges+0x538>
    3240:	00f707b3          	add	a5,a4,a5
    3244:	00004737          	lui	a4,0x4
    3248:	a9870713          	addi	a4,a4,-1384 # 3a98 <node_get+0x148>
    324c:	00e7a023          	sw	a4,0(a5)
    3250:	fec42703          	lw	a4,-20(s0)
    3254:	000017b7          	lui	a5,0x1
    3258:	8f078793          	addi	a5,a5,-1808 # 8f0 <init_charges+0x53c>
    325c:	00f707b3          	add	a5,a4,a5
    3260:	00003737          	lui	a4,0x3
    3264:	2c870713          	addi	a4,a4,712 # 32c8 <init_charges+0x2f14>
    3268:	00e7a023          	sw	a4,0(a5)
    326c:	fec42703          	lw	a4,-20(s0)
    3270:	000017b7          	lui	a5,0x1
    3274:	8f478793          	addi	a5,a5,-1804 # 8f4 <init_charges+0x540>
    3278:	00f707b3          	add	a5,a4,a5
    327c:	00003737          	lui	a4,0x3
    3280:	ee070713          	addi	a4,a4,-288 # 2ee0 <init_charges+0x2b2c>
    3284:	00e7a023          	sw	a4,0(a5)
    3288:	fec42703          	lw	a4,-20(s0)
    328c:	000017b7          	lui	a5,0x1
    3290:	8f878793          	addi	a5,a5,-1800 # 8f8 <init_charges+0x544>
    3294:	00f707b3          	add	a5,a4,a5
    3298:	00003737          	lui	a4,0x3
    329c:	ee070713          	addi	a4,a4,-288 # 2ee0 <init_charges+0x2b2c>
    32a0:	00e7a023          	sw	a4,0(a5)
    32a4:	fec42703          	lw	a4,-20(s0)
    32a8:	000017b7          	lui	a5,0x1
    32ac:	8fc78793          	addi	a5,a5,-1796 # 8fc <init_charges+0x548>
    32b0:	00f707b3          	add	a5,a4,a5
    32b4:	00003737          	lui	a4,0x3
    32b8:	ee070713          	addi	a4,a4,-288 # 2ee0 <init_charges+0x2b2c>
    32bc:	00e7a023          	sw	a4,0(a5)
    32c0:	fec42703          	lw	a4,-20(s0)
    32c4:	000017b7          	lui	a5,0x1
    32c8:	90078793          	addi	a5,a5,-1792 # 900 <init_charges+0x54c>
    32cc:	00f707b3          	add	a5,a4,a5
    32d0:	00003737          	lui	a4,0x3
    32d4:	ee070713          	addi	a4,a4,-288 # 2ee0 <init_charges+0x2b2c>
    32d8:	00e7a023          	sw	a4,0(a5)
    32dc:	fec42703          	lw	a4,-20(s0)
    32e0:	000017b7          	lui	a5,0x1
    32e4:	90478793          	addi	a5,a5,-1788 # 904 <init_charges+0x550>
    32e8:	00f707b3          	add	a5,a4,a5
    32ec:	00003737          	lui	a4,0x3
    32f0:	ee070713          	addi	a4,a4,-288 # 2ee0 <init_charges+0x2b2c>
    32f4:	00e7a023          	sw	a4,0(a5)
    32f8:	fec42703          	lw	a4,-20(s0)
    32fc:	000017b7          	lui	a5,0x1
    3300:	90878793          	addi	a5,a5,-1784 # 908 <init_charges+0x554>
    3304:	00f707b3          	add	a5,a4,a5
    3308:	00003737          	lui	a4,0x3
    330c:	ee070713          	addi	a4,a4,-288 # 2ee0 <init_charges+0x2b2c>
    3310:	00e7a023          	sw	a4,0(a5)
    3314:	fec42703          	lw	a4,-20(s0)
    3318:	000017b7          	lui	a5,0x1
    331c:	90c78793          	addi	a5,a5,-1780 # 90c <init_charges+0x558>
    3320:	00f707b3          	add	a5,a4,a5
    3324:	00003737          	lui	a4,0x3
    3328:	af870713          	addi	a4,a4,-1288 # 2af8 <init_charges+0x2744>
    332c:	00e7a023          	sw	a4,0(a5)
    3330:	fec42703          	lw	a4,-20(s0)
    3334:	000017b7          	lui	a5,0x1
    3338:	91078793          	addi	a5,a5,-1776 # 910 <init_charges+0x55c>
    333c:	00f707b3          	add	a5,a4,a5
    3340:	00003737          	lui	a4,0x3
    3344:	af870713          	addi	a4,a4,-1288 # 2af8 <init_charges+0x2744>
    3348:	00e7a023          	sw	a4,0(a5)
    334c:	fec42703          	lw	a4,-20(s0)
    3350:	000017b7          	lui	a5,0x1
    3354:	91478793          	addi	a5,a5,-1772 # 914 <init_charges+0x560>
    3358:	00f707b3          	add	a5,a4,a5
    335c:	00002737          	lui	a4,0x2
    3360:	71070713          	addi	a4,a4,1808 # 2710 <init_charges+0x235c>
    3364:	00e7a023          	sw	a4,0(a5)
    3368:	fec42703          	lw	a4,-20(s0)
    336c:	000017b7          	lui	a5,0x1
    3370:	91878793          	addi	a5,a5,-1768 # 918 <init_charges+0x564>
    3374:	00f707b3          	add	a5,a4,a5
    3378:	00002737          	lui	a4,0x2
    337c:	32870713          	addi	a4,a4,808 # 2328 <init_charges+0x1f74>
    3380:	00e7a023          	sw	a4,0(a5)
    3384:	fec42703          	lw	a4,-20(s0)
    3388:	000017b7          	lui	a5,0x1
    338c:	91c78793          	addi	a5,a5,-1764 # 91c <init_charges+0x568>
    3390:	00f707b3          	add	a5,a4,a5
    3394:	00002737          	lui	a4,0x2
    3398:	32870713          	addi	a4,a4,808 # 2328 <init_charges+0x1f74>
    339c:	00e7a023          	sw	a4,0(a5)
    33a0:	fec42703          	lw	a4,-20(s0)
    33a4:	000017b7          	lui	a5,0x1
    33a8:	92078793          	addi	a5,a5,-1760 # 920 <init_charges+0x56c>
    33ac:	00f707b3          	add	a5,a4,a5
    33b0:	00002737          	lui	a4,0x2
    33b4:	f4070713          	addi	a4,a4,-192 # 1f40 <init_charges+0x1b8c>
    33b8:	00e7a023          	sw	a4,0(a5)
    33bc:	fec42703          	lw	a4,-20(s0)
    33c0:	000017b7          	lui	a5,0x1
    33c4:	92478793          	addi	a5,a5,-1756 # 924 <init_charges+0x570>
    33c8:	00f707b3          	add	a5,a4,a5
    33cc:	00002737          	lui	a4,0x2
    33d0:	b5870713          	addi	a4,a4,-1192 # 1b58 <init_charges+0x17a4>
    33d4:	00e7a023          	sw	a4,0(a5)
    33d8:	fec42703          	lw	a4,-20(s0)
    33dc:	000017b7          	lui	a5,0x1
    33e0:	92878793          	addi	a5,a5,-1752 # 928 <init_charges+0x574>
    33e4:	00f707b3          	add	a5,a4,a5
    33e8:	00001737          	lui	a4,0x1
    33ec:	77070713          	addi	a4,a4,1904 # 1770 <init_charges+0x13bc>
    33f0:	00e7a023          	sw	a4,0(a5)
    33f4:	fec42703          	lw	a4,-20(s0)
    33f8:	000017b7          	lui	a5,0x1
    33fc:	92c78793          	addi	a5,a5,-1748 # 92c <init_charges+0x578>
    3400:	00f707b3          	add	a5,a4,a5
    3404:	00001737          	lui	a4,0x1
    3408:	38870713          	addi	a4,a4,904 # 1388 <init_charges+0xfd4>
    340c:	00e7a023          	sw	a4,0(a5)
    3410:	fec42703          	lw	a4,-20(s0)
    3414:	000017b7          	lui	a5,0x1
    3418:	93078793          	addi	a5,a5,-1744 # 930 <init_charges+0x57c>
    341c:	00f707b3          	add	a5,a4,a5
    3420:	00001737          	lui	a4,0x1
    3424:	fa070713          	addi	a4,a4,-96 # fa0 <init_charges+0xbec>
    3428:	00e7a023          	sw	a4,0(a5)
    342c:	fec42703          	lw	a4,-20(s0)
    3430:	000017b7          	lui	a5,0x1
    3434:	93478793          	addi	a5,a5,-1740 # 934 <init_charges+0x580>
    3438:	00f707b3          	add	a5,a4,a5
    343c:	00001737          	lui	a4,0x1
    3440:	fa070713          	addi	a4,a4,-96 # fa0 <init_charges+0xbec>
    3444:	00e7a023          	sw	a4,0(a5)
    3448:	fec42703          	lw	a4,-20(s0)
    344c:	000017b7          	lui	a5,0x1
    3450:	93878793          	addi	a5,a5,-1736 # 938 <init_charges+0x584>
    3454:	00f707b3          	add	a5,a4,a5
    3458:	00001737          	lui	a4,0x1
    345c:	fa070713          	addi	a4,a4,-96 # fa0 <init_charges+0xbec>
    3460:	00e7a023          	sw	a4,0(a5)
    3464:	fec42703          	lw	a4,-20(s0)
    3468:	000017b7          	lui	a5,0x1
    346c:	93c78793          	addi	a5,a5,-1732 # 93c <init_charges+0x588>
    3470:	00f707b3          	add	a5,a4,a5
    3474:	00001737          	lui	a4,0x1
    3478:	fa070713          	addi	a4,a4,-96 # fa0 <init_charges+0xbec>
    347c:	00e7a023          	sw	a4,0(a5)
    3480:	fec42703          	lw	a4,-20(s0)
    3484:	000017b7          	lui	a5,0x1
    3488:	94078793          	addi	a5,a5,-1728 # 940 <init_charges+0x58c>
    348c:	00f707b3          	add	a5,a4,a5
    3490:	00001737          	lui	a4,0x1
    3494:	fa070713          	addi	a4,a4,-96 # fa0 <init_charges+0xbec>
    3498:	00e7a023          	sw	a4,0(a5)
    349c:	fec42703          	lw	a4,-20(s0)
    34a0:	000017b7          	lui	a5,0x1
    34a4:	94478793          	addi	a5,a5,-1724 # 944 <init_charges+0x590>
    34a8:	00f707b3          	add	a5,a4,a5
    34ac:	00001737          	lui	a4,0x1
    34b0:	fa070713          	addi	a4,a4,-96 # fa0 <init_charges+0xbec>
    34b4:	00e7a023          	sw	a4,0(a5)
    34b8:	fec42703          	lw	a4,-20(s0)
    34bc:	000017b7          	lui	a5,0x1
    34c0:	94878793          	addi	a5,a5,-1720 # 948 <init_charges+0x594>
    34c4:	00f707b3          	add	a5,a4,a5
    34c8:	00001737          	lui	a4,0x1
    34cc:	fa070713          	addi	a4,a4,-96 # fa0 <init_charges+0xbec>
    34d0:	00e7a023          	sw	a4,0(a5)
    34d4:	fec42703          	lw	a4,-20(s0)
    34d8:	000017b7          	lui	a5,0x1
    34dc:	94c78793          	addi	a5,a5,-1716 # 94c <init_charges+0x598>
    34e0:	00f707b3          	add	a5,a4,a5
    34e4:	00001737          	lui	a4,0x1
    34e8:	bb870713          	addi	a4,a4,-1096 # bb8 <init_charges+0x804>
    34ec:	00e7a023          	sw	a4,0(a5)
    34f0:	fec42703          	lw	a4,-20(s0)
    34f4:	000017b7          	lui	a5,0x1
    34f8:	95078793          	addi	a5,a5,-1712 # 950 <init_charges+0x59c>
    34fc:	00f707b3          	add	a5,a4,a5
    3500:	00001737          	lui	a4,0x1
    3504:	bb870713          	addi	a4,a4,-1096 # bb8 <init_charges+0x804>
    3508:	00e7a023          	sw	a4,0(a5)
    350c:	fec42703          	lw	a4,-20(s0)
    3510:	000017b7          	lui	a5,0x1
    3514:	95478793          	addi	a5,a5,-1708 # 954 <init_charges+0x5a0>
    3518:	00f707b3          	add	a5,a4,a5
    351c:	7d000713          	li	a4,2000
    3520:	00e7a023          	sw	a4,0(a5)
    3524:	fec42703          	lw	a4,-20(s0)
    3528:	000017b7          	lui	a5,0x1
    352c:	95878793          	addi	a5,a5,-1704 # 958 <init_charges+0x5a4>
    3530:	00f707b3          	add	a5,a4,a5
    3534:	3e800713          	li	a4,1000
    3538:	00e7a023          	sw	a4,0(a5)
    353c:	00000013          	nop
    3540:	01c12403          	lw	s0,28(sp)
    3544:	02010113          	addi	sp,sp,32
    3548:	00008067          	ret

0000354c <signal_fin>:
    354c:	ff010113          	addi	sp,sp,-16
    3550:	00812623          	sw	s0,12(sp)
    3554:	01010413          	addi	s0,sp,16
    3558:	010007b7          	lui	a5,0x1000
    355c:	ffc78793          	addi	a5,a5,-4 # fffffc <__BSS_END__+0xff8b44>
    3560:	01000737          	lui	a4,0x1000
    3564:	ffc70713          	addi	a4,a4,-4 # fffffc <__BSS_END__+0xff8b44>
    3568:	00e7a023          	sw	a4,0(a5)
    356c:	00000013          	nop
    3570:	00c12403          	lw	s0,12(sp)
    3574:	01010113          	addi	sp,sp,16
    3578:	00008067          	ret

0000357c <signal_kill_sim>:
    357c:	ff010113          	addi	sp,sp,-16
    3580:	00112623          	sw	ra,12(sp)
    3584:	00812423          	sw	s0,8(sp)
    3588:	01010413          	addi	s0,sp,16
    358c:	00400513          	li	a0,4
    3590:	018000ef          	jal	ra,35a8 <print_char>
    3594:	00000013          	nop
    3598:	00c12083          	lw	ra,12(sp)
    359c:	00812403          	lw	s0,8(sp)
    35a0:	01010113          	addi	sp,sp,16
    35a4:	00008067          	ret

000035a8 <print_char>:
    35a8:	fe010113          	addi	sp,sp,-32
    35ac:	00812e23          	sw	s0,28(sp)
    35b0:	02010413          	addi	s0,sp,32
    35b4:	00050793          	mv	a5,a0
    35b8:	fef407a3          	sb	a5,-17(s0)
    35bc:	00000013          	nop
    35c0:	01c12403          	lw	s0,28(sp)
    35c4:	02010113          	addi	sp,sp,32
    35c8:	00008067          	ret

000035cc <print_str_str_n>:
    35cc:	fe010113          	addi	sp,sp,-32
    35d0:	00812e23          	sw	s0,28(sp)
    35d4:	02010413          	addi	s0,sp,32
    35d8:	fea42623          	sw	a0,-20(s0)
    35dc:	feb42423          	sw	a1,-24(s0)
    35e0:	01c0006f          	j	35fc <print_str_str_n+0x30>
    35e4:	fec42783          	lw	a5,-20(s0)
    35e8:	00178713          	addi	a4,a5,1
    35ec:	fee42623          	sw	a4,-20(s0)
    35f0:	0007c703          	lbu	a4,0(a5)
    35f4:	00000793          	li	a5,0
    35f8:	00e7a023          	sw	a4,0(a5)
    35fc:	fec42783          	lw	a5,-20(s0)
    3600:	0007c783          	lbu	a5,0(a5)
    3604:	fe0790e3          	bnez	a5,35e4 <print_str_str_n+0x18>
    3608:	00000713          	li	a4,0
    360c:	00900793          	li	a5,9
    3610:	00f72023          	sw	a5,0(a4)
    3614:	01c0006f          	j	3630 <print_str_str_n+0x64>
    3618:	fe842783          	lw	a5,-24(s0)
    361c:	00178713          	addi	a4,a5,1
    3620:	fee42423          	sw	a4,-24(s0)
    3624:	0007c703          	lbu	a4,0(a5)
    3628:	00000793          	li	a5,0
    362c:	00e7a023          	sw	a4,0(a5)
    3630:	fe842783          	lw	a5,-24(s0)
    3634:	0007c783          	lbu	a5,0(a5)
    3638:	fe0790e3          	bnez	a5,3618 <print_str_str_n+0x4c>
    363c:	00000713          	li	a4,0
    3640:	00a00793          	li	a5,10
    3644:	00f72023          	sw	a5,0(a4)
    3648:	00000013          	nop
    364c:	01c12403          	lw	s0,28(sp)
    3650:	02010113          	addi	sp,sp,32
    3654:	00008067          	ret

00003658 <print_str_dec_n>:
    3658:	fd010113          	addi	sp,sp,-48
    365c:	02812623          	sw	s0,44(sp)
    3660:	03010413          	addi	s0,sp,48
    3664:	fca42e23          	sw	a0,-36(s0)
    3668:	fcb42c23          	sw	a1,-40(s0)
    366c:	01c0006f          	j	3688 <print_str_dec_n+0x30>
    3670:	fdc42783          	lw	a5,-36(s0)
    3674:	00178713          	addi	a4,a5,1
    3678:	fce42e23          	sw	a4,-36(s0)
    367c:	0007c703          	lbu	a4,0(a5)
    3680:	00000793          	li	a5,0
    3684:	00e7a023          	sw	a4,0(a5)
    3688:	fdc42783          	lw	a5,-36(s0)
    368c:	0007c783          	lbu	a5,0(a5)
    3690:	fe0790e3          	bnez	a5,3670 <print_str_dec_n+0x18>
    3694:	fe040793          	addi	a5,s0,-32
    3698:	fef42623          	sw	a5,-20(s0)
    369c:	0340006f          	j	36d0 <print_str_dec_n+0x78>
    36a0:	fd842703          	lw	a4,-40(s0)
    36a4:	00a00793          	li	a5,10
    36a8:	02f776b3          	remu	a3,a4,a5
    36ac:	fec42783          	lw	a5,-20(s0)
    36b0:	00178713          	addi	a4,a5,1
    36b4:	fee42623          	sw	a4,-20(s0)
    36b8:	0ff6f713          	andi	a4,a3,255
    36bc:	00e78023          	sb	a4,0(a5)
    36c0:	fd842703          	lw	a4,-40(s0)
    36c4:	00a00793          	li	a5,10
    36c8:	02f757b3          	divu	a5,a4,a5
    36cc:	fcf42c23          	sw	a5,-40(s0)
    36d0:	fd842783          	lw	a5,-40(s0)
    36d4:	fc0796e3          	bnez	a5,36a0 <print_str_dec_n+0x48>
    36d8:	fe040793          	addi	a5,s0,-32
    36dc:	fec42703          	lw	a4,-20(s0)
    36e0:	fcf700e3          	beq	a4,a5,36a0 <print_str_dec_n+0x48>
    36e4:	0240006f          	j	3708 <print_str_dec_n+0xb0>
    36e8:	fec42783          	lw	a5,-20(s0)
    36ec:	fff78793          	addi	a5,a5,-1
    36f0:	fef42623          	sw	a5,-20(s0)
    36f4:	fec42783          	lw	a5,-20(s0)
    36f8:	0007c783          	lbu	a5,0(a5)
    36fc:	00000713          	li	a4,0
    3700:	03078793          	addi	a5,a5,48
    3704:	00f72023          	sw	a5,0(a4)
    3708:	fe040793          	addi	a5,s0,-32
    370c:	fec42703          	lw	a4,-20(s0)
    3710:	fcf71ce3          	bne	a4,a5,36e8 <print_str_dec_n+0x90>
    3714:	00000713          	li	a4,0
    3718:	00a00793          	li	a5,10
    371c:	00f72023          	sw	a5,0(a4)
    3720:	00000013          	nop
    3724:	02c12403          	lw	s0,44(sp)
    3728:	03010113          	addi	sp,sp,48
    372c:	00008067          	ret

00003730 <print_str>:
    3730:	fe010113          	addi	sp,sp,-32
    3734:	00812e23          	sw	s0,28(sp)
    3738:	02010413          	addi	s0,sp,32
    373c:	fea42623          	sw	a0,-20(s0)
    3740:	00000013          	nop
    3744:	01c12403          	lw	s0,28(sp)
    3748:	02010113          	addi	sp,sp,32
    374c:	00008067          	ret

00003750 <print_str_n>:
    3750:	fe010113          	addi	sp,sp,-32
    3754:	00812e23          	sw	s0,28(sp)
    3758:	02010413          	addi	s0,sp,32
    375c:	fea42623          	sw	a0,-20(s0)
    3760:	01c0006f          	j	377c <print_str_n+0x2c>
    3764:	fec42783          	lw	a5,-20(s0)
    3768:	00178713          	addi	a4,a5,1
    376c:	fee42623          	sw	a4,-20(s0)
    3770:	0007c703          	lbu	a4,0(a5)
    3774:	00000793          	li	a5,0
    3778:	00e7a023          	sw	a4,0(a5)
    377c:	fec42783          	lw	a5,-20(s0)
    3780:	0007c783          	lbu	a5,0(a5)
    3784:	fe0790e3          	bnez	a5,3764 <print_str_n+0x14>
    3788:	00000713          	li	a4,0
    378c:	00a00793          	li	a5,10
    3790:	00f72023          	sw	a5,0(a4)
    3794:	00000013          	nop
    3798:	01c12403          	lw	s0,28(sp)
    379c:	02010113          	addi	sp,sp,32
    37a0:	00008067          	ret

000037a4 <print_dec_n>:
    37a4:	fd010113          	addi	sp,sp,-48
    37a8:	02812623          	sw	s0,44(sp)
    37ac:	03010413          	addi	s0,sp,48
    37b0:	fca42e23          	sw	a0,-36(s0)
    37b4:	fe040793          	addi	a5,s0,-32
    37b8:	fef42623          	sw	a5,-20(s0)
    37bc:	0340006f          	j	37f0 <print_dec_n+0x4c>
    37c0:	fdc42703          	lw	a4,-36(s0)
    37c4:	00a00793          	li	a5,10
    37c8:	02f776b3          	remu	a3,a4,a5
    37cc:	fec42783          	lw	a5,-20(s0)
    37d0:	00178713          	addi	a4,a5,1
    37d4:	fee42623          	sw	a4,-20(s0)
    37d8:	0ff6f713          	andi	a4,a3,255
    37dc:	00e78023          	sb	a4,0(a5)
    37e0:	fdc42703          	lw	a4,-36(s0)
    37e4:	00a00793          	li	a5,10
    37e8:	02f757b3          	divu	a5,a4,a5
    37ec:	fcf42e23          	sw	a5,-36(s0)
    37f0:	fdc42783          	lw	a5,-36(s0)
    37f4:	fc0796e3          	bnez	a5,37c0 <print_dec_n+0x1c>
    37f8:	fe040793          	addi	a5,s0,-32
    37fc:	fec42703          	lw	a4,-20(s0)
    3800:	fcf700e3          	beq	a4,a5,37c0 <print_dec_n+0x1c>
    3804:	0240006f          	j	3828 <print_dec_n+0x84>
    3808:	fec42783          	lw	a5,-20(s0)
    380c:	fff78793          	addi	a5,a5,-1
    3810:	fef42623          	sw	a5,-20(s0)
    3814:	fec42783          	lw	a5,-20(s0)
    3818:	0007c783          	lbu	a5,0(a5)
    381c:	00000713          	li	a4,0
    3820:	03078793          	addi	a5,a5,48
    3824:	00f72023          	sw	a5,0(a4)
    3828:	fe040793          	addi	a5,s0,-32
    382c:	fec42703          	lw	a4,-20(s0)
    3830:	fcf71ce3          	bne	a4,a5,3808 <print_dec_n+0x64>
    3834:	00000713          	li	a4,0
    3838:	00a00793          	li	a5,10
    383c:	00f72023          	sw	a5,0(a4)
    3840:	00000013          	nop
    3844:	02c12403          	lw	s0,44(sp)
    3848:	03010113          	addi	sp,sp,48
    384c:	00008067          	ret

00003850 <print_dec>:
    3850:	fe010113          	addi	sp,sp,-32
    3854:	00812e23          	sw	s0,28(sp)
    3858:	02010413          	addi	s0,sp,32
    385c:	fea42623          	sw	a0,-20(s0)
    3860:	00000013          	nop
    3864:	01c12403          	lw	s0,28(sp)
    3868:	02010113          	addi	sp,sp,32
    386c:	00008067          	ret

00003870 <print_hex>:
    3870:	fe010113          	addi	sp,sp,-32
    3874:	00812e23          	sw	s0,28(sp)
    3878:	02010413          	addi	s0,sp,32
    387c:	fea42623          	sw	a0,-20(s0)
    3880:	feb42423          	sw	a1,-24(s0)
    3884:	00000013          	nop
    3888:	01c12403          	lw	s0,28(sp)
    388c:	02010113          	addi	sp,sp,32
    3890:	00008067          	ret

00003894 <print_bin>:
    3894:	fd010113          	addi	sp,sp,-48
    3898:	02812623          	sw	s0,44(sp)
    389c:	03010413          	addi	s0,sp,48
    38a0:	fca42e23          	sw	a0,-36(s0)
    38a4:	fcb42c23          	sw	a1,-40(s0)
    38a8:	fd842783          	lw	a5,-40(s0)
    38ac:	fff78793          	addi	a5,a5,-1
    38b0:	fef42623          	sw	a5,-20(s0)
    38b4:	0300006f          	j	38e4 <print_bin+0x50>
    38b8:	fec42783          	lw	a5,-20(s0)
    38bc:	fdc42703          	lw	a4,-36(s0)
    38c0:	00f757b3          	srl	a5,a4,a5
    38c4:	0ff7f793          	andi	a5,a5,255
    38c8:	0017f793          	andi	a5,a5,1
    38cc:	00000713          	li	a4,0
    38d0:	03078793          	addi	a5,a5,48
    38d4:	00f72023          	sw	a5,0(a4)
    38d8:	fec42783          	lw	a5,-20(s0)
    38dc:	fff78793          	addi	a5,a5,-1
    38e0:	fef42623          	sw	a5,-20(s0)
    38e4:	fec42783          	lw	a5,-20(s0)
    38e8:	fc07d8e3          	bgez	a5,38b8 <print_bin+0x24>
    38ec:	00000713          	li	a4,0
    38f0:	00a00793          	li	a5,10
    38f4:	00f72023          	sw	a5,0(a4)
    38f8:	00000013          	nop
    38fc:	02c12403          	lw	s0,44(sp)
    3900:	03010113          	addi	sp,sp,48
    3904:	00008067          	ret

00003908 <nl>:
    3908:	ff010113          	addi	sp,sp,-16
    390c:	00812623          	sw	s0,12(sp)
    3910:	01010413          	addi	s0,sp,16
    3914:	00000013          	nop
    3918:	00c12403          	lw	s0,12(sp)
    391c:	01010113          	addi	sp,sp,16
    3920:	00008067          	ret

00003924 <emb_assert>:
    3924:	fe010113          	addi	sp,sp,-32
    3928:	00812e23          	sw	s0,28(sp)
    392c:	02010413          	addi	s0,sp,32
    3930:	fea42623          	sw	a0,-20(s0)
    3934:	feb42423          	sw	a1,-24(s0)
    3938:	fec42223          	sw	a2,-28(s0)
    393c:	00100073          	ebreak
    3940:	00000013          	nop
    3944:	01c12403          	lw	s0,28(sp)
    3948:	02010113          	addi	sp,sp,32
    394c:	00008067          	ret

00003950 <node_get>:
    3950:	fc010113          	addi	sp,sp,-64
    3954:	02112e23          	sw	ra,60(sp)
    3958:	02812c23          	sw	s0,56(sp)
    395c:	04010413          	addi	s0,sp,64
    3960:	fca42623          	sw	a0,-52(s0)
    3964:	fcb42423          	sw	a1,-56(s0)
    3968:	800007b7          	lui	a5,0x80000
    396c:	10078793          	addi	a5,a5,256 # 80000100 <__BSS_END__+0x7fff8c48>
    3970:	0007a783          	lw	a5,0(a5)
    3974:	fef42023          	sw	a5,-32(s0)
    3978:	fe042783          	lw	a5,-32(s0)
    397c:	fff7c793          	not	a5,a5
    3980:	fef42023          	sw	a5,-32(s0)
    3984:	fe042783          	lw	a5,-32(s0)
    3988:	0037f793          	andi	a5,a5,3
    398c:	fef42023          	sw	a5,-32(s0)
    3990:	fe042623          	sw	zero,-20(s0)
    3994:	fe042423          	sw	zero,-24(s0)
    3998:	fc042e23          	sw	zero,-36(s0)
    399c:	fe042223          	sw	zero,-28(s0)
    39a0:	fe042223          	sw	zero,-28(s0)
    39a4:	1b40006f          	j	3b58 <node_get+0x208>
    39a8:	fe442783          	lw	a5,-28(s0)
    39ac:	00279793          	slli	a5,a5,0x2
    39b0:	fcc42703          	lw	a4,-52(s0)
    39b4:	00f707b3          	add	a5,a4,a5
    39b8:	0007a783          	lw	a5,0(a5)
    39bc:	fcf42e23          	sw	a5,-36(s0)
    39c0:	fe442783          	lw	a5,-28(s0)
    39c4:	00078593          	mv	a1,a5
    39c8:	000057b7          	lui	a5,0x5
    39cc:	0f878513          	addi	a0,a5,248 # 50f8 <__errno+0x18>
    39d0:	c89ff0ef          	jal	ra,3658 <print_str_dec_n>
    39d4:	fe442783          	lw	a5,-28(s0)
    39d8:	00279793          	slli	a5,a5,0x2
    39dc:	fcc42703          	lw	a4,-52(s0)
    39e0:	00f707b3          	add	a5,a4,a5
    39e4:	0007a783          	lw	a5,0(a5)
    39e8:	00078593          	mv	a1,a5
    39ec:	000057b7          	lui	a5,0x5
    39f0:	10c78513          	addi	a0,a5,268 # 510c <__errno+0x2c>
    39f4:	c65ff0ef          	jal	ra,3658 <print_str_dec_n>
    39f8:	fdc42783          	lw	a5,-36(s0)
    39fc:	00078593          	mv	a1,a5
    3a00:	000057b7          	lui	a5,0x5
    3a04:	11c78513          	addi	a0,a5,284 # 511c <__errno+0x3c>
    3a08:	c51ff0ef          	jal	ra,3658 <print_str_dec_n>
    3a0c:	fdc42703          	lw	a4,-36(s0)
    3a10:	00371713          	slli	a4,a4,0x3
    3a14:	e9418793          	addi	a5,gp,-364 # 6b4c <archs>
    3a18:	00f707b3          	add	a5,a4,a5
    3a1c:	0007a783          	lw	a5,0(a5)
    3a20:	00078593          	mv	a1,a5
    3a24:	000057b7          	lui	a5,0x5
    3a28:	12478513          	addi	a0,a5,292 # 5124 <__errno+0x44>
    3a2c:	c2dff0ef          	jal	ra,3658 <print_str_dec_n>
    3a30:	fdc42703          	lw	a4,-36(s0)
    3a34:	00371713          	slli	a4,a4,0x3
    3a38:	e9418793          	addi	a5,gp,-364 # 6b4c <archs>
    3a3c:	00f707b3          	add	a5,a4,a5
    3a40:	0007a783          	lw	a5,0(a5)
    3a44:	00800593          	li	a1,8
    3a48:	00078513          	mv	a0,a5
    3a4c:	e49ff0ef          	jal	ra,3894 <print_bin>
    3a50:	fe042783          	lw	a5,-32(s0)
    3a54:	00800593          	li	a1,8
    3a58:	00078513          	mv	a0,a5
    3a5c:	e39ff0ef          	jal	ra,3894 <print_bin>
    3a60:	fdc42703          	lw	a4,-36(s0)
    3a64:	00371713          	slli	a4,a4,0x3
    3a68:	e9418793          	addi	a5,gp,-364 # 6b4c <archs>
    3a6c:	00f707b3          	add	a5,a4,a5
    3a70:	0007a703          	lw	a4,0(a5)
    3a74:	fe042783          	lw	a5,-32(s0)
    3a78:	00f777b3          	and	a5,a4,a5
    3a7c:	fef42623          	sw	a5,-20(s0)
    3a80:	fe042423          	sw	zero,-24(s0)
    3a84:	fec42783          	lw	a5,-20(s0)
    3a88:	00078593          	mv	a1,a5
    3a8c:	000057b7          	lui	a5,0x5
    3a90:	13078513          	addi	a0,a5,304 # 5130 <__errno+0x50>
    3a94:	bc5ff0ef          	jal	ra,3658 <print_str_dec_n>
    3a98:	0ac0006f          	j	3b44 <node_get+0x1f4>
    3a9c:	fec42783          	lw	a5,-20(s0)
    3aa0:	0017f793          	andi	a5,a5,1
    3aa4:	08078463          	beqz	a5,3b2c <node_get+0x1dc>
    3aa8:	fe842703          	lw	a4,-24(s0)
    3aac:	e6418693          	addi	a3,gp,-412 # 6b1c <nodes>
    3ab0:	00070793          	mv	a5,a4
    3ab4:	00179793          	slli	a5,a5,0x1
    3ab8:	00e787b3          	add	a5,a5,a4
    3abc:	00379793          	slli	a5,a5,0x3
    3ac0:	00f687b3          	add	a5,a3,a5
    3ac4:	0147a683          	lw	a3,20(a5)
    3ac8:	fc842703          	lw	a4,-56(s0)
    3acc:	00070793          	mv	a5,a4
    3ad0:	00179793          	slli	a5,a5,0x1
    3ad4:	00e787b3          	add	a5,a5,a4
    3ad8:	00279793          	slli	a5,a5,0x2
    3adc:	fdc42703          	lw	a4,-36(s0)
    3ae0:	00e787b3          	add	a5,a5,a4
    3ae4:	00478793          	addi	a5,a5,4
    3ae8:	e0418713          	addi	a4,gp,-508 # 6abc <prgs>
    3aec:	00279793          	slli	a5,a5,0x2
    3af0:	00f707b3          	add	a5,a4,a5
    3af4:	00c7a783          	lw	a5,12(a5)
    3af8:	02d7f063          	bgeu	a5,a3,3b18 <node_get+0x1c8>
    3afc:	fe842783          	lw	a5,-24(s0)
    3b00:	00078593          	mv	a1,a5
    3b04:	000057b7          	lui	a5,0x5
    3b08:	14478513          	addi	a0,a5,324 # 5144 <__errno+0x64>
    3b0c:	b4dff0ef          	jal	ra,3658 <print_str_dec_n>
    3b10:	fe842783          	lw	a5,-24(s0)
    3b14:	0540006f          	j	3b68 <node_get+0x218>
    3b18:	fe842783          	lw	a5,-24(s0)
    3b1c:	00078593          	mv	a1,a5
    3b20:	000057b7          	lui	a5,0x5
    3b24:	15478513          	addi	a0,a5,340 # 5154 <__errno+0x74>
    3b28:	b31ff0ef          	jal	ra,3658 <print_str_dec_n>
    3b2c:	fe842783          	lw	a5,-24(s0)
    3b30:	00178793          	addi	a5,a5,1
    3b34:	fef42423          	sw	a5,-24(s0)
    3b38:	fec42783          	lw	a5,-20(s0)
    3b3c:	4017d793          	srai	a5,a5,0x1
    3b40:	fef42623          	sw	a5,-20(s0)
    3b44:	fec42783          	lw	a5,-20(s0)
    3b48:	f4079ae3          	bnez	a5,3a9c <node_get+0x14c>
    3b4c:	fe442783          	lw	a5,-28(s0)
    3b50:	00178793          	addi	a5,a5,1
    3b54:	fef42223          	sw	a5,-28(s0)
    3b58:	fe442703          	lw	a4,-28(s0)
    3b5c:	00100793          	li	a5,1
    3b60:	e4e7d4e3          	bge	a5,a4,39a8 <node_get+0x58>
    3b64:	fff00793          	li	a5,-1
    3b68:	00078513          	mv	a0,a5
    3b6c:	03c12083          	lw	ra,60(sp)
    3b70:	03812403          	lw	s0,56(sp)
    3b74:	04010113          	addi	sp,sp,64
    3b78:	00008067          	ret

00003b7c <nodes_charge>:
    3b7c:	fd010113          	addi	sp,sp,-48
    3b80:	02112623          	sw	ra,44(sp)
    3b84:	02812423          	sw	s0,40(sp)
    3b88:	03010413          	addi	s0,sp,48
    3b8c:	fca42e23          	sw	a0,-36(s0)
    3b90:	fe042623          	sw	zero,-20(s0)
    3b94:	fe042623          	sw	zero,-20(s0)
    3b98:	0580006f          	j	3bf0 <nodes_charge+0x74>
    3b9c:	fec42703          	lw	a4,-20(s0)
    3ba0:	e6418693          	addi	a3,gp,-412 # 6b1c <nodes>
    3ba4:	00070793          	mv	a5,a4
    3ba8:	00179793          	slli	a5,a5,0x1
    3bac:	00e787b3          	add	a5,a5,a4
    3bb0:	00379793          	slli	a5,a5,0x3
    3bb4:	00f687b3          	add	a5,a3,a5
    3bb8:	0147a703          	lw	a4,20(a5)
    3bbc:	fdc42783          	lw	a5,-36(s0)
    3bc0:	00f706b3          	add	a3,a4,a5
    3bc4:	fec42703          	lw	a4,-20(s0)
    3bc8:	e6418613          	addi	a2,gp,-412 # 6b1c <nodes>
    3bcc:	00070793          	mv	a5,a4
    3bd0:	00179793          	slli	a5,a5,0x1
    3bd4:	00e787b3          	add	a5,a5,a4
    3bd8:	00379793          	slli	a5,a5,0x3
    3bdc:	00f607b3          	add	a5,a2,a5
    3be0:	00d7aa23          	sw	a3,20(a5)
    3be4:	fec42783          	lw	a5,-20(s0)
    3be8:	00178793          	addi	a5,a5,1
    3bec:	fef42623          	sw	a5,-20(s0)
    3bf0:	fec42703          	lw	a4,-20(s0)
    3bf4:	00100793          	li	a5,1
    3bf8:	fae7d2e3          	bge	a5,a4,3b9c <nodes_charge+0x20>
    3bfc:	fdc42583          	lw	a1,-36(s0)
    3c00:	000057b7          	lui	a5,0x5
    3c04:	17078513          	addi	a0,a5,368 # 5170 <__errno+0x90>
    3c08:	0ec000ef          	jal	ra,3cf4 <nodes_report_charges>
    3c0c:	00000013          	nop
    3c10:	02c12083          	lw	ra,44(sp)
    3c14:	02812403          	lw	s0,40(sp)
    3c18:	03010113          	addi	sp,sp,48
    3c1c:	00008067          	ret

00003c20 <node_discharge>:
    3c20:	fd010113          	addi	sp,sp,-48
    3c24:	02112623          	sw	ra,44(sp)
    3c28:	02812423          	sw	s0,40(sp)
    3c2c:	03010413          	addi	s0,sp,48
    3c30:	fca42e23          	sw	a0,-36(s0)
    3c34:	fcb42c23          	sw	a1,-40(s0)
    3c38:	fdc42703          	lw	a4,-36(s0)
    3c3c:	e6418693          	addi	a3,gp,-412 # 6b1c <nodes>
    3c40:	00070793          	mv	a5,a4
    3c44:	00179793          	slli	a5,a5,0x1
    3c48:	00e787b3          	add	a5,a5,a4
    3c4c:	00379793          	slli	a5,a5,0x3
    3c50:	00f687b3          	add	a5,a3,a5
    3c54:	0047a603          	lw	a2,4(a5)
    3c58:	fd842703          	lw	a4,-40(s0)
    3c5c:	00070793          	mv	a5,a4
    3c60:	00179793          	slli	a5,a5,0x1
    3c64:	00e787b3          	add	a5,a5,a4
    3c68:	00279793          	slli	a5,a5,0x2
    3c6c:	00c787b3          	add	a5,a5,a2
    3c70:	00478793          	addi	a5,a5,4
    3c74:	e0418713          	addi	a4,gp,-508 # 6abc <prgs>
    3c78:	00279793          	slli	a5,a5,0x2
    3c7c:	00f707b3          	add	a5,a4,a5
    3c80:	00c7a783          	lw	a5,12(a5)
    3c84:	fef42623          	sw	a5,-20(s0)
    3c88:	fdc42703          	lw	a4,-36(s0)
    3c8c:	e6418693          	addi	a3,gp,-412 # 6b1c <nodes>
    3c90:	00070793          	mv	a5,a4
    3c94:	00179793          	slli	a5,a5,0x1
    3c98:	00e787b3          	add	a5,a5,a4
    3c9c:	00379793          	slli	a5,a5,0x3
    3ca0:	00f687b3          	add	a5,a3,a5
    3ca4:	0147a703          	lw	a4,20(a5)
    3ca8:	fec42783          	lw	a5,-20(s0)
    3cac:	40f706b3          	sub	a3,a4,a5
    3cb0:	fdc42703          	lw	a4,-36(s0)
    3cb4:	e6418613          	addi	a2,gp,-412 # 6b1c <nodes>
    3cb8:	00070793          	mv	a5,a4
    3cbc:	00179793          	slli	a5,a5,0x1
    3cc0:	00e787b3          	add	a5,a5,a4
    3cc4:	00379793          	slli	a5,a5,0x3
    3cc8:	00f607b3          	add	a5,a2,a5
    3ccc:	00d7aa23          	sw	a3,20(a5)
    3cd0:	fec42583          	lw	a1,-20(s0)
    3cd4:	000057b7          	lui	a5,0x5
    3cd8:	17c78513          	addi	a0,a5,380 # 517c <__errno+0x9c>
    3cdc:	018000ef          	jal	ra,3cf4 <nodes_report_charges>
    3ce0:	00000013          	nop
    3ce4:	02c12083          	lw	ra,44(sp)
    3ce8:	02812403          	lw	s0,40(sp)
    3cec:	03010113          	addi	sp,sp,48
    3cf0:	00008067          	ret

00003cf4 <nodes_report_charges>:
    3cf4:	fd010113          	addi	sp,sp,-48
    3cf8:	02812623          	sw	s0,44(sp)
    3cfc:	03010413          	addi	s0,sp,48
    3d00:	fca42e23          	sw	a0,-36(s0)
    3d04:	fcb42c23          	sw	a1,-40(s0)
    3d08:	fe042623          	sw	zero,-20(s0)
    3d0c:	fe042623          	sw	zero,-20(s0)
    3d10:	0100006f          	j	3d20 <nodes_report_charges+0x2c>
    3d14:	fec42783          	lw	a5,-20(s0)
    3d18:	00178793          	addi	a5,a5,1
    3d1c:	fef42623          	sw	a5,-20(s0)
    3d20:	fec42703          	lw	a4,-20(s0)
    3d24:	00100793          	li	a5,1
    3d28:	fee7d6e3          	bge	a5,a4,3d14 <nodes_report_charges+0x20>
    3d2c:	00000013          	nop
    3d30:	02c12403          	lw	s0,44(sp)
    3d34:	03010113          	addi	sp,sp,48
    3d38:	00008067          	ret

00003d3c <get_finished_nodes>:
    3d3c:	fd010113          	addi	sp,sp,-48
    3d40:	02812623          	sw	s0,44(sp)
    3d44:	03010413          	addi	s0,sp,48
    3d48:	fca42e23          	sw	a0,-36(s0)
    3d4c:	800007b7          	lui	a5,0x80000
    3d50:	10078793          	addi	a5,a5,256 # 80000100 <__BSS_END__+0x7fff8c48>
    3d54:	0007a783          	lw	a5,0(a5)
    3d58:	fef42623          	sw	a5,-20(s0)
    3d5c:	fec42703          	lw	a4,-20(s0)
    3d60:	fdc42783          	lw	a5,-36(s0)
    3d64:	00f747b3          	xor	a5,a4,a5
    3d68:	fef42423          	sw	a5,-24(s0)
    3d6c:	fe842783          	lw	a5,-24(s0)
    3d70:	00078513          	mv	a0,a5
    3d74:	02c12403          	lw	s0,44(sp)
    3d78:	03010113          	addi	sp,sp,48
    3d7c:	00008067          	ret

00003d80 <node_set_busy>:
    3d80:	fe010113          	addi	sp,sp,-32
    3d84:	00812e23          	sw	s0,28(sp)
    3d88:	02010413          	addi	s0,sp,32
    3d8c:	fea42623          	sw	a0,-20(s0)
    3d90:	fec42783          	lw	a5,-20(s0)
    3d94:	00100713          	li	a4,1
    3d98:	00f71733          	sll	a4,a4,a5
    3d9c:	ab41a783          	lw	a5,-1356(gp) # 676c <nodes_busy>
    3da0:	00f76733          	or	a4,a4,a5
    3da4:	aae1aa23          	sw	a4,-1356(gp) # 676c <nodes_busy>
    3da8:	00000013          	nop
    3dac:	01c12403          	lw	s0,28(sp)
    3db0:	02010113          	addi	sp,sp,32
    3db4:	00008067          	ret

00003db8 <node_assign_prg>:
    3db8:	fe010113          	addi	sp,sp,-32
    3dbc:	00112e23          	sw	ra,28(sp)
    3dc0:	00812c23          	sw	s0,24(sp)
    3dc4:	02010413          	addi	s0,sp,32
    3dc8:	fea42623          	sw	a0,-20(s0)
    3dcc:	feb42423          	sw	a1,-24(s0)
    3dd0:	fec42703          	lw	a4,-20(s0)
    3dd4:	e6418693          	addi	a3,gp,-412 # 6b1c <nodes>
    3dd8:	00070793          	mv	a5,a4
    3ddc:	00179793          	slli	a5,a5,0x1
    3de0:	00e787b3          	add	a5,a5,a4
    3de4:	00379793          	slli	a5,a5,0x3
    3de8:	00f687b3          	add	a5,a3,a5
    3dec:	0047a603          	lw	a2,4(a5)
    3df0:	fec42703          	lw	a4,-20(s0)
    3df4:	e6418693          	addi	a3,gp,-412 # 6b1c <nodes>
    3df8:	00070793          	mv	a5,a4
    3dfc:	00179793          	slli	a5,a5,0x1
    3e00:	00e787b3          	add	a5,a5,a4
    3e04:	00379793          	slli	a5,a5,0x3
    3e08:	00f687b3          	add	a5,a3,a5
    3e0c:	00c7a783          	lw	a5,12(a5)
    3e10:	00078593          	mv	a1,a5
    3e14:	fe842703          	lw	a4,-24(s0)
    3e18:	00070793          	mv	a5,a4
    3e1c:	00179793          	slli	a5,a5,0x1
    3e20:	00e787b3          	add	a5,a5,a4
    3e24:	00279793          	slli	a5,a5,0x2
    3e28:	00c787b3          	add	a5,a5,a2
    3e2c:	e0418713          	addi	a4,gp,-508 # 6abc <prgs>
    3e30:	00279793          	slli	a5,a5,0x2
    3e34:	00f707b3          	add	a5,a4,a5
    3e38:	0047a783          	lw	a5,4(a5)
    3e3c:	00f5a023          	sw	a5,0(a1)
    3e40:	fe842703          	lw	a4,-24(s0)
    3e44:	00070793          	mv	a5,a4
    3e48:	00179793          	slli	a5,a5,0x1
    3e4c:	00e787b3          	add	a5,a5,a4
    3e50:	00479793          	slli	a5,a5,0x4
    3e54:	e0418713          	addi	a4,gp,-508 # 6abc <prgs>
    3e58:	00e787b3          	add	a5,a5,a4
    3e5c:	0007a783          	lw	a5,0(a5)
    3e60:	00078593          	mv	a1,a5
    3e64:	000057b7          	lui	a5,0x5
    3e68:	18878513          	addi	a0,a5,392 # 5188 <__errno+0xa8>
    3e6c:	f60ff0ef          	jal	ra,35cc <print_str_str_n>
    3e70:	fec42703          	lw	a4,-20(s0)
    3e74:	00070793          	mv	a5,a4
    3e78:	00179793          	slli	a5,a5,0x1
    3e7c:	00e787b3          	add	a5,a5,a4
    3e80:	00379793          	slli	a5,a5,0x3
    3e84:	e6418713          	addi	a4,gp,-412 # 6b1c <nodes>
    3e88:	00e787b3          	add	a5,a5,a4
    3e8c:	fe842703          	lw	a4,-24(s0)
    3e90:	00e7a823          	sw	a4,16(a5)
    3e94:	00000013          	nop
    3e98:	01c12083          	lw	ra,28(sp)
    3e9c:	01812403          	lw	s0,24(sp)
    3ea0:	02010113          	addi	sp,sp,32
    3ea4:	00008067          	ret

00003ea8 <prgs_estimate_execution_times>:
    3ea8:	fe010113          	addi	sp,sp,-32
    3eac:	00112e23          	sw	ra,28(sp)
    3eb0:	00812c23          	sw	s0,24(sp)
    3eb4:	02010413          	addi	s0,sp,32
    3eb8:	fe042623          	sw	zero,-20(s0)
    3ebc:	fe042423          	sw	zero,-24(s0)
    3ec0:	00200593          	li	a1,2
    3ec4:	000057b7          	lui	a5,0x5
    3ec8:	19878513          	addi	a0,a5,408 # 5198 <__errno+0xb8>
    3ecc:	f8cff0ef          	jal	ra,3658 <print_str_dec_n>
    3ed0:	fe042223          	sw	zero,-28(s0)
    3ed4:	fe042623          	sw	zero,-20(s0)
    3ed8:	0840006f          	j	3f5c <prgs_estimate_execution_times+0xb4>
    3edc:	fec42703          	lw	a4,-20(s0)
    3ee0:	ace1ae23          	sw	a4,-1316(gp) # 6794 <preferred_archs>
    3ee4:	fec42583          	lw	a1,-20(s0)
    3ee8:	adc18513          	addi	a0,gp,-1316 # 6794 <preferred_archs>
    3eec:	a65ff0ef          	jal	ra,3950 <node_get>
    3ef0:	fea42223          	sw	a0,-28(s0)
    3ef4:	fe442783          	lw	a5,-28(s0)
    3ef8:	00078593          	mv	a1,a5
    3efc:	000057b7          	lui	a5,0x5
    3f00:	1b878513          	addi	a0,a5,440 # 51b8 <__errno+0xd8>
    3f04:	f54ff0ef          	jal	ra,3658 <print_str_dec_n>
    3f08:	fe442703          	lw	a4,-28(s0)
    3f0c:	00200793          	li	a5,2
    3f10:	02e7ce63          	blt	a5,a4,3f4c <prgs_estimate_execution_times+0xa4>
    3f14:	fe442783          	lw	a5,-28(s0)
    3f18:	0207ca63          	bltz	a5,3f4c <prgs_estimate_execution_times+0xa4>
    3f1c:	fe042423          	sw	zero,-24(s0)
    3f20:	01c0006f          	j	3f3c <prgs_estimate_execution_times+0x94>
    3f24:	fe842583          	lw	a1,-24(s0)
    3f28:	fe442503          	lw	a0,-28(s0)
    3f2c:	054000ef          	jal	ra,3f80 <prg_estimate_execution_time>
    3f30:	fe842783          	lw	a5,-24(s0)
    3f34:	00178793          	addi	a5,a5,1
    3f38:	fef42423          	sw	a5,-24(s0)
    3f3c:	fe842703          	lw	a4,-24(s0)
    3f40:	00100793          	li	a5,1
    3f44:	fee7d0e3          	bge	a5,a4,3f24 <prgs_estimate_execution_times+0x7c>
    3f48:	0080006f          	j	3f50 <prgs_estimate_execution_times+0xa8>
    3f4c:	00000013          	nop
    3f50:	fec42783          	lw	a5,-20(s0)
    3f54:	00178793          	addi	a5,a5,1
    3f58:	fef42623          	sw	a5,-20(s0)
    3f5c:	fec42703          	lw	a4,-20(s0)
    3f60:	00100793          	li	a5,1
    3f64:	f6e7dce3          	bge	a5,a4,3edc <prgs_estimate_execution_times+0x34>
    3f68:	244000ef          	jal	ra,41ac <prgs_execution_time_debug>
    3f6c:	00000013          	nop
    3f70:	01c12083          	lw	ra,28(sp)
    3f74:	01812403          	lw	s0,24(sp)
    3f78:	02010113          	addi	sp,sp,32
    3f7c:	00008067          	ret

00003f80 <prg_estimate_execution_time>:
    3f80:	fd010113          	addi	sp,sp,-48
    3f84:	02112623          	sw	ra,44(sp)
    3f88:	02812423          	sw	s0,40(sp)
    3f8c:	03010413          	addi	s0,sp,48
    3f90:	fca42e23          	sw	a0,-36(s0)
    3f94:	fcb42c23          	sw	a1,-40(s0)
    3f98:	fd842703          	lw	a4,-40(s0)
    3f9c:	00070793          	mv	a5,a4
    3fa0:	00179793          	slli	a5,a5,0x1
    3fa4:	00e787b3          	add	a5,a5,a4
    3fa8:	00479793          	slli	a5,a5,0x4
    3fac:	e0418713          	addi	a4,gp,-508 # 6abc <prgs>
    3fb0:	00e787b3          	add	a5,a5,a4
    3fb4:	0007a783          	lw	a5,0(a5)
    3fb8:	00078593          	mv	a1,a5
    3fbc:	000057b7          	lui	a5,0x5
    3fc0:	1c878513          	addi	a0,a5,456 # 51c8 <__errno+0xe8>
    3fc4:	e08ff0ef          	jal	ra,35cc <print_str_str_n>
    3fc8:	fdc42783          	lw	a5,-36(s0)
    3fcc:	00078593          	mv	a1,a5
    3fd0:	000057b7          	lui	a5,0x5
    3fd4:	1d878513          	addi	a0,a5,472 # 51d8 <__errno+0xf8>
    3fd8:	e80ff0ef          	jal	ra,3658 <print_str_dec_n>
    3fdc:	fd842783          	lw	a5,-40(s0)
    3fe0:	00078593          	mv	a1,a5
    3fe4:	000057b7          	lui	a5,0x5
    3fe8:	1e878513          	addi	a0,a5,488 # 51e8 <__errno+0x108>
    3fec:	e6cff0ef          	jal	ra,3658 <print_str_dec_n>
    3ff0:	fe042623          	sw	zero,-20(s0)
    3ff4:	fe042423          	sw	zero,-24(s0)
    3ff8:	fe042223          	sw	zero,-28(s0)
    3ffc:	800087b7          	lui	a5,0x80008
    4000:	0007a783          	lw	a5,0(a5) # 80008000 <__BSS_END__+0x80000b48>
    4004:	00078713          	mv	a4,a5
    4008:	aae1a623          	sw	a4,-1364(gp) # 6764 <cnt>
    400c:	fdc42703          	lw	a4,-36(s0)
    4010:	e6418693          	addi	a3,gp,-412 # 6b1c <nodes>
    4014:	00070793          	mv	a5,a4
    4018:	00179793          	slli	a5,a5,0x1
    401c:	00e787b3          	add	a5,a5,a4
    4020:	00379793          	slli	a5,a5,0x3
    4024:	00f687b3          	add	a5,a3,a5
    4028:	0047a603          	lw	a2,4(a5)
    402c:	fdc42703          	lw	a4,-36(s0)
    4030:	e6418693          	addi	a3,gp,-412 # 6b1c <nodes>
    4034:	00070793          	mv	a5,a4
    4038:	00179793          	slli	a5,a5,0x1
    403c:	00e787b3          	add	a5,a5,a4
    4040:	00379793          	slli	a5,a5,0x3
    4044:	00f687b3          	add	a5,a3,a5
    4048:	00c7a783          	lw	a5,12(a5)
    404c:	00078593          	mv	a1,a5
    4050:	fd842703          	lw	a4,-40(s0)
    4054:	00070793          	mv	a5,a4
    4058:	00179793          	slli	a5,a5,0x1
    405c:	00e787b3          	add	a5,a5,a4
    4060:	00279793          	slli	a5,a5,0x2
    4064:	00c787b3          	add	a5,a5,a2
    4068:	e0418713          	addi	a4,gp,-508 # 6abc <prgs>
    406c:	00279793          	slli	a5,a5,0x2
    4070:	00f707b3          	add	a5,a4,a5
    4074:	0047a783          	lw	a5,4(a5)
    4078:	00f5a023          	sw	a5,0(a1)
    407c:	800007b7          	lui	a5,0x80000
    4080:	40078793          	addi	a5,a5,1024 # 80000400 <__BSS_END__+0x7fff8f48>
    4084:	0007a783          	lw	a5,0(a5)
    4088:	fef42623          	sw	a5,-20(s0)
    408c:	00000013          	nop
    4090:	800007b7          	lui	a5,0x80000
    4094:	10078793          	addi	a5,a5,256 # 80000100 <__BSS_END__+0x7fff8c48>
    4098:	0007a683          	lw	a3,0(a5)
    409c:	fdc42703          	lw	a4,-36(s0)
    40a0:	e6418613          	addi	a2,gp,-412 # 6b1c <nodes>
    40a4:	00070793          	mv	a5,a4
    40a8:	00179793          	slli	a5,a5,0x1
    40ac:	00e787b3          	add	a5,a5,a4
    40b0:	00379793          	slli	a5,a5,0x3
    40b4:	00f607b3          	add	a5,a2,a5
    40b8:	0087a783          	lw	a5,8(a5)
    40bc:	00f6f7b3          	and	a5,a3,a5
    40c0:	fc0798e3          	bnez	a5,4090 <prg_estimate_execution_time+0x110>
    40c4:	800007b7          	lui	a5,0x80000
    40c8:	40078793          	addi	a5,a5,1024 # 80000400 <__BSS_END__+0x7fff8f48>
    40cc:	0007a783          	lw	a5,0(a5)
    40d0:	fef42423          	sw	a5,-24(s0)
    40d4:	fe842703          	lw	a4,-24(s0)
    40d8:	fec42783          	lw	a5,-20(s0)
    40dc:	40f707b3          	sub	a5,a4,a5
    40e0:	fef42223          	sw	a5,-28(s0)
    40e4:	fdc42703          	lw	a4,-36(s0)
    40e8:	e6418693          	addi	a3,gp,-412 # 6b1c <nodes>
    40ec:	00070793          	mv	a5,a4
    40f0:	00179793          	slli	a5,a5,0x1
    40f4:	00e787b3          	add	a5,a5,a4
    40f8:	00379793          	slli	a5,a5,0x3
    40fc:	00f687b3          	add	a5,a3,a5
    4100:	0047a603          	lw	a2,4(a5)
    4104:	fd842703          	lw	a4,-40(s0)
    4108:	00070793          	mv	a5,a4
    410c:	00179793          	slli	a5,a5,0x1
    4110:	00e787b3          	add	a5,a5,a4
    4114:	00279793          	slli	a5,a5,0x2
    4118:	00c787b3          	add	a5,a5,a2
    411c:	e0418713          	addi	a4,gp,-508 # 6abc <prgs>
    4120:	00279793          	slli	a5,a5,0x2
    4124:	00f707b3          	add	a5,a4,a5
    4128:	fe442703          	lw	a4,-28(s0)
    412c:	00e7a623          	sw	a4,12(a5)
    4130:	fe442783          	lw	a5,-28(s0)
    4134:	00078593          	mv	a1,a5
    4138:	000057b7          	lui	a5,0x5
    413c:	1c878513          	addi	a0,a5,456 # 51c8 <__errno+0xe8>
    4140:	d18ff0ef          	jal	ra,3658 <print_str_dec_n>
    4144:	fdc42703          	lw	a4,-36(s0)
    4148:	e6418693          	addi	a3,gp,-412 # 6b1c <nodes>
    414c:	00070793          	mv	a5,a4
    4150:	00179793          	slli	a5,a5,0x1
    4154:	00e787b3          	add	a5,a5,a4
    4158:	00379793          	slli	a5,a5,0x3
    415c:	00f687b3          	add	a5,a3,a5
    4160:	0047a583          	lw	a1,4(a5)
    4164:	fe442783          	lw	a5,-28(s0)
    4168:	00179693          	slli	a3,a5,0x1
    416c:	fd842703          	lw	a4,-40(s0)
    4170:	00070793          	mv	a5,a4
    4174:	00179793          	slli	a5,a5,0x1
    4178:	00e787b3          	add	a5,a5,a4
    417c:	00279793          	slli	a5,a5,0x2
    4180:	00b787b3          	add	a5,a5,a1
    4184:	00478793          	addi	a5,a5,4
    4188:	e0418713          	addi	a4,gp,-508 # 6abc <prgs>
    418c:	00279793          	slli	a5,a5,0x2
    4190:	00f707b3          	add	a5,a4,a5
    4194:	00d7a223          	sw	a3,4(a5)
    4198:	00000013          	nop
    419c:	02c12083          	lw	ra,44(sp)
    41a0:	02812403          	lw	s0,40(sp)
    41a4:	03010113          	addi	sp,sp,48
    41a8:	00008067          	ret

000041ac <prgs_execution_time_debug>:
    41ac:	fe010113          	addi	sp,sp,-32
    41b0:	00112e23          	sw	ra,28(sp)
    41b4:	00812c23          	sw	s0,24(sp)
    41b8:	02010413          	addi	s0,sp,32
    41bc:	f4cff0ef          	jal	ra,3908 <nl>
    41c0:	000057b7          	lui	a5,0x5
    41c4:	20078513          	addi	a0,a5,512 # 5200 <__errno+0x120>
    41c8:	d68ff0ef          	jal	ra,3730 <print_str>
    41cc:	fe042623          	sw	zero,-20(s0)
    41d0:	fe042423          	sw	zero,-24(s0)
    41d4:	fe042623          	sw	zero,-20(s0)
    41d8:	1240006f          	j	42fc <prgs_execution_time_debug+0x150>
    41dc:	f2cff0ef          	jal	ra,3908 <nl>
    41e0:	000057b7          	lui	a5,0x5
    41e4:	22078513          	addi	a0,a5,544 # 5220 <__errno+0x140>
    41e8:	d48ff0ef          	jal	ra,3730 <print_str>
    41ec:	fec42783          	lw	a5,-20(s0)
    41f0:	00078513          	mv	a0,a5
    41f4:	e5cff0ef          	jal	ra,3850 <print_dec>
    41f8:	f10ff0ef          	jal	ra,3908 <nl>
    41fc:	fe042423          	sw	zero,-24(s0)
    4200:	0e40006f          	j	42e4 <prgs_execution_time_debug+0x138>
    4204:	000057b7          	lui	a5,0x5
    4208:	22878513          	addi	a0,a5,552 # 5228 <__errno+0x148>
    420c:	d24ff0ef          	jal	ra,3730 <print_str>
    4210:	fe842783          	lw	a5,-24(s0)
    4214:	00078513          	mv	a0,a5
    4218:	e38ff0ef          	jal	ra,3850 <print_dec>
    421c:	000057b7          	lui	a5,0x5
    4220:	22c78513          	addi	a0,a5,556 # 522c <__errno+0x14c>
    4224:	d0cff0ef          	jal	ra,3730 <print_str>
    4228:	fe842703          	lw	a4,-24(s0)
    422c:	00070793          	mv	a5,a4
    4230:	00179793          	slli	a5,a5,0x1
    4234:	00e787b3          	add	a5,a5,a4
    4238:	00479793          	slli	a5,a5,0x4
    423c:	e0418713          	addi	a4,gp,-508 # 6abc <prgs>
    4240:	00e787b3          	add	a5,a5,a4
    4244:	0007a783          	lw	a5,0(a5)
    4248:	00078513          	mv	a0,a5
    424c:	ce4ff0ef          	jal	ra,3730 <print_str>
    4250:	000057b7          	lui	a5,0x5
    4254:	23078513          	addi	a0,a5,560 # 5230 <__errno+0x150>
    4258:	cd8ff0ef          	jal	ra,3730 <print_str>
    425c:	fe842703          	lw	a4,-24(s0)
    4260:	00070793          	mv	a5,a4
    4264:	00179793          	slli	a5,a5,0x1
    4268:	00e787b3          	add	a5,a5,a4
    426c:	00279793          	slli	a5,a5,0x2
    4270:	fec42703          	lw	a4,-20(s0)
    4274:	00e787b3          	add	a5,a5,a4
    4278:	e0418713          	addi	a4,gp,-508 # 6abc <prgs>
    427c:	00279793          	slli	a5,a5,0x2
    4280:	00f707b3          	add	a5,a4,a5
    4284:	00c7a783          	lw	a5,12(a5)
    4288:	00078513          	mv	a0,a5
    428c:	dc4ff0ef          	jal	ra,3850 <print_dec>
    4290:	000057b7          	lui	a5,0x5
    4294:	22c78513          	addi	a0,a5,556 # 522c <__errno+0x14c>
    4298:	c98ff0ef          	jal	ra,3730 <print_str>
    429c:	fe842703          	lw	a4,-24(s0)
    42a0:	00070793          	mv	a5,a4
    42a4:	00179793          	slli	a5,a5,0x1
    42a8:	00e787b3          	add	a5,a5,a4
    42ac:	00279793          	slli	a5,a5,0x2
    42b0:	fec42703          	lw	a4,-20(s0)
    42b4:	00e787b3          	add	a5,a5,a4
    42b8:	00478793          	addi	a5,a5,4
    42bc:	e0418713          	addi	a4,gp,-508 # 6abc <prgs>
    42c0:	00279793          	slli	a5,a5,0x2
    42c4:	00f707b3          	add	a5,a4,a5
    42c8:	0047a783          	lw	a5,4(a5)
    42cc:	00078513          	mv	a0,a5
    42d0:	d80ff0ef          	jal	ra,3850 <print_dec>
    42d4:	e34ff0ef          	jal	ra,3908 <nl>
    42d8:	fe842783          	lw	a5,-24(s0)
    42dc:	00178793          	addi	a5,a5,1
    42e0:	fef42423          	sw	a5,-24(s0)
    42e4:	fe842703          	lw	a4,-24(s0)
    42e8:	00100793          	li	a5,1
    42ec:	f0e7dce3          	bge	a5,a4,4204 <prgs_execution_time_debug+0x58>
    42f0:	fec42783          	lw	a5,-20(s0)
    42f4:	00178793          	addi	a5,a5,1
    42f8:	fef42623          	sw	a5,-20(s0)
    42fc:	fec42703          	lw	a4,-20(s0)
    4300:	00100793          	li	a5,1
    4304:	ece7dce3          	bge	a5,a4,41dc <prgs_execution_time_debug+0x30>
    4308:	00000013          	nop
    430c:	01c12083          	lw	ra,28(sp)
    4310:	01812403          	lw	s0,24(sp)
    4314:	02010113          	addi	sp,sp,32
    4318:	00008067          	ret

0000431c <prgs_estimate_energy_requirements>:
    431c:	fe010113          	addi	sp,sp,-32
    4320:	00112e23          	sw	ra,28(sp)
    4324:	00812c23          	sw	s0,24(sp)
    4328:	02010413          	addi	s0,sp,32
    432c:	fe042623          	sw	zero,-20(s0)
    4330:	fe042423          	sw	zero,-24(s0)
    4334:	fe042623          	sw	zero,-20(s0)
    4338:	03c0006f          	j	4374 <prgs_estimate_energy_requirements+0x58>
    433c:	fe042423          	sw	zero,-24(s0)
    4340:	01c0006f          	j	435c <prgs_estimate_energy_requirements+0x40>
    4344:	fe842583          	lw	a1,-24(s0)
    4348:	fec42503          	lw	a0,-20(s0)
    434c:	048000ef          	jal	ra,4394 <estimate_energy_requirement>
    4350:	fe842783          	lw	a5,-24(s0)
    4354:	00178793          	addi	a5,a5,1
    4358:	fef42423          	sw	a5,-24(s0)
    435c:	fe842703          	lw	a4,-24(s0)
    4360:	00100793          	li	a5,1
    4364:	fee7d0e3          	bge	a5,a4,4344 <prgs_estimate_energy_requirements+0x28>
    4368:	fec42783          	lw	a5,-20(s0)
    436c:	00178793          	addi	a5,a5,1
    4370:	fef42623          	sw	a5,-20(s0)
    4374:	fec42703          	lw	a4,-20(s0)
    4378:	00100793          	li	a5,1
    437c:	fce7d0e3          	bge	a5,a4,433c <prgs_estimate_energy_requirements+0x20>
    4380:	00000013          	nop
    4384:	01c12083          	lw	ra,28(sp)
    4388:	01812403          	lw	s0,24(sp)
    438c:	02010113          	addi	sp,sp,32
    4390:	00008067          	ret

00004394 <estimate_energy_requirement>:
    4394:	fd010113          	addi	sp,sp,-48
    4398:	02812623          	sw	s0,44(sp)
    439c:	03010413          	addi	s0,sp,48
    43a0:	fca42e23          	sw	a0,-36(s0)
    43a4:	fcb42c23          	sw	a1,-40(s0)
    43a8:	fe042623          	sw	zero,-20(s0)
    43ac:	fd842703          	lw	a4,-40(s0)
    43b0:	00070793          	mv	a5,a4
    43b4:	00179793          	slli	a5,a5,0x1
    43b8:	00e787b3          	add	a5,a5,a4
    43bc:	00279793          	slli	a5,a5,0x2
    43c0:	fdc42703          	lw	a4,-36(s0)
    43c4:	00e787b3          	add	a5,a5,a4
    43c8:	e0418713          	addi	a4,gp,-508 # 6abc <prgs>
    43cc:	00279793          	slli	a5,a5,0x2
    43d0:	00f707b3          	add	a5,a4,a5
    43d4:	00c7a783          	lw	a5,12(a5)
    43d8:	00279793          	slli	a5,a5,0x2
    43dc:	fef42623          	sw	a5,-20(s0)
    43e0:	fec42703          	lw	a4,-20(s0)
    43e4:	000187b7          	lui	a5,0x18
    43e8:	6a078793          	addi	a5,a5,1696 # 186a0 <__BSS_END__+0x111e8>
    43ec:	02f747b3          	div	a5,a4,a5
    43f0:	fef42623          	sw	a5,-20(s0)
    43f4:	fdc42783          	lw	a5,-36(s0)
    43f8:	e9418713          	addi	a4,gp,-364 # 6b4c <archs>
    43fc:	00379793          	slli	a5,a5,0x3
    4400:	00f707b3          	add	a5,a4,a5
    4404:	0047a703          	lw	a4,4(a5)
    4408:	fec42783          	lw	a5,-20(s0)
    440c:	02f707b3          	mul	a5,a4,a5
    4410:	00078613          	mv	a2,a5
    4414:	fd842703          	lw	a4,-40(s0)
    4418:	00070793          	mv	a5,a4
    441c:	00179793          	slli	a5,a5,0x1
    4420:	00e787b3          	add	a5,a5,a4
    4424:	00279793          	slli	a5,a5,0x2
    4428:	fdc42703          	lw	a4,-36(s0)
    442c:	00e787b3          	add	a5,a5,a4
    4430:	00478793          	addi	a5,a5,4
    4434:	e0418713          	addi	a4,gp,-508 # 6abc <prgs>
    4438:	00279793          	slli	a5,a5,0x2
    443c:	00f707b3          	add	a5,a4,a5
    4440:	00c7a623          	sw	a2,12(a5)
    4444:	00000013          	nop
    4448:	02c12403          	lw	s0,44(sp)
    444c:	03010113          	addi	sp,sp,48
    4450:	00008067          	ret

00004454 <prgs_check_if_finished>:
    4454:	fe010113          	addi	sp,sp,-32
    4458:	00112e23          	sw	ra,28(sp)
    445c:	00812c23          	sw	s0,24(sp)
    4460:	02010413          	addi	s0,sp,32
    4464:	ab41a783          	lw	a5,-1356(gp) # 676c <nodes_busy>
    4468:	00078513          	mv	a0,a5
    446c:	8d1ff0ef          	jal	ra,3d3c <get_finished_nodes>
    4470:	fea42623          	sw	a0,-20(s0)
    4474:	fe042423          	sw	zero,-24(s0)
    4478:	0540006f          	j	44cc <prgs_check_if_finished+0x78>
    447c:	fec42783          	lw	a5,-20(s0)
    4480:	0017f793          	andi	a5,a5,1
    4484:	02078863          	beqz	a5,44b4 <prgs_check_if_finished+0x60>
    4488:	fe842703          	lw	a4,-24(s0)
    448c:	00070793          	mv	a5,a4
    4490:	00179793          	slli	a5,a5,0x1
    4494:	00e787b3          	add	a5,a5,a4
    4498:	00379793          	slli	a5,a5,0x3
    449c:	e6418713          	addi	a4,gp,-412 # 6b1c <nodes>
    44a0:	00e787b3          	add	a5,a5,a4
    44a4:	0107a783          	lw	a5,16(a5)
    44a8:	fef42223          	sw	a5,-28(s0)
    44ac:	fe442503          	lw	a0,-28(s0)
    44b0:	038000ef          	jal	ra,44e8 <prg_set_inactive>
    44b4:	fec42783          	lw	a5,-20(s0)
    44b8:	0017d793          	srli	a5,a5,0x1
    44bc:	fef42623          	sw	a5,-20(s0)
    44c0:	fe842783          	lw	a5,-24(s0)
    44c4:	00178793          	addi	a5,a5,1
    44c8:	fef42423          	sw	a5,-24(s0)
    44cc:	fec42783          	lw	a5,-20(s0)
    44d0:	fa0796e3          	bnez	a5,447c <prgs_check_if_finished+0x28>
    44d4:	00000013          	nop
    44d8:	01c12083          	lw	ra,28(sp)
    44dc:	01812403          	lw	s0,24(sp)
    44e0:	02010113          	addi	sp,sp,32
    44e4:	00008067          	ret

000044e8 <prg_set_inactive>:
    44e8:	fd010113          	addi	sp,sp,-48
    44ec:	02812623          	sw	s0,44(sp)
    44f0:	03010413          	addi	s0,sp,48
    44f4:	fca42e23          	sw	a0,-36(s0)
    44f8:	fe042623          	sw	zero,-20(s0)
    44fc:	fdc42783          	lw	a5,-36(s0)
    4500:	00100713          	li	a4,1
    4504:	00f717b3          	sll	a5,a4,a5
    4508:	fef42623          	sw	a5,-20(s0)
    450c:	fec42783          	lw	a5,-20(s0)
    4510:	fff7c793          	not	a5,a5
    4514:	fef42623          	sw	a5,-20(s0)
    4518:	ab81a783          	lw	a5,-1352(gp) # 6770 <prgs_active>
    451c:	00078713          	mv	a4,a5
    4520:	fec42783          	lw	a5,-20(s0)
    4524:	00f777b3          	and	a5,a4,a5
    4528:	00078713          	mv	a4,a5
    452c:	aae1ac23          	sw	a4,-1352(gp) # 6770 <prgs_active>
    4530:	00000013          	nop
    4534:	02c12403          	lw	s0,44(sp)
    4538:	03010113          	addi	sp,sp,48
    453c:	00008067          	ret

00004540 <prg_set_active>:
    4540:	fe010113          	addi	sp,sp,-32
    4544:	00812e23          	sw	s0,28(sp)
    4548:	02010413          	addi	s0,sp,32
    454c:	fea42623          	sw	a0,-20(s0)
    4550:	fec42783          	lw	a5,-20(s0)
    4554:	00100713          	li	a4,1
    4558:	00f71733          	sll	a4,a4,a5
    455c:	ab81a783          	lw	a5,-1352(gp) # 6770 <prgs_active>
    4560:	00f76733          	or	a4,a4,a5
    4564:	aae1ac23          	sw	a4,-1352(gp) # 6770 <prgs_active>
    4568:	00000013          	nop
    456c:	01c12403          	lw	s0,28(sp)
    4570:	02010113          	addi	sp,sp,32
    4574:	00008067          	ret

00004578 <prg_is_running>:
    4578:	fe010113          	addi	sp,sp,-32
    457c:	00812e23          	sw	s0,28(sp)
    4580:	02010413          	addi	s0,sp,32
    4584:	fea42623          	sw	a0,-20(s0)
    4588:	ab81a703          	lw	a4,-1352(gp) # 6770 <prgs_active>
    458c:	fec42783          	lw	a5,-20(s0)
    4590:	40f757b3          	sra	a5,a4,a5
    4594:	0017f793          	andi	a5,a5,1
    4598:	00078663          	beqz	a5,45a4 <prg_is_running+0x2c>
    459c:	00100793          	li	a5,1
    45a0:	0080006f          	j	45a8 <prg_is_running+0x30>
    45a4:	00000793          	li	a5,0
    45a8:	00078513          	mv	a0,a5
    45ac:	01c12403          	lw	s0,28(sp)
    45b0:	02010113          	addi	sp,sp,32
    45b4:	00008067          	ret

000045b8 <archs_get_preferred>:
    45b8:	fe010113          	addi	sp,sp,-32
    45bc:	00812e23          	sw	s0,28(sp)
    45c0:	02010413          	addi	s0,sp,32
    45c4:	fea42623          	sw	a0,-20(s0)
    45c8:	ab01a703          	lw	a4,-1360(gp) # 6768 <save_mode>
    45cc:	00100793          	li	a5,1
    45d0:	02f71063          	bne	a4,a5,45f0 <archs_get_preferred+0x38>
    45d4:	fec42783          	lw	a5,-20(s0)
    45d8:	0007a023          	sw	zero,0(a5)
    45dc:	fec42783          	lw	a5,-20(s0)
    45e0:	00478793          	addi	a5,a5,4
    45e4:	00100713          	li	a4,1
    45e8:	00e7a023          	sw	a4,0(a5)
    45ec:	01c0006f          	j	4608 <archs_get_preferred+0x50>
    45f0:	fec42783          	lw	a5,-20(s0)
    45f4:	00100713          	li	a4,1
    45f8:	00e7a023          	sw	a4,0(a5)
    45fc:	fec42783          	lw	a5,-20(s0)
    4600:	00478793          	addi	a5,a5,4
    4604:	0007a023          	sw	zero,0(a5)
    4608:	00000013          	nop
    460c:	01c12403          	lw	s0,28(sp)
    4610:	02010113          	addi	sp,sp,32
    4614:	00008067          	ret

00004618 <queue_build_event_queue>:
    4618:	fe010113          	addi	sp,sp,-32
    461c:	00112e23          	sw	ra,28(sp)
    4620:	00812c23          	sw	s0,24(sp)
    4624:	02010413          	addi	s0,sp,32
    4628:	fe042623          	sw	zero,-20(s0)
    462c:	fe042423          	sw	zero,-24(s0)
    4630:	aa01a023          	sw	zero,-1376(gp) # 6758 <queue_index>
    4634:	00100793          	li	a5,1
    4638:	fef42623          	sw	a5,-20(s0)
    463c:	0600006f          	j	469c <queue_build_event_queue+0x84>
    4640:	fec42703          	lw	a4,-20(s0)
    4644:	004c57b7          	lui	a5,0x4c5
    4648:	b4078793          	addi	a5,a5,-1216 # 4c4b40 <__BSS_END__+0x4bd688>
    464c:	02f706b3          	mul	a3,a4,a5
    4650:	aa01a703          	lw	a4,-1376(gp) # 6758 <queue_index>
    4654:	000067b7          	lui	a5,0x6
    4658:	00371713          	slli	a4,a4,0x3
    465c:	79c78793          	addi	a5,a5,1948 # 679c <queue>
    4660:	00f707b3          	add	a5,a4,a5
    4664:	00d7a023          	sw	a3,0(a5)
    4668:	aa01a783          	lw	a5,-1376(gp) # 6758 <queue_index>
    466c:	00006737          	lui	a4,0x6
    4670:	79c70713          	addi	a4,a4,1948 # 679c <queue>
    4674:	00379793          	slli	a5,a5,0x3
    4678:	00f707b3          	add	a5,a4,a5
    467c:	fff00713          	li	a4,-1
    4680:	00e78223          	sb	a4,4(a5)
    4684:	aa01a783          	lw	a5,-1376(gp) # 6758 <queue_index>
    4688:	00178713          	addi	a4,a5,1
    468c:	aae1a023          	sw	a4,-1376(gp) # 6758 <queue_index>
    4690:	fec42783          	lw	a5,-20(s0)
    4694:	00178793          	addi	a5,a5,1
    4698:	fef42623          	sw	a5,-20(s0)
    469c:	fec42703          	lw	a4,-20(s0)
    46a0:	00a00793          	li	a5,10
    46a4:	f8e7dee3          	bge	a5,a4,4640 <queue_build_event_queue+0x28>
    46a8:	fe042623          	sw	zero,-20(s0)
    46ac:	0a00006f          	j	474c <queue_build_event_queue+0x134>
    46b0:	00100793          	li	a5,1
    46b4:	fef42423          	sw	a5,-24(s0)
    46b8:	07c0006f          	j	4734 <queue_build_event_queue+0x11c>
    46bc:	fec42703          	lw	a4,-20(s0)
    46c0:	e0418693          	addi	a3,gp,-508 # 6abc <prgs>
    46c4:	00070793          	mv	a5,a4
    46c8:	00179793          	slli	a5,a5,0x1
    46cc:	00e787b3          	add	a5,a5,a4
    46d0:	00479793          	slli	a5,a5,0x4
    46d4:	00f687b3          	add	a5,a3,a5
    46d8:	0147a703          	lw	a4,20(a5)
    46dc:	fe842783          	lw	a5,-24(s0)
    46e0:	02f706b3          	mul	a3,a4,a5
    46e4:	aa01a703          	lw	a4,-1376(gp) # 6758 <queue_index>
    46e8:	000067b7          	lui	a5,0x6
    46ec:	00371713          	slli	a4,a4,0x3
    46f0:	79c78793          	addi	a5,a5,1948 # 679c <queue>
    46f4:	00f707b3          	add	a5,a4,a5
    46f8:	00d7a023          	sw	a3,0(a5)
    46fc:	aa01a783          	lw	a5,-1376(gp) # 6758 <queue_index>
    4700:	fec42703          	lw	a4,-20(s0)
    4704:	0ff77713          	andi	a4,a4,255
    4708:	000066b7          	lui	a3,0x6
    470c:	79c68693          	addi	a3,a3,1948 # 679c <queue>
    4710:	00379793          	slli	a5,a5,0x3
    4714:	00f687b3          	add	a5,a3,a5
    4718:	00e78223          	sb	a4,4(a5)
    471c:	aa01a783          	lw	a5,-1376(gp) # 6758 <queue_index>
    4720:	00178713          	addi	a4,a5,1
    4724:	aae1a023          	sw	a4,-1376(gp) # 6758 <queue_index>
    4728:	fe842783          	lw	a5,-24(s0)
    472c:	00178793          	addi	a5,a5,1
    4730:	fef42423          	sw	a5,-24(s0)
    4734:	fe842703          	lw	a4,-24(s0)
    4738:	00a00793          	li	a5,10
    473c:	f8e7d0e3          	bge	a5,a4,46bc <queue_build_event_queue+0xa4>
    4740:	fec42783          	lw	a5,-20(s0)
    4744:	00178793          	addi	a5,a5,1
    4748:	fef42623          	sw	a5,-20(s0)
    474c:	fec42703          	lw	a4,-20(s0)
    4750:	00100793          	li	a5,1
    4754:	f4e7dee3          	bge	a5,a4,46b0 <queue_build_event_queue+0x98>
    4758:	000057b7          	lui	a5,0x5
    475c:	23478513          	addi	a0,a5,564 # 5234 <__errno+0x154>
    4760:	fd1fe0ef          	jal	ra,3730 <print_str>
    4764:	fe042623          	sw	zero,-20(s0)
    4768:	0740006f          	j	47dc <queue_build_event_queue+0x1c4>
    476c:	fec42783          	lw	a5,-20(s0)
    4770:	00078593          	mv	a1,a5
    4774:	000057b7          	lui	a5,0x5
    4778:	23c78513          	addi	a0,a5,572 # 523c <__errno+0x15c>
    477c:	eddfe0ef          	jal	ra,3658 <print_str_dec_n>
    4780:	00006737          	lui	a4,0x6
    4784:	fec42783          	lw	a5,-20(s0)
    4788:	79c70713          	addi	a4,a4,1948 # 679c <queue>
    478c:	00379793          	slli	a5,a5,0x3
    4790:	00f707b3          	add	a5,a4,a5
    4794:	0047c783          	lbu	a5,4(a5)
    4798:	00078593          	mv	a1,a5
    479c:	000057b7          	lui	a5,0x5
    47a0:	24c78513          	addi	a0,a5,588 # 524c <__errno+0x16c>
    47a4:	eb5fe0ef          	jal	ra,3658 <print_str_dec_n>
    47a8:	000067b7          	lui	a5,0x6
    47ac:	fec42703          	lw	a4,-20(s0)
    47b0:	00371713          	slli	a4,a4,0x3
    47b4:	79c78793          	addi	a5,a5,1948 # 679c <queue>
    47b8:	00f707b3          	add	a5,a4,a5
    47bc:	0007a783          	lw	a5,0(a5)
    47c0:	00078593          	mv	a1,a5
    47c4:	000057b7          	lui	a5,0x5
    47c8:	25c78513          	addi	a0,a5,604 # 525c <__errno+0x17c>
    47cc:	e8dfe0ef          	jal	ra,3658 <print_str_dec_n>
    47d0:	fec42783          	lw	a5,-20(s0)
    47d4:	00178793          	addi	a5,a5,1
    47d8:	fef42623          	sw	a5,-20(s0)
    47dc:	aa01a783          	lw	a5,-1376(gp) # 6758 <queue_index>
    47e0:	fec42703          	lw	a4,-20(s0)
    47e4:	f8f744e3          	blt	a4,a5,476c <queue_build_event_queue+0x154>
    47e8:	fe042623          	sw	zero,-20(s0)
    47ec:	14c0006f          	j	4938 <queue_build_event_queue+0x320>
    47f0:	fec42783          	lw	a5,-20(s0)
    47f4:	fef42223          	sw	a5,-28(s0)
    47f8:	fec42783          	lw	a5,-20(s0)
    47fc:	fef42423          	sw	a5,-24(s0)
    4800:	04c0006f          	j	484c <queue_build_event_queue+0x234>
    4804:	000067b7          	lui	a5,0x6
    4808:	fe842703          	lw	a4,-24(s0)
    480c:	00371713          	slli	a4,a4,0x3
    4810:	79c78793          	addi	a5,a5,1948 # 679c <queue>
    4814:	00f707b3          	add	a5,a4,a5
    4818:	0007a703          	lw	a4,0(a5)
    481c:	000067b7          	lui	a5,0x6
    4820:	fe442683          	lw	a3,-28(s0)
    4824:	00369693          	slli	a3,a3,0x3
    4828:	79c78793          	addi	a5,a5,1948 # 679c <queue>
    482c:	00f687b3          	add	a5,a3,a5
    4830:	0007a783          	lw	a5,0(a5)
    4834:	00f77663          	bgeu	a4,a5,4840 <queue_build_event_queue+0x228>
    4838:	fe842783          	lw	a5,-24(s0)
    483c:	fef42223          	sw	a5,-28(s0)
    4840:	fe842783          	lw	a5,-24(s0)
    4844:	00178793          	addi	a5,a5,1
    4848:	fef42423          	sw	a5,-24(s0)
    484c:	aa01a783          	lw	a5,-1376(gp) # 6758 <queue_index>
    4850:	fe842703          	lw	a4,-24(s0)
    4854:	faf748e3          	blt	a4,a5,4804 <queue_build_event_queue+0x1ec>
    4858:	000067b7          	lui	a5,0x6
    485c:	fec42703          	lw	a4,-20(s0)
    4860:	00371713          	slli	a4,a4,0x3
    4864:	79c78793          	addi	a5,a5,1948 # 679c <queue>
    4868:	00f707b3          	add	a5,a4,a5
    486c:	0007a783          	lw	a5,0(a5)
    4870:	fef42023          	sw	a5,-32(s0)
    4874:	000067b7          	lui	a5,0x6
    4878:	fe442703          	lw	a4,-28(s0)
    487c:	00371713          	slli	a4,a4,0x3
    4880:	79c78793          	addi	a5,a5,1948 # 679c <queue>
    4884:	00f707b3          	add	a5,a4,a5
    4888:	0007a703          	lw	a4,0(a5)
    488c:	000067b7          	lui	a5,0x6
    4890:	fec42683          	lw	a3,-20(s0)
    4894:	00369693          	slli	a3,a3,0x3
    4898:	79c78793          	addi	a5,a5,1948 # 679c <queue>
    489c:	00f687b3          	add	a5,a3,a5
    48a0:	00e7a023          	sw	a4,0(a5)
    48a4:	fe042703          	lw	a4,-32(s0)
    48a8:	000067b7          	lui	a5,0x6
    48ac:	fe442683          	lw	a3,-28(s0)
    48b0:	00369693          	slli	a3,a3,0x3
    48b4:	79c78793          	addi	a5,a5,1948 # 679c <queue>
    48b8:	00f687b3          	add	a5,a3,a5
    48bc:	00e7a023          	sw	a4,0(a5)
    48c0:	00006737          	lui	a4,0x6
    48c4:	fec42783          	lw	a5,-20(s0)
    48c8:	79c70713          	addi	a4,a4,1948 # 679c <queue>
    48cc:	00379793          	slli	a5,a5,0x3
    48d0:	00f707b3          	add	a5,a4,a5
    48d4:	0047c783          	lbu	a5,4(a5)
    48d8:	fef42023          	sw	a5,-32(s0)
    48dc:	00006737          	lui	a4,0x6
    48e0:	fe442783          	lw	a5,-28(s0)
    48e4:	79c70713          	addi	a4,a4,1948 # 679c <queue>
    48e8:	00379793          	slli	a5,a5,0x3
    48ec:	00f707b3          	add	a5,a4,a5
    48f0:	0047c703          	lbu	a4,4(a5)
    48f4:	000066b7          	lui	a3,0x6
    48f8:	fec42783          	lw	a5,-20(s0)
    48fc:	79c68693          	addi	a3,a3,1948 # 679c <queue>
    4900:	00379793          	slli	a5,a5,0x3
    4904:	00f687b3          	add	a5,a3,a5
    4908:	00e78223          	sb	a4,4(a5)
    490c:	fe042783          	lw	a5,-32(s0)
    4910:	0ff7f713          	andi	a4,a5,255
    4914:	000066b7          	lui	a3,0x6
    4918:	fe442783          	lw	a5,-28(s0)
    491c:	79c68693          	addi	a3,a3,1948 # 679c <queue>
    4920:	00379793          	slli	a5,a5,0x3
    4924:	00f687b3          	add	a5,a3,a5
    4928:	00e78223          	sb	a4,4(a5)
    492c:	fec42783          	lw	a5,-20(s0)
    4930:	00178793          	addi	a5,a5,1
    4934:	fef42623          	sw	a5,-20(s0)
    4938:	aa01a783          	lw	a5,-1376(gp) # 6758 <queue_index>
    493c:	fec42703          	lw	a4,-20(s0)
    4940:	eaf748e3          	blt	a4,a5,47f0 <queue_build_event_queue+0x1d8>
    4944:	fe042623          	sw	zero,-20(s0)
    4948:	04c0006f          	j	4994 <queue_build_event_queue+0x37c>
    494c:	fec42783          	lw	a5,-20(s0)
    4950:	00078593          	mv	a1,a5
    4954:	000057b7          	lui	a5,0x5
    4958:	26c78513          	addi	a0,a5,620 # 526c <__errno+0x18c>
    495c:	cfdfe0ef          	jal	ra,3658 <print_str_dec_n>
    4960:	000067b7          	lui	a5,0x6
    4964:	fec42703          	lw	a4,-20(s0)
    4968:	00371713          	slli	a4,a4,0x3
    496c:	79c78793          	addi	a5,a5,1948 # 679c <queue>
    4970:	00f707b3          	add	a5,a4,a5
    4974:	0007a783          	lw	a5,0(a5)
    4978:	00078593          	mv	a1,a5
    497c:	000057b7          	lui	a5,0x5
    4980:	27c78513          	addi	a0,a5,636 # 527c <__errno+0x19c>
    4984:	cd5fe0ef          	jal	ra,3658 <print_str_dec_n>
    4988:	fec42783          	lw	a5,-20(s0)
    498c:	00178793          	addi	a5,a5,1
    4990:	fef42623          	sw	a5,-20(s0)
    4994:	aa01a783          	lw	a5,-1376(gp) # 6758 <queue_index>
    4998:	fec42703          	lw	a4,-20(s0)
    499c:	faf748e3          	blt	a4,a5,494c <queue_build_event_queue+0x334>
    49a0:	00000013          	nop
    49a4:	01c12083          	lw	ra,28(sp)
    49a8:	01812403          	lw	s0,24(sp)
    49ac:	02010113          	addi	sp,sp,32
    49b0:	00008067          	ret

000049b4 <amul>:
    49b4:	fe010113          	addi	sp,sp,-32
    49b8:	00812e23          	sw	s0,28(sp)
    49bc:	02010413          	addi	s0,sp,32
    49c0:	fea42623          	sw	a0,-20(s0)
    49c4:	feb42423          	sw	a1,-24(s0)
    49c8:	fec42223          	sw	a2,-28(s0)
    49cc:	857f                	0x857f
    49ce:	fec5                	bnez	a3,4986 <queue_build_event_queue+0x36e>
    49d0:	00050793          	mv	a5,a0
    49d4:	fef42623          	sw	a5,-20(s0)
    49d8:	fec42783          	lw	a5,-20(s0)
    49dc:	00078513          	mv	a0,a5
    49e0:	01c12403          	lw	s0,28(sp)
    49e4:	02010113          	addi	sp,sp,32
    49e8:	00008067          	ret

000049ec <my_main>:
    49ec:	fc010113          	addi	sp,sp,-64
    49f0:	02112e23          	sw	ra,60(sp)
    49f4:	02812c23          	sw	s0,56(sp)
    49f8:	04010413          	addi	s0,sp,64
    49fc:	fe042423          	sw	zero,-24(s0)
    4a00:	fe042223          	sw	zero,-28(s0)
    4a04:	000057b7          	lui	a5,0x5
    4a08:	28878513          	addi	a0,a5,648 # 5288 <__errno+0x1a8>
    4a0c:	d45fe0ef          	jal	ra,3750 <print_str_n>
    4a10:	07b00793          	li	a5,123
    4a14:	fef42023          	sw	a5,-32(s0)
    4a18:	1c800793          	li	a5,456
    4a1c:	fcf42e23          	sw	a5,-36(s0)
    4a20:	fc042c23          	sw	zero,-40(s0)
    4a24:	fc042a23          	sw	zero,-44(s0)
    4a28:	fe042703          	lw	a4,-32(s0)
    4a2c:	fdc42783          	lw	a5,-36(s0)
    4a30:	02f707b3          	mul	a5,a4,a5
    4a34:	fcf42c23          	sw	a5,-40(s0)
    4a38:	fe042703          	lw	a4,-32(s0)
    4a3c:	fdc42783          	lw	a5,-36(s0)
    4a40:	02f707b3          	mul	a5,a4,a5
    4a44:	fcf42a23          	sw	a5,-44(s0)
    4a48:	800007b7          	lui	a5,0x80000
    4a4c:	40078793          	addi	a5,a5,1024 # 80000400 <__BSS_END__+0x7fff8f48>
    4a50:	0007a783          	lw	a5,0(a5)
    4a54:	00078713          	mv	a4,a5
    4a58:	aae1a623          	sw	a4,-1364(gp) # 6764 <cnt>
    4a5c:	800007b7          	lui	a5,0x80000
    4a60:	40078793          	addi	a5,a5,1024 # 80000400 <__BSS_END__+0x7fff8f48>
    4a64:	0007a783          	lw	a5,0(a5)
    4a68:	00078713          	mv	a4,a5
    4a6c:	aae1a623          	sw	a4,-1364(gp) # 6764 <cnt>
    4a70:	e6418513          	addi	a0,gp,-412 # 6b1c <nodes>
    4a74:	f30fb0ef          	jal	ra,1a4 <init_nodes>
    4a78:	e0418513          	addi	a0,gp,-508 # 6abc <prgs>
    4a7c:	ff4fb0ef          	jal	ra,270 <init_prgs>
    4a80:	e9418513          	addi	a0,gp,-364 # 6b4c <archs>
    4a84:	8ddfb0ef          	jal	ra,360 <init_archs>
    4a88:	000077b7          	lui	a5,0x7
    4a8c:	b5c78513          	addi	a0,a5,-1188 # 6b5c <charges>
    4a90:	925fb0ef          	jal	ra,3b4 <init_charges>
    4a94:	c14ff0ef          	jal	ra,3ea8 <prgs_estimate_execution_times>
    4a98:	800407b7          	lui	a5,0x80040
    4a9c:	00200713          	li	a4,2
    4aa0:	00e7a023          	sw	a4,0(a5) # 80040000 <__BSS_END__+0x80038b48>
    4aa4:	800807b7          	lui	a5,0x80080
    4aa8:	00200713          	li	a4,2
    4aac:	00e7a023          	sw	a4,0(a5) # 80080000 <__BSS_END__+0x80078b48>
    4ab0:	b69ff0ef          	jal	ra,4618 <queue_build_event_queue>
    4ab4:	aa01a703          	lw	a4,-1376(gp) # 6758 <queue_index>
    4ab8:	aae1a223          	sw	a4,-1372(gp) # 675c <QUEUE_SIZE>
    4abc:	861ff0ef          	jal	ra,431c <prgs_estimate_energy_requirements>
    4ac0:	800407b7          	lui	a5,0x80040
    4ac4:	00400713          	li	a4,4
    4ac8:	00e7a023          	sw	a4,0(a5) # 80040000 <__BSS_END__+0x80038b48>
    4acc:	800807b7          	lui	a5,0x80080
    4ad0:	00400713          	li	a4,4
    4ad4:	00e7a023          	sw	a4,0(a5) # 80080000 <__BSS_END__+0x80078b48>
    4ad8:	aa01a423          	sw	zero,-1368(gp) # 6760 <cnt_prev>
    4adc:	aa01a023          	sw	zero,-1376(gp) # 6758 <queue_index>
    4ae0:	800087b7          	lui	a5,0x80008
    4ae4:	0007a783          	lw	a5,0(a5) # 80008000 <__BSS_END__+0x80000b48>
    4ae8:	00078713          	mv	a4,a5
    4aec:	aae1a623          	sw	a4,-1364(gp) # 6764 <cnt>
    4af0:	fc042823          	sw	zero,-48(s0)
    4af4:	fe042623          	sw	zero,-20(s0)
    4af8:	aa01a703          	lw	a4,-1376(gp) # 6758 <queue_index>
    4afc:	000067b7          	lui	a5,0x6
    4b00:	00371713          	slli	a4,a4,0x3
    4b04:	79c78793          	addi	a5,a5,1948 # 679c <queue>
    4b08:	00f707b3          	add	a5,a4,a5
    4b0c:	0007a783          	lw	a5,0(a5)
    4b10:	fef42223          	sw	a5,-28(s0)
    4b14:	aa01a783          	lw	a5,-1376(gp) # 6758 <queue_index>
    4b18:	00006737          	lui	a4,0x6
    4b1c:	79c70713          	addi	a4,a4,1948 # 679c <queue>
    4b20:	00379793          	slli	a5,a5,0x3
    4b24:	00f707b3          	add	a5,a4,a5
    4b28:	0047c783          	lbu	a5,4(a5)
    4b2c:	fef42423          	sw	a5,-24(s0)
    4b30:	aa41a783          	lw	a5,-1372(gp) # 675c <QUEUE_SIZE>
    4b34:	00078593          	mv	a1,a5
    4b38:	000057b7          	lui	a5,0x5
    4b3c:	29c78513          	addi	a0,a5,668 # 529c <__errno+0x1bc>
    4b40:	b19fe0ef          	jal	ra,3658 <print_str_dec_n>
    4b44:	fe442783          	lw	a5,-28(s0)
    4b48:	00078593          	mv	a1,a5
    4b4c:	000057b7          	lui	a5,0x5
    4b50:	2ac78513          	addi	a0,a5,684 # 52ac <__errno+0x1cc>
    4b54:	b05fe0ef          	jal	ra,3658 <print_str_dec_n>
    4b58:	fe842783          	lw	a5,-24(s0)
    4b5c:	00078593          	mv	a1,a5
    4b60:	000057b7          	lui	a5,0x5
    4b64:	2b078513          	addi	a0,a5,688 # 52b0 <__errno+0x1d0>
    4b68:	af1fe0ef          	jal	ra,3658 <print_str_dec_n>
    4b6c:	000057b7          	lui	a5,0x5
    4b70:	2b478513          	addi	a0,a5,692 # 52b4 <__errno+0x1d4>
    4b74:	bddfe0ef          	jal	ra,3750 <print_str_n>
    4b78:	800007b7          	lui	a5,0x80000
    4b7c:	40078793          	addi	a5,a5,1024 # 80000400 <__BSS_END__+0x7fff8f48>
    4b80:	0007a783          	lw	a5,0(a5)
    4b84:	00078713          	mv	a4,a5
    4b88:	aae1a623          	sw	a4,-1364(gp) # 6764 <cnt>
    4b8c:	0180006f          	j	4ba4 <my_main+0x1b8>
    4b90:	800007b7          	lui	a5,0x80000
    4b94:	40078793          	addi	a5,a5,1024 # 80000400 <__BSS_END__+0x7fff8f48>
    4b98:	0007a783          	lw	a5,0(a5)
    4b9c:	00078713          	mv	a4,a5
    4ba0:	aae1a623          	sw	a4,-1364(gp) # 6764 <cnt>
    4ba4:	aac1a703          	lw	a4,-1364(gp) # 6764 <cnt>
    4ba8:	fe442783          	lw	a5,-28(s0)
    4bac:	fef762e3          	bltu	a4,a5,4b90 <my_main+0x1a4>
    4bb0:	fec42783          	lw	a5,-20(s0)
    4bb4:	00178793          	addi	a5,a5,1
    4bb8:	fef42623          	sw	a5,-20(s0)
    4bbc:	aa01a783          	lw	a5,-1376(gp) # 6758 <queue_index>
    4bc0:	00178713          	addi	a4,a5,1
    4bc4:	aae1a023          	sw	a4,-1376(gp) # 6758 <queue_index>
    4bc8:	aa01a703          	lw	a4,-1376(gp) # 6758 <queue_index>
    4bcc:	aa41a783          	lw	a5,-1372(gp) # 675c <QUEUE_SIZE>
    4bd0:	02f76733          	rem	a4,a4,a5
    4bd4:	aae1a023          	sw	a4,-1376(gp) # 6758 <queue_index>
    4bd8:	fe842703          	lw	a4,-24(s0)
    4bdc:	0ff00793          	li	a5,255
    4be0:	02f71a63          	bne	a4,a5,4c14 <my_main+0x228>
    4be4:	a9c1a703          	lw	a4,-1380(gp) # 6754 <_edata>
    4be8:	000077b7          	lui	a5,0x7
    4bec:	00271713          	slli	a4,a4,0x2
    4bf0:	b5c78793          	addi	a5,a5,-1188 # 6b5c <charges>
    4bf4:	00f707b3          	add	a5,a4,a5
    4bf8:	0007a783          	lw	a5,0(a5)
    4bfc:	00078513          	mv	a0,a5
    4c00:	f7dfe0ef          	jal	ra,3b7c <nodes_charge>
    4c04:	a9c1a783          	lw	a5,-1380(gp) # 6754 <_edata>
    4c08:	00178713          	addi	a4,a5,1
    4c0c:	a8e1ae23          	sw	a4,-1380(gp) # 6754 <_edata>
    4c10:	ee9ff06f          	j	4af8 <my_main+0x10c>
    4c14:	841ff0ef          	jal	ra,4454 <prgs_check_if_finished>
    4c18:	fe842503          	lw	a0,-24(s0)
    4c1c:	95dff0ef          	jal	ra,4578 <prg_is_running>
    4c20:	fca42623          	sw	a0,-52(s0)
    4c24:	fcc42703          	lw	a4,-52(s0)
    4c28:	00100793          	li	a5,1
    4c2c:	02f71863          	bne	a4,a5,4c5c <my_main+0x270>
    4c30:	fec42783          	lw	a5,-20(s0)
    4c34:	00078593          	mv	a1,a5
    4c38:	000057b7          	lui	a5,0x5
    4c3c:	2b878513          	addi	a0,a5,696 # 52b8 <__errno+0x1d8>
    4c40:	a19fe0ef          	jal	ra,3658 <print_str_dec_n>
    4c44:	fe842783          	lw	a5,-24(s0)
    4c48:	00078593          	mv	a1,a5
    4c4c:	000057b7          	lui	a5,0x5
    4c50:	2cc78513          	addi	a0,a5,716 # 52cc <__errno+0x1ec>
    4c54:	a05fe0ef          	jal	ra,3658 <print_str_dec_n>
    4c58:	0940006f          	j	4cec <my_main+0x300>
    4c5c:	adc18513          	addi	a0,gp,-1316 # 6794 <preferred_archs>
    4c60:	959ff0ef          	jal	ra,45b8 <archs_get_preferred>
    4c64:	fe842583          	lw	a1,-24(s0)
    4c68:	adc18513          	addi	a0,gp,-1316 # 6794 <preferred_archs>
    4c6c:	ce5fe0ef          	jal	ra,3950 <node_get>
    4c70:	fca42823          	sw	a0,-48(s0)
    4c74:	fd042703          	lw	a4,-48(s0)
    4c78:	fff00793          	li	a5,-1
    4c7c:	06f70663          	beq	a4,a5,4ce8 <my_main+0x2fc>
    4c80:	fe842583          	lw	a1,-24(s0)
    4c84:	fd042503          	lw	a0,-48(s0)
    4c88:	f99fe0ef          	jal	ra,3c20 <node_discharge>
    4c8c:	aa01a783          	lw	a5,-1376(gp) # 6758 <queue_index>
    4c90:	00078593          	mv	a1,a5
    4c94:	000057b7          	lui	a5,0x5
    4c98:	2e078513          	addi	a0,a5,736 # 52e0 <__errno+0x200>
    4c9c:	9bdfe0ef          	jal	ra,3658 <print_str_dec_n>
    4ca0:	fd042783          	lw	a5,-48(s0)
    4ca4:	00078593          	mv	a1,a5
    4ca8:	000057b7          	lui	a5,0x5
    4cac:	2f478513          	addi	a0,a5,756 # 52f4 <__errno+0x214>
    4cb0:	9a9fe0ef          	jal	ra,3658 <print_str_dec_n>
    4cb4:	fe842783          	lw	a5,-24(s0)
    4cb8:	00078593          	mv	a1,a5
    4cbc:	000057b7          	lui	a5,0x5
    4cc0:	30478513          	addi	a0,a5,772 # 5304 <__errno+0x224>
    4cc4:	995fe0ef          	jal	ra,3658 <print_str_dec_n>
    4cc8:	fe842583          	lw	a1,-24(s0)
    4ccc:	fd042503          	lw	a0,-48(s0)
    4cd0:	8e8ff0ef          	jal	ra,3db8 <node_assign_prg>
    4cd4:	fe842503          	lw	a0,-24(s0)
    4cd8:	869ff0ef          	jal	ra,4540 <prg_set_active>
    4cdc:	fd042503          	lw	a0,-48(s0)
    4ce0:	8a0ff0ef          	jal	ra,3d80 <node_set_busy>
    4ce4:	e15ff06f          	j	4af8 <my_main+0x10c>
    4ce8:	00000013          	nop
    4cec:	e0dff06f          	j	4af8 <my_main+0x10c>

00004cf0 <atexit>:
    4cf0:	00050593          	mv	a1,a0
    4cf4:	00000693          	li	a3,0
    4cf8:	00000613          	li	a2,0
    4cfc:	00000513          	li	a0,0
    4d00:	2140006f          	j	4f14 <__register_exitproc>

00004d04 <exit>:
    4d04:	ff010113          	addi	sp,sp,-16
    4d08:	00000593          	li	a1,0
    4d0c:	00812423          	sw	s0,8(sp)
    4d10:	00112623          	sw	ra,12(sp)
    4d14:	00050413          	mv	s0,a0
    4d18:	278000ef          	jal	ra,4f90 <__call_exitprocs>
    4d1c:	a901a503          	lw	a0,-1392(gp) # 6748 <_global_impure_ptr>
    4d20:	03c52783          	lw	a5,60(a0)
    4d24:	00078463          	beqz	a5,4d2c <exit+0x28>
    4d28:	000780e7          	jalr	a5
    4d2c:	00040513          	mv	a0,s0
    4d30:	36c000ef          	jal	ra,509c <_exit>

00004d34 <__libc_fini_array>:
    4d34:	ff010113          	addi	sp,sp,-16
    4d38:	000067b7          	lui	a5,0x6
    4d3c:	00812423          	sw	s0,8(sp)
    4d40:	00006437          	lui	s0,0x6
    4d44:	31c78713          	addi	a4,a5,796 # 631c <__init_array_end>
    4d48:	32040413          	addi	s0,s0,800 # 6320 <__fini_array_end>
    4d4c:	40e40433          	sub	s0,s0,a4
    4d50:	00912223          	sw	s1,4(sp)
    4d54:	00112623          	sw	ra,12(sp)
    4d58:	40245413          	srai	s0,s0,0x2
    4d5c:	31c78493          	addi	s1,a5,796
    4d60:	00041c63          	bnez	s0,4d78 <__libc_fini_array+0x44>
    4d64:	00812403          	lw	s0,8(sp)
    4d68:	00c12083          	lw	ra,12(sp)
    4d6c:	00412483          	lw	s1,4(sp)
    4d70:	01010113          	addi	sp,sp,16
    4d74:	ad0fb06f          	j	44 <_fini>
    4d78:	fff40413          	addi	s0,s0,-1
    4d7c:	00241793          	slli	a5,s0,0x2
    4d80:	00f487b3          	add	a5,s1,a5
    4d84:	0007a783          	lw	a5,0(a5)
    4d88:	000780e7          	jalr	a5
    4d8c:	fd5ff06f          	j	4d60 <__libc_fini_array+0x2c>

00004d90 <__libc_init_array>:
    4d90:	ff010113          	addi	sp,sp,-16
    4d94:	000067b7          	lui	a5,0x6
    4d98:	00812423          	sw	s0,8(sp)
    4d9c:	00006437          	lui	s0,0x6
    4da0:	31878713          	addi	a4,a5,792 # 6318 <__frame_dummy_init_array_entry>
    4da4:	31840413          	addi	s0,s0,792 # 6318 <__frame_dummy_init_array_entry>
    4da8:	40e40433          	sub	s0,s0,a4
    4dac:	00912223          	sw	s1,4(sp)
    4db0:	01212023          	sw	s2,0(sp)
    4db4:	00112623          	sw	ra,12(sp)
    4db8:	40245413          	srai	s0,s0,0x2
    4dbc:	00000493          	li	s1,0
    4dc0:	31878913          	addi	s2,a5,792
    4dc4:	04849263          	bne	s1,s0,4e08 <__libc_init_array+0x78>
    4dc8:	a7cfb0ef          	jal	ra,44 <_fini>
    4dcc:	000067b7          	lui	a5,0x6
    4dd0:	00006437          	lui	s0,0x6
    4dd4:	31878713          	addi	a4,a5,792 # 6318 <__frame_dummy_init_array_entry>
    4dd8:	31c40413          	addi	s0,s0,796 # 631c <__init_array_end>
    4ddc:	40e40433          	sub	s0,s0,a4
    4de0:	40245413          	srai	s0,s0,0x2
    4de4:	00000493          	li	s1,0
    4de8:	31878913          	addi	s2,a5,792
    4dec:	02849a63          	bne	s1,s0,4e20 <__libc_init_array+0x90>
    4df0:	00c12083          	lw	ra,12(sp)
    4df4:	00812403          	lw	s0,8(sp)
    4df8:	00412483          	lw	s1,4(sp)
    4dfc:	00012903          	lw	s2,0(sp)
    4e00:	01010113          	addi	sp,sp,16
    4e04:	00008067          	ret
    4e08:	00249793          	slli	a5,s1,0x2
    4e0c:	00f907b3          	add	a5,s2,a5
    4e10:	0007a783          	lw	a5,0(a5)
    4e14:	00148493          	addi	s1,s1,1
    4e18:	000780e7          	jalr	a5
    4e1c:	fa9ff06f          	j	4dc4 <__libc_init_array+0x34>
    4e20:	00249793          	slli	a5,s1,0x2
    4e24:	00f907b3          	add	a5,s2,a5
    4e28:	0007a783          	lw	a5,0(a5)
    4e2c:	00148493          	addi	s1,s1,1
    4e30:	000780e7          	jalr	a5
    4e34:	fb9ff06f          	j	4dec <__libc_init_array+0x5c>

00004e38 <memset>:
    4e38:	00f00313          	li	t1,15
    4e3c:	00050713          	mv	a4,a0
    4e40:	02c37e63          	bgeu	t1,a2,4e7c <memset+0x44>
    4e44:	00f77793          	andi	a5,a4,15
    4e48:	0a079063          	bnez	a5,4ee8 <memset+0xb0>
    4e4c:	08059263          	bnez	a1,4ed0 <memset+0x98>
    4e50:	ff067693          	andi	a3,a2,-16
    4e54:	00f67613          	andi	a2,a2,15
    4e58:	00e686b3          	add	a3,a3,a4
    4e5c:	00b72023          	sw	a1,0(a4)
    4e60:	00b72223          	sw	a1,4(a4)
    4e64:	00b72423          	sw	a1,8(a4)
    4e68:	00b72623          	sw	a1,12(a4)
    4e6c:	01070713          	addi	a4,a4,16
    4e70:	fed766e3          	bltu	a4,a3,4e5c <memset+0x24>
    4e74:	00061463          	bnez	a2,4e7c <memset+0x44>
    4e78:	00008067          	ret
    4e7c:	40c306b3          	sub	a3,t1,a2
    4e80:	00269693          	slli	a3,a3,0x2
    4e84:	00000297          	auipc	t0,0x0
    4e88:	005686b3          	add	a3,a3,t0
    4e8c:	00c68067          	jr	12(a3)
    4e90:	00b70723          	sb	a1,14(a4)
    4e94:	00b706a3          	sb	a1,13(a4)
    4e98:	00b70623          	sb	a1,12(a4)
    4e9c:	00b705a3          	sb	a1,11(a4)
    4ea0:	00b70523          	sb	a1,10(a4)
    4ea4:	00b704a3          	sb	a1,9(a4)
    4ea8:	00b70423          	sb	a1,8(a4)
    4eac:	00b703a3          	sb	a1,7(a4)
    4eb0:	00b70323          	sb	a1,6(a4)
    4eb4:	00b702a3          	sb	a1,5(a4)
    4eb8:	00b70223          	sb	a1,4(a4)
    4ebc:	00b701a3          	sb	a1,3(a4)
    4ec0:	00b70123          	sb	a1,2(a4)
    4ec4:	00b700a3          	sb	a1,1(a4)
    4ec8:	00b70023          	sb	a1,0(a4)
    4ecc:	00008067          	ret
    4ed0:	0ff5f593          	andi	a1,a1,255
    4ed4:	00859693          	slli	a3,a1,0x8
    4ed8:	00d5e5b3          	or	a1,a1,a3
    4edc:	01059693          	slli	a3,a1,0x10
    4ee0:	00d5e5b3          	or	a1,a1,a3
    4ee4:	f6dff06f          	j	4e50 <memset+0x18>
    4ee8:	00279693          	slli	a3,a5,0x2
    4eec:	00000297          	auipc	t0,0x0
    4ef0:	005686b3          	add	a3,a3,t0
    4ef4:	00008293          	mv	t0,ra
    4ef8:	fa0680e7          	jalr	-96(a3)
    4efc:	00028093          	mv	ra,t0
    4f00:	ff078793          	addi	a5,a5,-16
    4f04:	40f70733          	sub	a4,a4,a5
    4f08:	00f60633          	add	a2,a2,a5
    4f0c:	f6c378e3          	bgeu	t1,a2,4e7c <memset+0x44>
    4f10:	f3dff06f          	j	4e4c <memset+0x14>

00004f14 <__register_exitproc>:
    4f14:	a901a703          	lw	a4,-1392(gp) # 6748 <_global_impure_ptr>
    4f18:	00050313          	mv	t1,a0
    4f1c:	14872783          	lw	a5,328(a4)
    4f20:	00079663          	bnez	a5,4f2c <__register_exitproc+0x18>
    4f24:	14c70793          	addi	a5,a4,332
    4f28:	14f72423          	sw	a5,328(a4)
    4f2c:	0047a703          	lw	a4,4(a5)
    4f30:	01f00813          	li	a6,31
    4f34:	fff00513          	li	a0,-1
    4f38:	04e84a63          	blt	a6,a4,4f8c <__register_exitproc+0x78>
    4f3c:	00271893          	slli	a7,a4,0x2
    4f40:	02030c63          	beqz	t1,4f78 <__register_exitproc+0x64>
    4f44:	01178533          	add	a0,a5,a7
    4f48:	08c52423          	sw	a2,136(a0)
    4f4c:	1887a803          	lw	a6,392(a5)
    4f50:	00100613          	li	a2,1
    4f54:	00e61633          	sll	a2,a2,a4
    4f58:	00c86833          	or	a6,a6,a2
    4f5c:	1907a423          	sw	a6,392(a5)
    4f60:	10d52423          	sw	a3,264(a0)
    4f64:	00200693          	li	a3,2
    4f68:	00d31863          	bne	t1,a3,4f78 <__register_exitproc+0x64>
    4f6c:	18c7a683          	lw	a3,396(a5)
    4f70:	00c6e633          	or	a2,a3,a2
    4f74:	18c7a623          	sw	a2,396(a5)
    4f78:	00170713          	addi	a4,a4,1
    4f7c:	00e7a223          	sw	a4,4(a5)
    4f80:	011787b3          	add	a5,a5,a7
    4f84:	00b7a423          	sw	a1,8(a5)
    4f88:	00000513          	li	a0,0
    4f8c:	00008067          	ret

00004f90 <__call_exitprocs>:
    4f90:	fd010113          	addi	sp,sp,-48
    4f94:	01312e23          	sw	s3,28(sp)
    4f98:	a901a983          	lw	s3,-1392(gp) # 6748 <_global_impure_ptr>
    4f9c:	01412c23          	sw	s4,24(sp)
    4fa0:	01512a23          	sw	s5,20(sp)
    4fa4:	01612823          	sw	s6,16(sp)
    4fa8:	02112623          	sw	ra,44(sp)
    4fac:	02812423          	sw	s0,40(sp)
    4fb0:	02912223          	sw	s1,36(sp)
    4fb4:	03212023          	sw	s2,32(sp)
    4fb8:	01712623          	sw	s7,12(sp)
    4fbc:	00050a93          	mv	s5,a0
    4fc0:	00058a13          	mv	s4,a1
    4fc4:	00100b13          	li	s6,1
    4fc8:	1489a483          	lw	s1,328(s3)
    4fcc:	00048c63          	beqz	s1,4fe4 <__call_exitprocs+0x54>
    4fd0:	0044a403          	lw	s0,4(s1)
    4fd4:	fff40913          	addi	s2,s0,-1
    4fd8:	00241413          	slli	s0,s0,0x2
    4fdc:	00848433          	add	s0,s1,s0
    4fe0:	02095863          	bgez	s2,5010 <__call_exitprocs+0x80>
    4fe4:	02c12083          	lw	ra,44(sp)
    4fe8:	02812403          	lw	s0,40(sp)
    4fec:	02412483          	lw	s1,36(sp)
    4ff0:	02012903          	lw	s2,32(sp)
    4ff4:	01c12983          	lw	s3,28(sp)
    4ff8:	01812a03          	lw	s4,24(sp)
    4ffc:	01412a83          	lw	s5,20(sp)
    5000:	01012b03          	lw	s6,16(sp)
    5004:	00c12b83          	lw	s7,12(sp)
    5008:	03010113          	addi	sp,sp,48
    500c:	00008067          	ret
    5010:	000a0c63          	beqz	s4,5028 <__call_exitprocs+0x98>
    5014:	10442783          	lw	a5,260(s0)
    5018:	01478863          	beq	a5,s4,5028 <__call_exitprocs+0x98>
    501c:	fff90913          	addi	s2,s2,-1
    5020:	ffc40413          	addi	s0,s0,-4
    5024:	fbdff06f          	j	4fe0 <__call_exitprocs+0x50>
    5028:	0044a703          	lw	a4,4(s1)
    502c:	00442783          	lw	a5,4(s0)
    5030:	fff70713          	addi	a4,a4,-1
    5034:	03271c63          	bne	a4,s2,506c <__call_exitprocs+0xdc>
    5038:	0124a223          	sw	s2,4(s1)
    503c:	fe0780e3          	beqz	a5,501c <__call_exitprocs+0x8c>
    5040:	1884a683          	lw	a3,392(s1)
    5044:	012b1733          	sll	a4,s6,s2
    5048:	0044ab83          	lw	s7,4(s1)
    504c:	00d776b3          	and	a3,a4,a3
    5050:	02069263          	bnez	a3,5074 <__call_exitprocs+0xe4>
    5054:	000780e7          	jalr	a5
    5058:	0044a783          	lw	a5,4(s1)
    505c:	f77796e3          	bne	a5,s7,4fc8 <__call_exitprocs+0x38>
    5060:	1489a783          	lw	a5,328(s3)
    5064:	fa978ce3          	beq	a5,s1,501c <__call_exitprocs+0x8c>
    5068:	f61ff06f          	j	4fc8 <__call_exitprocs+0x38>
    506c:	00042223          	sw	zero,4(s0)
    5070:	fcdff06f          	j	503c <__call_exitprocs+0xac>
    5074:	18c4a683          	lw	a3,396(s1)
    5078:	08442583          	lw	a1,132(s0)
    507c:	00d77733          	and	a4,a4,a3
    5080:	00071863          	bnez	a4,5090 <__call_exitprocs+0x100>
    5084:	000a8513          	mv	a0,s5
    5088:	000780e7          	jalr	a5
    508c:	fcdff06f          	j	5058 <__call_exitprocs+0xc8>
    5090:	00058513          	mv	a0,a1
    5094:	000780e7          	jalr	a5
    5098:	fc1ff06f          	j	5058 <__call_exitprocs+0xc8>

0000509c <_exit>:
    509c:	00000593          	li	a1,0
    50a0:	00000613          	li	a2,0
    50a4:	00000693          	li	a3,0
    50a8:	00000713          	li	a4,0
    50ac:	00000793          	li	a5,0
    50b0:	05d00893          	li	a7,93
    50b4:	00000073          	ecall
    50b8:	02055263          	bgez	a0,50dc <_exit+0x40>
    50bc:	ff010113          	addi	sp,sp,-16
    50c0:	00812423          	sw	s0,8(sp)
    50c4:	00050413          	mv	s0,a0
    50c8:	00112623          	sw	ra,12(sp)
    50cc:	40800433          	neg	s0,s0
    50d0:	010000ef          	jal	ra,50e0 <__errno>
    50d4:	00852023          	sw	s0,0(a0)
    50d8:	0000006f          	j	50d8 <_exit+0x3c>
    50dc:	0000006f          	j	50dc <_exit+0x40>

000050e0 <__errno>:
    50e0:	a981a503          	lw	a0,-1384(gp) # 6750 <_impure_ptr>
    50e4:	00008067          	ret
