
./rv32i_main.elf:     file format elf32-littleriscv


Disassembly of section .text:

00000000 <my_start>:
       0:	00007137          	lui	sp,0x7
       4:	f2810113          	addi	sp,sp,-216 # 6f28 <__BSS_END__+0x204>
       8:	004000ef          	jal	ra,c <main>

0000000c <main>:
       c:	00000093          	li	ra,0
      10:	00000293          	li	t0,0
      14:	00000313          	li	t1,0
      18:	00000393          	li	t2,0
      1c:	00000413          	li	s0,0
      20:	00000493          	li	s1,0
      24:	00000513          	li	a0,0
      28:	00000593          	li	a1,0
      2c:	00000613          	li	a2,0
      30:	00000693          	li	a3,0
      34:	00000713          	li	a4,0
      38:	00000793          	li	a5,0
      3c:	00000813          	li	a6,0
      40:	00000893          	li	a7,0
      44:	00000913          	li	s2,0
      48:	00000993          	li	s3,0
      4c:	00000a13          	li	s4,0
      50:	00000a93          	li	s5,0
      54:	00000b13          	li	s6,0
      58:	00000b93          	li	s7,0
      5c:	00000c13          	li	s8,0
      60:	00000c93          	li	s9,0
      64:	00000d13          	li	s10,0
      68:	00000d93          	li	s11,0
      6c:	00000e13          	li	t3,0
      70:	00000e93          	li	t4,0
      74:	00000f13          	li	t5,0
      78:	00000f93          	li	t6,0
      7c:	225000ef          	jal	ra,aa0 <my_main>
      80:	010007b7          	lui	a5,0x1000
      84:	ffc78793          	addi	a5,a5,-4 # fffffc <__global_pointer$+0xff90a4>
      88:	01000737          	lui	a4,0x1000
      8c:	ffc70713          	addi	a4,a4,-4 # fffffc <__global_pointer$+0xff90a4>
      90:	00e7a023          	sw	a4,0(a5)

00000094 <loop>:
      94:	0000006f          	j	94 <loop>

00000098 <Normal>:
      98:	fa010113          	addi	sp,sp,-96
      9c:	04112e23          	sw	ra,92(sp)
      a0:	04812c23          	sw	s0,88(sp)
      a4:	05212a23          	sw	s2,84(sp)
      a8:	05312823          	sw	s3,80(sp)
      ac:	06010413          	addi	s0,sp,96
      b0:	faa42623          	sw	a0,-84(s0)
      b4:	fac42783          	lw	a5,-84(s0)
      b8:	00079663          	bnez	a5,c4 <Normal+0x2c>
      bc:	00000793          	li	a5,0
      c0:	3bc0006f          	j	47c <Normal+0x3e4>
      c4:	fac42783          	lw	a5,-84(s0)
      c8:	fef42623          	sw	a5,-20(s0)
      cc:	fac42783          	lw	a5,-84(s0)
      d0:	0007d863          	bgez	a5,e0 <Normal+0x48>
      d4:	fac42783          	lw	a5,-84(s0)
      d8:	40f007b3          	neg	a5,a5
      dc:	fef42623          	sw	a5,-20(s0)
      e0:	fe042223          	sw	zero,-28(s0)
      e4:	fe042023          	sw	zero,-32(s0)
      e8:	fc042e23          	sw	zero,-36(s0)
      ec:	00100793          	li	a5,1
      f0:	fcf42c23          	sw	a5,-40(s0)
      f4:	fff00793          	li	a5,-1
      f8:	fcf42a23          	sw	a5,-44(s0)
      fc:	00100793          	li	a5,1
     100:	fcf42823          	sw	a5,-48(s0)
     104:	000057b7          	lui	a5,0x5
     108:	52c7a803          	lw	a6,1324(a5) # 552c <__errno+0xc>
     10c:	5287a783          	lw	a5,1320(a5)
     110:	00078513          	mv	a0,a5
     114:	00080593          	mv	a1,a6
     118:	174010ef          	jal	ra,128c <sqrt>
     11c:	00050693          	mv	a3,a0
     120:	00058713          	mv	a4,a1
     124:	000057b7          	lui	a5,0x5
     128:	00068613          	mv	a2,a3
     12c:	00070693          	mv	a3,a4
     130:	5307a503          	lw	a0,1328(a5) # 5530 <__errno+0x10>
     134:	5347a583          	lw	a1,1332(a5)
     138:	0e9030ef          	jal	ra,3a20 <__divdf3>
     13c:	00050793          	mv	a5,a0
     140:	00058813          	mv	a6,a1
     144:	00078513          	mv	a0,a5
     148:	00080593          	mv	a1,a6
     14c:	184050ef          	jal	ra,52d0 <__fixdfsi>
     150:	00050793          	mv	a5,a0
     154:	fcf42623          	sw	a5,-52(s0)
     158:	fec42503          	lw	a0,-20(s0)
     15c:	1f4050ef          	jal	ra,5350 <__floatsidf>
     160:	000057b7          	lui	a5,0x5
     164:	53c7a803          	lw	a6,1340(a5) # 553c <__errno+0x1c>
     168:	5387a783          	lw	a5,1336(a5)
     16c:	00078613          	mv	a2,a5
     170:	00080693          	mv	a3,a6
     174:	4a5000ef          	jal	ra,e18 <pow>
     178:	00050793          	mv	a5,a0
     17c:	00058813          	mv	a6,a1
     180:	00078913          	mv	s2,a5
     184:	80000737          	lui	a4,0x80000
     188:	00e849b3          	xor	s3,a6,a4
     18c:	000057b7          	lui	a5,0x5
     190:	5387a603          	lw	a2,1336(a5) # 5538 <__errno+0x18>
     194:	53c7a683          	lw	a3,1340(a5)
     198:	00090513          	mv	a0,s2
     19c:	00098593          	mv	a1,s3
     1a0:	081030ef          	jal	ra,3a20 <__divdf3>
     1a4:	00050793          	mv	a5,a0
     1a8:	00058813          	mv	a6,a1
     1ac:	00078513          	mv	a0,a5
     1b0:	00080593          	mv	a1,a6
     1b4:	169000ef          	jal	ra,b1c <exp>
     1b8:	00050913          	mv	s2,a0
     1bc:	00058993          	mv	s3,a1
     1c0:	fcc42503          	lw	a0,-52(s0)
     1c4:	18c050ef          	jal	ra,5350 <__floatsidf>
     1c8:	00050793          	mv	a5,a0
     1cc:	00058813          	mv	a6,a1
     1d0:	00078613          	mv	a2,a5
     1d4:	00080693          	mv	a3,a6
     1d8:	00090513          	mv	a0,s2
     1dc:	00098593          	mv	a1,s3
     1e0:	26c040ef          	jal	ra,444c <__muldf3>
     1e4:	00050793          	mv	a5,a0
     1e8:	00058813          	mv	a6,a1
     1ec:	00078513          	mv	a0,a5
     1f0:	00080593          	mv	a1,a6
     1f4:	0dc050ef          	jal	ra,52d0 <__fixdfsi>
     1f8:	00050793          	mv	a5,a0
     1fc:	fcf42423          	sw	a5,-56(s0)
     200:	fec42583          	lw	a1,-20(s0)
     204:	fe442503          	lw	a0,-28(s0)
     208:	1f4050ef          	jal	ra,53fc <__mulsi3>
     20c:	00050793          	mv	a5,a0
     210:	00178793          	addi	a5,a5,1
     214:	00078593          	mv	a1,a5
     218:	fe042503          	lw	a0,-32(s0)
     21c:	204050ef          	jal	ra,5420 <__divsi3>
     220:	00050793          	mv	a5,a0
     224:	fcf42223          	sw	a5,-60(s0)
     228:	fdc42503          	lw	a0,-36(s0)
     22c:	124050ef          	jal	ra,5350 <__floatsidf>
     230:	00050913          	mv	s2,a0
     234:	00058993          	mv	s3,a1
     238:	fec42583          	lw	a1,-20(s0)
     23c:	fe442503          	lw	a0,-28(s0)
     240:	1bc050ef          	jal	ra,53fc <__mulsi3>
     244:	00050793          	mv	a5,a0
     248:	00178793          	addi	a5,a5,1
     24c:	00078513          	mv	a0,a5
     250:	100050ef          	jal	ra,5350 <__floatsidf>
     254:	000057b7          	lui	a5,0x5
     258:	53c7a803          	lw	a6,1340(a5) # 553c <__errno+0x1c>
     25c:	5387a783          	lw	a5,1336(a5)
     260:	00078613          	mv	a2,a5
     264:	00080693          	mv	a3,a6
     268:	3b1000ef          	jal	ra,e18 <pow>
     26c:	00050793          	mv	a5,a0
     270:	00058813          	mv	a6,a1
     274:	00078613          	mv	a2,a5
     278:	00080693          	mv	a3,a6
     27c:	00090513          	mv	a0,s2
     280:	00098593          	mv	a1,s3
     284:	79c030ef          	jal	ra,3a20 <__divdf3>
     288:	00050793          	mv	a5,a0
     28c:	00058813          	mv	a6,a1
     290:	00078513          	mv	a0,a5
     294:	00080593          	mv	a1,a6
     298:	038050ef          	jal	ra,52d0 <__fixdfsi>
     29c:	00050793          	mv	a5,a0
     2a0:	fcf42023          	sw	a5,-64(s0)
     2a4:	fd842503          	lw	a0,-40(s0)
     2a8:	0a8050ef          	jal	ra,5350 <__floatsidf>
     2ac:	00050913          	mv	s2,a0
     2b0:	00058993          	mv	s3,a1
     2b4:	fec42583          	lw	a1,-20(s0)
     2b8:	fe442503          	lw	a0,-28(s0)
     2bc:	140050ef          	jal	ra,53fc <__mulsi3>
     2c0:	00050793          	mv	a5,a0
     2c4:	00178793          	addi	a5,a5,1
     2c8:	00078513          	mv	a0,a5
     2cc:	084050ef          	jal	ra,5350 <__floatsidf>
     2d0:	000057b7          	lui	a5,0x5
     2d4:	5447a803          	lw	a6,1348(a5) # 5544 <__errno+0x24>
     2d8:	5407a783          	lw	a5,1344(a5)
     2dc:	00078613          	mv	a2,a5
     2e0:	00080693          	mv	a3,a6
     2e4:	335000ef          	jal	ra,e18 <pow>
     2e8:	00050793          	mv	a5,a0
     2ec:	00058813          	mv	a6,a1
     2f0:	00078613          	mv	a2,a5
     2f4:	00080693          	mv	a3,a6
     2f8:	00090513          	mv	a0,s2
     2fc:	00098593          	mv	a1,s3
     300:	720030ef          	jal	ra,3a20 <__divdf3>
     304:	00050793          	mv	a5,a0
     308:	00058813          	mv	a6,a1
     30c:	00078513          	mv	a0,a5
     310:	00080593          	mv	a1,a6
     314:	7bd040ef          	jal	ra,52d0 <__fixdfsi>
     318:	00050793          	mv	a5,a0
     31c:	faf42e23          	sw	a5,-68(s0)
     320:	fd442503          	lw	a0,-44(s0)
     324:	02c050ef          	jal	ra,5350 <__floatsidf>
     328:	00050913          	mv	s2,a0
     32c:	00058993          	mv	s3,a1
     330:	fec42583          	lw	a1,-20(s0)
     334:	fe442503          	lw	a0,-28(s0)
     338:	0c4050ef          	jal	ra,53fc <__mulsi3>
     33c:	00050793          	mv	a5,a0
     340:	00178793          	addi	a5,a5,1
     344:	00078513          	mv	a0,a5
     348:	008050ef          	jal	ra,5350 <__floatsidf>
     34c:	000057b7          	lui	a5,0x5
     350:	54c7a803          	lw	a6,1356(a5) # 554c <__errno+0x2c>
     354:	5487a783          	lw	a5,1352(a5)
     358:	00078613          	mv	a2,a5
     35c:	00080693          	mv	a3,a6
     360:	2b9000ef          	jal	ra,e18 <pow>
     364:	00050793          	mv	a5,a0
     368:	00058813          	mv	a6,a1
     36c:	00078613          	mv	a2,a5
     370:	00080693          	mv	a3,a6
     374:	00090513          	mv	a0,s2
     378:	00098593          	mv	a1,s3
     37c:	6a4030ef          	jal	ra,3a20 <__divdf3>
     380:	00050793          	mv	a5,a0
     384:	00058813          	mv	a6,a1
     388:	00078513          	mv	a0,a5
     38c:	00080593          	mv	a1,a6
     390:	741040ef          	jal	ra,52d0 <__fixdfsi>
     394:	00050793          	mv	a5,a0
     398:	faf42c23          	sw	a5,-72(s0)
     39c:	fd042503          	lw	a0,-48(s0)
     3a0:	7b1040ef          	jal	ra,5350 <__floatsidf>
     3a4:	00050913          	mv	s2,a0
     3a8:	00058993          	mv	s3,a1
     3ac:	fec42583          	lw	a1,-20(s0)
     3b0:	fe442503          	lw	a0,-28(s0)
     3b4:	048050ef          	jal	ra,53fc <__mulsi3>
     3b8:	00050793          	mv	a5,a0
     3bc:	00178793          	addi	a5,a5,1
     3c0:	00078513          	mv	a0,a5
     3c4:	78d040ef          	jal	ra,5350 <__floatsidf>
     3c8:	000057b7          	lui	a5,0x5
     3cc:	5547a803          	lw	a6,1364(a5) # 5554 <__errno+0x34>
     3d0:	5507a783          	lw	a5,1360(a5)
     3d4:	00078613          	mv	a2,a5
     3d8:	00080693          	mv	a3,a6
     3dc:	23d000ef          	jal	ra,e18 <pow>
     3e0:	00050793          	mv	a5,a0
     3e4:	00058813          	mv	a6,a1
     3e8:	00078613          	mv	a2,a5
     3ec:	00080693          	mv	a3,a6
     3f0:	00090513          	mv	a0,s2
     3f4:	00098593          	mv	a1,s3
     3f8:	628030ef          	jal	ra,3a20 <__divdf3>
     3fc:	00050793          	mv	a5,a0
     400:	00058813          	mv	a6,a1
     404:	00078513          	mv	a0,a5
     408:	00080593          	mv	a1,a6
     40c:	6c5040ef          	jal	ra,52d0 <__fixdfsi>
     410:	00050793          	mv	a5,a0
     414:	faf42a23          	sw	a5,-76(s0)
     418:	fc442703          	lw	a4,-60(s0)
     41c:	fc042783          	lw	a5,-64(s0)
     420:	00f70733          	add	a4,a4,a5
     424:	fbc42783          	lw	a5,-68(s0)
     428:	00f70733          	add	a4,a4,a5
     42c:	fb842783          	lw	a5,-72(s0)
     430:	00f70733          	add	a4,a4,a5
     434:	fb442783          	lw	a5,-76(s0)
     438:	00f707b3          	add	a5,a4,a5
     43c:	00078593          	mv	a1,a5
     440:	fc842503          	lw	a0,-56(s0)
     444:	7b9040ef          	jal	ra,53fc <__mulsi3>
     448:	00050793          	mv	a5,a0
     44c:	faf42823          	sw	a5,-80(s0)
     450:	fac42783          	lw	a5,-84(s0)
     454:	0007d663          	bgez	a5,460 <Normal+0x3c8>
     458:	fb042783          	lw	a5,-80(s0)
     45c:	fef42423          	sw	a5,-24(s0)
     460:	fac42783          	lw	a5,-84(s0)
     464:	00f05a63          	blez	a5,478 <Normal+0x3e0>
     468:	00100713          	li	a4,1
     46c:	fb042783          	lw	a5,-80(s0)
     470:	40f707b3          	sub	a5,a4,a5
     474:	fef42423          	sw	a5,-24(s0)
     478:	fe842783          	lw	a5,-24(s0)
     47c:	00078513          	mv	a0,a5
     480:	05c12083          	lw	ra,92(sp)
     484:	05812403          	lw	s0,88(sp)
     488:	05412903          	lw	s2,84(sp)
     48c:	05012983          	lw	s3,80(sp)
     490:	06010113          	addi	sp,sp,96
     494:	00008067          	ret

00000498 <callValue>:
     498:	f9010113          	addi	sp,sp,-112
     49c:	06112623          	sw	ra,108(sp)
     4a0:	06812423          	sw	s0,104(sp)
     4a4:	06912223          	sw	s1,100(sp)
     4a8:	07212023          	sw	s2,96(sp)
     4ac:	05312e23          	sw	s3,92(sp)
     4b0:	05412c23          	sw	s4,88(sp)
     4b4:	05512a23          	sw	s5,84(sp)
     4b8:	07010413          	addi	s0,sp,112
     4bc:	faa42623          	sw	a0,-84(s0)
     4c0:	fab42423          	sw	a1,-88(s0)
     4c4:	fac42223          	sw	a2,-92(s0)
     4c8:	fad42023          	sw	a3,-96(s0)
     4cc:	f8e42e23          	sw	a4,-100(s0)
     4d0:	fa842503          	lw	a0,-88(s0)
     4d4:	67d040ef          	jal	ra,5350 <__floatsidf>
     4d8:	00050793          	mv	a5,a0
     4dc:	00058813          	mv	a6,a1
     4e0:	00078513          	mv	a0,a5
     4e4:	00080593          	mv	a1,a6
     4e8:	7b4000ef          	jal	ra,c9c <log>
     4ec:	00050793          	mv	a5,a0
     4f0:	00058813          	mv	a6,a1
     4f4:	00078513          	mv	a0,a5
     4f8:	00080593          	mv	a1,a6
     4fc:	5d5040ef          	jal	ra,52d0 <__fixdfsi>
     500:	00050793          	mv	a5,a0
     504:	fcf42e23          	sw	a5,-36(s0)
     508:	fac42503          	lw	a0,-84(s0)
     50c:	645040ef          	jal	ra,5350 <__floatsidf>
     510:	00050793          	mv	a5,a0
     514:	00058813          	mv	a6,a1
     518:	00078513          	mv	a0,a5
     51c:	00080593          	mv	a1,a6
     520:	77c000ef          	jal	ra,c9c <log>
     524:	00050793          	mv	a5,a0
     528:	00058813          	mv	a6,a1
     52c:	00078513          	mv	a0,a5
     530:	00080593          	mv	a1,a6
     534:	59d040ef          	jal	ra,52d0 <__fixdfsi>
     538:	00050793          	mv	a5,a0
     53c:	fcf42c23          	sw	a5,-40(s0)
     540:	f9c42783          	lw	a5,-100(s0)
     544:	16d00593          	li	a1,365
     548:	00078513          	mv	a0,a5
     54c:	6d5040ef          	jal	ra,5420 <__divsi3>
     550:	00050793          	mv	a5,a0
     554:	fcf42a23          	sw	a5,-44(s0)
     558:	fa442503          	lw	a0,-92(s0)
     55c:	5f5040ef          	jal	ra,5350 <__floatsidf>
     560:	000057b7          	lui	a5,0x5
     564:	53c7a803          	lw	a6,1340(a5) # 553c <__errno+0x1c>
     568:	5387a783          	lw	a5,1336(a5)
     56c:	00078613          	mv	a2,a5
     570:	00080693          	mv	a3,a6
     574:	0a5000ef          	jal	ra,e18 <pow>
     578:	00050793          	mv	a5,a0
     57c:	00058813          	mv	a6,a1
     580:	00078513          	mv	a0,a5
     584:	00080593          	mv	a1,a6
     588:	549040ef          	jal	ra,52d0 <__fixdfsi>
     58c:	00050793          	mv	a5,a0
     590:	fcf42823          	sw	a5,-48(s0)
     594:	fdc42703          	lw	a4,-36(s0)
     598:	fd842783          	lw	a5,-40(s0)
     59c:	40f704b3          	sub	s1,a4,a5
     5a0:	fd442583          	lw	a1,-44(s0)
     5a4:	fa042503          	lw	a0,-96(s0)
     5a8:	655040ef          	jal	ra,53fc <__mulsi3>
     5ac:	00050793          	mv	a5,a0
     5b0:	00f484b3          	add	s1,s1,a5
     5b4:	fd442583          	lw	a1,-44(s0)
     5b8:	fd042503          	lw	a0,-48(s0)
     5bc:	641040ef          	jal	ra,53fc <__mulsi3>
     5c0:	00050793          	mv	a5,a0
     5c4:	01f7d713          	srli	a4,a5,0x1f
     5c8:	00f707b3          	add	a5,a4,a5
     5cc:	4017d793          	srai	a5,a5,0x1
     5d0:	00f487b3          	add	a5,s1,a5
     5d4:	fcf42623          	sw	a5,-52(s0)
     5d8:	f9c42783          	lw	a5,-100(s0)
     5dc:	16d00593          	li	a1,365
     5e0:	00078513          	mv	a0,a5
     5e4:	63d040ef          	jal	ra,5420 <__divsi3>
     5e8:	00050793          	mv	a5,a0
     5ec:	00078513          	mv	a0,a5
     5f0:	561040ef          	jal	ra,5350 <__floatsidf>
     5f4:	00050793          	mv	a5,a0
     5f8:	00058813          	mv	a6,a1
     5fc:	00078513          	mv	a0,a5
     600:	00080593          	mv	a1,a6
     604:	489000ef          	jal	ra,128c <sqrt>
     608:	00050793          	mv	a5,a0
     60c:	00058813          	mv	a6,a1
     610:	00078513          	mv	a0,a5
     614:	00080593          	mv	a1,a6
     618:	4b9040ef          	jal	ra,52d0 <__fixdfsi>
     61c:	00050793          	mv	a5,a0
     620:	fcf42423          	sw	a5,-56(s0)
     624:	fc842583          	lw	a1,-56(s0)
     628:	fa442503          	lw	a0,-92(s0)
     62c:	5d1040ef          	jal	ra,53fc <__mulsi3>
     630:	00050793          	mv	a5,a0
     634:	fcf42223          	sw	a5,-60(s0)
     638:	fc442583          	lw	a1,-60(s0)
     63c:	fcc42503          	lw	a0,-52(s0)
     640:	5e1040ef          	jal	ra,5420 <__divsi3>
     644:	00050793          	mv	a5,a0
     648:	fcf42023          	sw	a5,-64(s0)
     64c:	fc842583          	lw	a1,-56(s0)
     650:	fa442503          	lw	a0,-92(s0)
     654:	5a9040ef          	jal	ra,53fc <__mulsi3>
     658:	00050793          	mv	a5,a0
     65c:	00078713          	mv	a4,a5
     660:	fc042783          	lw	a5,-64(s0)
     664:	40e787b3          	sub	a5,a5,a4
     668:	faf42e23          	sw	a5,-68(s0)
     66c:	fc042503          	lw	a0,-64(s0)
     670:	a29ff0ef          	jal	ra,98 <Normal>
     674:	faa42c23          	sw	a0,-72(s0)
     678:	fbc42503          	lw	a0,-68(s0)
     67c:	a1dff0ef          	jal	ra,98 <Normal>
     680:	faa42a23          	sw	a0,-76(s0)
     684:	fb842583          	lw	a1,-72(s0)
     688:	fa842503          	lw	a0,-88(s0)
     68c:	571040ef          	jal	ra,53fc <__mulsi3>
     690:	00050793          	mv	a5,a0
     694:	00078513          	mv	a0,a5
     698:	4b9040ef          	jal	ra,5350 <__floatsidf>
     69c:	00050913          	mv	s2,a0
     6a0:	00058993          	mv	s3,a1
     6a4:	fac42503          	lw	a0,-84(s0)
     6a8:	4a9040ef          	jal	ra,5350 <__floatsidf>
     6ac:	00050a13          	mv	s4,a0
     6b0:	00058a93          	mv	s5,a1
     6b4:	fa042783          	lw	a5,-96(s0)
     6b8:	40f007b3          	neg	a5,a5
     6bc:	fd442583          	lw	a1,-44(s0)
     6c0:	00078513          	mv	a0,a5
     6c4:	539040ef          	jal	ra,53fc <__mulsi3>
     6c8:	00050793          	mv	a5,a0
     6cc:	00078513          	mv	a0,a5
     6d0:	481040ef          	jal	ra,5350 <__floatsidf>
     6d4:	00050793          	mv	a5,a0
     6d8:	00058813          	mv	a6,a1
     6dc:	00078513          	mv	a0,a5
     6e0:	00080593          	mv	a1,a6
     6e4:	438000ef          	jal	ra,b1c <exp>
     6e8:	00050793          	mv	a5,a0
     6ec:	00058813          	mv	a6,a1
     6f0:	00078613          	mv	a2,a5
     6f4:	00080693          	mv	a3,a6
     6f8:	000a0513          	mv	a0,s4
     6fc:	000a8593          	mv	a1,s5
     700:	54d030ef          	jal	ra,444c <__muldf3>
     704:	00050793          	mv	a5,a0
     708:	00058813          	mv	a6,a1
     70c:	00078a13          	mv	s4,a5
     710:	00080a93          	mv	s5,a6
     714:	fb442503          	lw	a0,-76(s0)
     718:	439040ef          	jal	ra,5350 <__floatsidf>
     71c:	00050793          	mv	a5,a0
     720:	00058813          	mv	a6,a1
     724:	00078613          	mv	a2,a5
     728:	00080693          	mv	a3,a6
     72c:	000a0513          	mv	a0,s4
     730:	000a8593          	mv	a1,s5
     734:	519030ef          	jal	ra,444c <__muldf3>
     738:	00050793          	mv	a5,a0
     73c:	00058813          	mv	a6,a1
     740:	00078613          	mv	a2,a5
     744:	00080693          	mv	a3,a6
     748:	00090513          	mv	a0,s2
     74c:	00098593          	mv	a1,s3
     750:	370040ef          	jal	ra,4ac0 <__subdf3>
     754:	00050793          	mv	a5,a0
     758:	00058813          	mv	a6,a1
     75c:	00078513          	mv	a0,a5
     760:	00080593          	mv	a1,a6
     764:	36d040ef          	jal	ra,52d0 <__fixdfsi>
     768:	00050793          	mv	a5,a0
     76c:	00078513          	mv	a0,a5
     770:	06c12083          	lw	ra,108(sp)
     774:	06812403          	lw	s0,104(sp)
     778:	06412483          	lw	s1,100(sp)
     77c:	06012903          	lw	s2,96(sp)
     780:	05c12983          	lw	s3,92(sp)
     784:	05812a03          	lw	s4,88(sp)
     788:	05412a83          	lw	s5,84(sp)
     78c:	07010113          	addi	sp,sp,112
     790:	00008067          	ret

00000794 <putValue>:
     794:	f9010113          	addi	sp,sp,-112
     798:	06112623          	sw	ra,108(sp)
     79c:	06812423          	sw	s0,104(sp)
     7a0:	06912223          	sw	s1,100(sp)
     7a4:	07212023          	sw	s2,96(sp)
     7a8:	05312e23          	sw	s3,92(sp)
     7ac:	07010413          	addi	s0,sp,112
     7b0:	faa42623          	sw	a0,-84(s0)
     7b4:	fab42423          	sw	a1,-88(s0)
     7b8:	fac42223          	sw	a2,-92(s0)
     7bc:	fad42023          	sw	a3,-96(s0)
     7c0:	f8e42e23          	sw	a4,-100(s0)
     7c4:	fa842503          	lw	a0,-88(s0)
     7c8:	389040ef          	jal	ra,5350 <__floatsidf>
     7cc:	00050793          	mv	a5,a0
     7d0:	00058813          	mv	a6,a1
     7d4:	00078513          	mv	a0,a5
     7d8:	00080593          	mv	a1,a6
     7dc:	4c0000ef          	jal	ra,c9c <log>
     7e0:	00050793          	mv	a5,a0
     7e4:	00058813          	mv	a6,a1
     7e8:	00078513          	mv	a0,a5
     7ec:	00080593          	mv	a1,a6
     7f0:	2e1040ef          	jal	ra,52d0 <__fixdfsi>
     7f4:	00050793          	mv	a5,a0
     7f8:	fcf42e23          	sw	a5,-36(s0)
     7fc:	fac42503          	lw	a0,-84(s0)
     800:	351040ef          	jal	ra,5350 <__floatsidf>
     804:	00050793          	mv	a5,a0
     808:	00058813          	mv	a6,a1
     80c:	00078513          	mv	a0,a5
     810:	00080593          	mv	a1,a6
     814:	488000ef          	jal	ra,c9c <log>
     818:	00050793          	mv	a5,a0
     81c:	00058813          	mv	a6,a1
     820:	00078513          	mv	a0,a5
     824:	00080593          	mv	a1,a6
     828:	2a9040ef          	jal	ra,52d0 <__fixdfsi>
     82c:	00050793          	mv	a5,a0
     830:	fcf42c23          	sw	a5,-40(s0)
     834:	f9c42783          	lw	a5,-100(s0)
     838:	16d00593          	li	a1,365
     83c:	00078513          	mv	a0,a5
     840:	3e1040ef          	jal	ra,5420 <__divsi3>
     844:	00050793          	mv	a5,a0
     848:	fcf42a23          	sw	a5,-44(s0)
     84c:	fa442503          	lw	a0,-92(s0)
     850:	301040ef          	jal	ra,5350 <__floatsidf>
     854:	000057b7          	lui	a5,0x5
     858:	53c7a803          	lw	a6,1340(a5) # 553c <__errno+0x1c>
     85c:	5387a783          	lw	a5,1336(a5)
     860:	00078613          	mv	a2,a5
     864:	00080693          	mv	a3,a6
     868:	5b0000ef          	jal	ra,e18 <pow>
     86c:	00050793          	mv	a5,a0
     870:	00058813          	mv	a6,a1
     874:	00078513          	mv	a0,a5
     878:	00080593          	mv	a1,a6
     87c:	255040ef          	jal	ra,52d0 <__fixdfsi>
     880:	00050793          	mv	a5,a0
     884:	fcf42823          	sw	a5,-48(s0)
     888:	fdc42703          	lw	a4,-36(s0)
     88c:	fd842783          	lw	a5,-40(s0)
     890:	40f704b3          	sub	s1,a4,a5
     894:	fd442583          	lw	a1,-44(s0)
     898:	fa042503          	lw	a0,-96(s0)
     89c:	361040ef          	jal	ra,53fc <__mulsi3>
     8a0:	00050793          	mv	a5,a0
     8a4:	00f484b3          	add	s1,s1,a5
     8a8:	fd442583          	lw	a1,-44(s0)
     8ac:	fd042503          	lw	a0,-48(s0)
     8b0:	34d040ef          	jal	ra,53fc <__mulsi3>
     8b4:	00050793          	mv	a5,a0
     8b8:	01f7d713          	srli	a4,a5,0x1f
     8bc:	00f707b3          	add	a5,a4,a5
     8c0:	4017d793          	srai	a5,a5,0x1
     8c4:	00f487b3          	add	a5,s1,a5
     8c8:	fcf42623          	sw	a5,-52(s0)
     8cc:	f9c42783          	lw	a5,-100(s0)
     8d0:	16d00593          	li	a1,365
     8d4:	00078513          	mv	a0,a5
     8d8:	349040ef          	jal	ra,5420 <__divsi3>
     8dc:	00050793          	mv	a5,a0
     8e0:	00078513          	mv	a0,a5
     8e4:	26d040ef          	jal	ra,5350 <__floatsidf>
     8e8:	00050793          	mv	a5,a0
     8ec:	00058813          	mv	a6,a1
     8f0:	00078513          	mv	a0,a5
     8f4:	00080593          	mv	a1,a6
     8f8:	195000ef          	jal	ra,128c <sqrt>
     8fc:	00050793          	mv	a5,a0
     900:	00058813          	mv	a6,a1
     904:	00078513          	mv	a0,a5
     908:	00080593          	mv	a1,a6
     90c:	1c5040ef          	jal	ra,52d0 <__fixdfsi>
     910:	00050793          	mv	a5,a0
     914:	fcf42423          	sw	a5,-56(s0)
     918:	fc842583          	lw	a1,-56(s0)
     91c:	fa442503          	lw	a0,-92(s0)
     920:	2dd040ef          	jal	ra,53fc <__mulsi3>
     924:	00050793          	mv	a5,a0
     928:	fcf42223          	sw	a5,-60(s0)
     92c:	fc442583          	lw	a1,-60(s0)
     930:	fcc42503          	lw	a0,-52(s0)
     934:	2ed040ef          	jal	ra,5420 <__divsi3>
     938:	00050793          	mv	a5,a0
     93c:	fcf42023          	sw	a5,-64(s0)
     940:	fc842583          	lw	a1,-56(s0)
     944:	fa442503          	lw	a0,-92(s0)
     948:	2b5040ef          	jal	ra,53fc <__mulsi3>
     94c:	00050793          	mv	a5,a0
     950:	00078713          	mv	a4,a5
     954:	fc042783          	lw	a5,-64(s0)
     958:	40e787b3          	sub	a5,a5,a4
     95c:	faf42e23          	sw	a5,-68(s0)
     960:	fc042503          	lw	a0,-64(s0)
     964:	f34ff0ef          	jal	ra,98 <Normal>
     968:	faa42c23          	sw	a0,-72(s0)
     96c:	fbc42503          	lw	a0,-68(s0)
     970:	f28ff0ef          	jal	ra,98 <Normal>
     974:	faa42a23          	sw	a0,-76(s0)
     978:	fac42503          	lw	a0,-84(s0)
     97c:	1d5040ef          	jal	ra,5350 <__floatsidf>
     980:	00050913          	mv	s2,a0
     984:	00058993          	mv	s3,a1
     988:	fa042783          	lw	a5,-96(s0)
     98c:	40f007b3          	neg	a5,a5
     990:	fd442583          	lw	a1,-44(s0)
     994:	00078513          	mv	a0,a5
     998:	265040ef          	jal	ra,53fc <__mulsi3>
     99c:	00050793          	mv	a5,a0
     9a0:	00078513          	mv	a0,a5
     9a4:	1ad040ef          	jal	ra,5350 <__floatsidf>
     9a8:	00050793          	mv	a5,a0
     9ac:	00058813          	mv	a6,a1
     9b0:	00078513          	mv	a0,a5
     9b4:	00080593          	mv	a1,a6
     9b8:	164000ef          	jal	ra,b1c <exp>
     9bc:	00050793          	mv	a5,a0
     9c0:	00058813          	mv	a6,a1
     9c4:	00078613          	mv	a2,a5
     9c8:	00080693          	mv	a3,a6
     9cc:	00090513          	mv	a0,s2
     9d0:	00098593          	mv	a1,s3
     9d4:	279030ef          	jal	ra,444c <__muldf3>
     9d8:	00050793          	mv	a5,a0
     9dc:	00058813          	mv	a6,a1
     9e0:	00078913          	mv	s2,a5
     9e4:	00080993          	mv	s3,a6
     9e8:	00100713          	li	a4,1
     9ec:	fb442783          	lw	a5,-76(s0)
     9f0:	40f707b3          	sub	a5,a4,a5
     9f4:	00078513          	mv	a0,a5
     9f8:	159040ef          	jal	ra,5350 <__floatsidf>
     9fc:	00050793          	mv	a5,a0
     a00:	00058813          	mv	a6,a1
     a04:	00078613          	mv	a2,a5
     a08:	00080693          	mv	a3,a6
     a0c:	00090513          	mv	a0,s2
     a10:	00098593          	mv	a1,s3
     a14:	239030ef          	jal	ra,444c <__muldf3>
     a18:	00050793          	mv	a5,a0
     a1c:	00058813          	mv	a6,a1
     a20:	00078913          	mv	s2,a5
     a24:	00080993          	mv	s3,a6
     a28:	00100713          	li	a4,1
     a2c:	fb842783          	lw	a5,-72(s0)
     a30:	40f707b3          	sub	a5,a4,a5
     a34:	fa842583          	lw	a1,-88(s0)
     a38:	00078513          	mv	a0,a5
     a3c:	1c1040ef          	jal	ra,53fc <__mulsi3>
     a40:	00050793          	mv	a5,a0
     a44:	00078513          	mv	a0,a5
     a48:	109040ef          	jal	ra,5350 <__floatsidf>
     a4c:	00050793          	mv	a5,a0
     a50:	00058813          	mv	a6,a1
     a54:	00078613          	mv	a2,a5
     a58:	00080693          	mv	a3,a6
     a5c:	00090513          	mv	a0,s2
     a60:	00098593          	mv	a1,s3
     a64:	05c040ef          	jal	ra,4ac0 <__subdf3>
     a68:	00050793          	mv	a5,a0
     a6c:	00058813          	mv	a6,a1
     a70:	00078513          	mv	a0,a5
     a74:	00080593          	mv	a1,a6
     a78:	059040ef          	jal	ra,52d0 <__fixdfsi>
     a7c:	00050793          	mv	a5,a0
     a80:	00078513          	mv	a0,a5
     a84:	06c12083          	lw	ra,108(sp)
     a88:	06812403          	lw	s0,104(sp)
     a8c:	06412483          	lw	s1,100(sp)
     a90:	06012903          	lw	s2,96(sp)
     a94:	05c12983          	lw	s3,92(sp)
     a98:	07010113          	addi	sp,sp,112
     a9c:	00008067          	ret

00000aa0 <my_main>:
     aa0:	fc010113          	addi	sp,sp,-64
     aa4:	02112e23          	sw	ra,60(sp)
     aa8:	02812c23          	sw	s0,56(sp)
     aac:	04010413          	addi	s0,sp,64
     ab0:	fca42623          	sw	a0,-52(s0)
     ab4:	fcb42423          	sw	a1,-56(s0)
     ab8:	00100793          	li	a5,1
     abc:	fef42623          	sw	a5,-20(s0)
     ac0:	00200793          	li	a5,2
     ac4:	fef42423          	sw	a5,-24(s0)
     ac8:	fe042223          	sw	zero,-28(s0)
     acc:	fe042023          	sw	zero,-32(s0)
     ad0:	00500793          	li	a5,5
     ad4:	fcf42e23          	sw	a5,-36(s0)
     ad8:	fdc42703          	lw	a4,-36(s0)
     adc:	fe042683          	lw	a3,-32(s0)
     ae0:	fe442603          	lw	a2,-28(s0)
     ae4:	fe842583          	lw	a1,-24(s0)
     ae8:	fec42503          	lw	a0,-20(s0)
     aec:	ca9ff0ef          	jal	ra,794 <putValue>
     af0:	fdc42703          	lw	a4,-36(s0)
     af4:	fe042683          	lw	a3,-32(s0)
     af8:	fe442603          	lw	a2,-28(s0)
     afc:	fe842583          	lw	a1,-24(s0)
     b00:	fec42503          	lw	a0,-20(s0)
     b04:	995ff0ef          	jal	ra,498 <callValue>
     b08:	00000013          	nop
     b0c:	03c12083          	lw	ra,60(sp)
     b10:	03812403          	lw	s0,56(sp)
     b14:	04010113          	addi	sp,sp,64
     b18:	00008067          	ret

00000b1c <exp>:
     b1c:	fb010113          	addi	sp,sp,-80
     b20:	04812423          	sw	s0,72(sp)
     b24:	04912223          	sw	s1,68(sp)
     b28:	05212023          	sw	s2,64(sp)
     b2c:	03312e23          	sw	s3,60(sp)
     b30:	03412c23          	sw	s4,56(sp)
     b34:	04112623          	sw	ra,76(sp)
     b38:	00050413          	mv	s0,a0
     b3c:	00058493          	mv	s1,a1
     b40:	071000ef          	jal	ra,13b0 <__ieee754_exp>
     b44:	dc41a703          	lw	a4,-572(gp) # 6d1c <__fdlib_version>
     b48:	fff00793          	li	a5,-1
     b4c:	00050913          	mv	s2,a0
     b50:	00058993          	mv	s3,a1
     b54:	08f70e63          	beq	a4,a5,bf0 <exp+0xd4>
     b58:	00040513          	mv	a0,s0
     b5c:	00048593          	mv	a1,s1
     b60:	348020ef          	jal	ra,2ea8 <finite>
     b64:	08050663          	beqz	a0,bf0 <exp+0xd4>
     b68:	000077b7          	lui	a5,0x7
     b6c:	b807a603          	lw	a2,-1152(a5) # 6b80 <__SDATA_BEGIN__>
     b70:	b847a683          	lw	a3,-1148(a5)
     b74:	00040513          	mv	a0,s0
     b78:	00048593          	mv	a1,s1
     b7c:	700030ef          	jal	ra,427c <__gedf2>
     b80:	0ca05263          	blez	a0,c44 <exp+0x128>
     b84:	00300793          	li	a5,3
     b88:	00f12423          	sw	a5,8(sp)
     b8c:	000057b7          	lui	a5,0x5
     b90:	55878793          	addi	a5,a5,1368 # 5558 <__errno+0x38>
     b94:	00f12623          	sw	a5,12(sp)
     b98:	dc41a783          	lw	a5,-572(gp) # 6d1c <__fdlib_version>
     b9c:	02012423          	sw	zero,40(sp)
     ba0:	00812c23          	sw	s0,24(sp)
     ba4:	00912e23          	sw	s1,28(sp)
     ba8:	00812823          	sw	s0,16(sp)
     bac:	00912a23          	sw	s1,20(sp)
     bb0:	06079463          	bnez	a5,c18 <exp+0xfc>
     bb4:	000077b7          	lui	a5,0x7
     bb8:	b887a703          	lw	a4,-1144(a5) # 6b88 <__SDATA_BEGIN__+0x8>
     bbc:	b8c7a783          	lw	a5,-1140(a5)
     bc0:	02e12023          	sw	a4,32(sp)
     bc4:	02f12223          	sw	a5,36(sp)
     bc8:	00810513          	addi	a0,sp,8
     bcc:	2f4020ef          	jal	ra,2ec0 <matherr>
     bd0:	06050263          	beqz	a0,c34 <exp+0x118>
     bd4:	02812783          	lw	a5,40(sp)
     bd8:	00078863          	beqz	a5,be8 <exp+0xcc>
     bdc:	145040ef          	jal	ra,5520 <__errno>
     be0:	02812783          	lw	a5,40(sp)
     be4:	00f52023          	sw	a5,0(a0)
     be8:	02012903          	lw	s2,32(sp)
     bec:	02412983          	lw	s3,36(sp)
     bf0:	04c12083          	lw	ra,76(sp)
     bf4:	04812403          	lw	s0,72(sp)
     bf8:	00090513          	mv	a0,s2
     bfc:	00098593          	mv	a1,s3
     c00:	04412483          	lw	s1,68(sp)
     c04:	04012903          	lw	s2,64(sp)
     c08:	03c12983          	lw	s3,60(sp)
     c0c:	03812a03          	lw	s4,56(sp)
     c10:	05010113          	addi	sp,sp,80
     c14:	00008067          	ret
     c18:	00007737          	lui	a4,0x7
     c1c:	b9072603          	lw	a2,-1136(a4) # 6b90 <__SDATA_BEGIN__+0x10>
     c20:	b9472683          	lw	a3,-1132(a4)
     c24:	00200713          	li	a4,2
     c28:	02c12023          	sw	a2,32(sp)
     c2c:	02d12223          	sw	a3,36(sp)
     c30:	f8f71ce3          	bne	a4,a5,bc8 <exp+0xac>
     c34:	0ed040ef          	jal	ra,5520 <__errno>
     c38:	02200793          	li	a5,34
     c3c:	00f52023          	sw	a5,0(a0)
     c40:	f95ff06f          	j	bd4 <exp+0xb8>
     c44:	000077b7          	lui	a5,0x7
     c48:	b987a603          	lw	a2,-1128(a5) # 6b98 <__SDATA_BEGIN__+0x18>
     c4c:	b9c7a683          	lw	a3,-1124(a5)
     c50:	00040513          	mv	a0,s0
     c54:	00048593          	mv	a1,s1
     c58:	70c030ef          	jal	ra,4364 <__ledf2>
     c5c:	f8055ae3          	bgez	a0,bf0 <exp+0xd4>
     c60:	00400793          	li	a5,4
     c64:	00f12423          	sw	a5,8(sp)
     c68:	000057b7          	lui	a5,0x5
     c6c:	55878793          	addi	a5,a5,1368 # 5558 <__errno+0x38>
     c70:	00f12623          	sw	a5,12(sp)
     c74:	02012423          	sw	zero,40(sp)
     c78:	00812c23          	sw	s0,24(sp)
     c7c:	00912e23          	sw	s1,28(sp)
     c80:	00812823          	sw	s0,16(sp)
     c84:	00912a23          	sw	s1,20(sp)
     c88:	02012023          	sw	zero,32(sp)
     c8c:	02012223          	sw	zero,36(sp)
     c90:	dc41a703          	lw	a4,-572(gp) # 6d1c <__fdlib_version>
     c94:	00200793          	li	a5,2
     c98:	f99ff06f          	j	c30 <exp+0x114>

00000c9c <log>:
     c9c:	fb010113          	addi	sp,sp,-80
     ca0:	04812423          	sw	s0,72(sp)
     ca4:	04912223          	sw	s1,68(sp)
     ca8:	05212023          	sw	s2,64(sp)
     cac:	03412e23          	sw	s4,60(sp)
     cb0:	03512c23          	sw	s5,56(sp)
     cb4:	04112623          	sw	ra,76(sp)
     cb8:	00050413          	mv	s0,a0
     cbc:	00058493          	mv	s1,a1
     cc0:	32d000ef          	jal	ra,17ec <__ieee754_log>
     cc4:	dc41a903          	lw	s2,-572(gp) # 6d1c <__fdlib_version>
     cc8:	fff00793          	li	a5,-1
     ccc:	00050a13          	mv	s4,a0
     cd0:	00058a93          	mv	s5,a1
     cd4:	0cf90c63          	beq	s2,a5,dac <log+0x110>
     cd8:	00040613          	mv	a2,s0
     cdc:	00048693          	mv	a3,s1
     ce0:	00040513          	mv	a0,s0
     ce4:	00048593          	mv	a1,s1
     ce8:	59c040ef          	jal	ra,5284 <__unorddf2>
     cec:	0c051063          	bnez	a0,dac <log+0x110>
     cf0:	00000613          	li	a2,0
     cf4:	00000693          	li	a3,0
     cf8:	00040513          	mv	a0,s0
     cfc:	00048593          	mv	a1,s1
     d00:	57c030ef          	jal	ra,427c <__gedf2>
     d04:	0aa04463          	bgtz	a0,dac <log+0x110>
     d08:	000057b7          	lui	a5,0x5
     d0c:	55c78793          	addi	a5,a5,1372 # 555c <__errno+0x3c>
     d10:	00f12623          	sw	a5,12(sp)
     d14:	02012423          	sw	zero,40(sp)
     d18:	00812823          	sw	s0,16(sp)
     d1c:	00912a23          	sw	s1,20(sp)
     d20:	00812c23          	sw	s0,24(sp)
     d24:	00912e23          	sw	s1,28(sp)
     d28:	04091663          	bnez	s2,d74 <log+0xd8>
     d2c:	000077b7          	lui	a5,0x7
     d30:	ba07a703          	lw	a4,-1120(a5) # 6ba0 <__SDATA_BEGIN__+0x20>
     d34:	ba47a783          	lw	a5,-1116(a5)
     d38:	00000613          	li	a2,0
     d3c:	00000693          	li	a3,0
     d40:	00040513          	mv	a0,s0
     d44:	00048593          	mv	a1,s1
     d48:	02e12023          	sw	a4,32(sp)
     d4c:	02f12223          	sw	a5,36(sp)
     d50:	4a0030ef          	jal	ra,41f0 <__eqdf2>
     d54:	08051063          	bnez	a0,dd4 <log+0x138>
     d58:	00200793          	li	a5,2
     d5c:	00f12423          	sw	a5,8(sp)
     d60:	02f91263          	bne	s2,a5,d84 <log+0xe8>
     d64:	7bc040ef          	jal	ra,5520 <__errno>
     d68:	02200793          	li	a5,34
     d6c:	00f52023          	sw	a5,0(a0)
     d70:	0200006f          	j	d90 <log+0xf4>
     d74:	000077b7          	lui	a5,0x7
     d78:	ba87a703          	lw	a4,-1112(a5) # 6ba8 <__SDATA_BEGIN__+0x28>
     d7c:	bac7a783          	lw	a5,-1108(a5)
     d80:	fb9ff06f          	j	d38 <log+0x9c>
     d84:	00810513          	addi	a0,sp,8
     d88:	138020ef          	jal	ra,2ec0 <matherr>
     d8c:	fc050ce3          	beqz	a0,d64 <log+0xc8>
     d90:	02812783          	lw	a5,40(sp)
     d94:	00078863          	beqz	a5,da4 <log+0x108>
     d98:	788040ef          	jal	ra,5520 <__errno>
     d9c:	02812783          	lw	a5,40(sp)
     da0:	00f52023          	sw	a5,0(a0)
     da4:	02012a03          	lw	s4,32(sp)
     da8:	02412a83          	lw	s5,36(sp)
     dac:	04c12083          	lw	ra,76(sp)
     db0:	04812403          	lw	s0,72(sp)
     db4:	000a0513          	mv	a0,s4
     db8:	000a8593          	mv	a1,s5
     dbc:	04412483          	lw	s1,68(sp)
     dc0:	04012903          	lw	s2,64(sp)
     dc4:	03c12a03          	lw	s4,60(sp)
     dc8:	03812a83          	lw	s5,56(sp)
     dcc:	05010113          	addi	sp,sp,80
     dd0:	00008067          	ret
     dd4:	00100793          	li	a5,1
     dd8:	00f12423          	sw	a5,8(sp)
     ddc:	00200793          	li	a5,2
     de0:	00f91a63          	bne	s2,a5,df4 <log+0x158>
     de4:	73c040ef          	jal	ra,5520 <__errno>
     de8:	02100793          	li	a5,33
     dec:	00f52023          	sw	a5,0(a0)
     df0:	0100006f          	j	e00 <log+0x164>
     df4:	00810513          	addi	a0,sp,8
     df8:	0c8020ef          	jal	ra,2ec0 <matherr>
     dfc:	fe0504e3          	beqz	a0,de4 <log+0x148>
     e00:	00005537          	lui	a0,0x5
     e04:	56850513          	addi	a0,a0,1384 # 5568 <__errno+0x48>
     e08:	0c0020ef          	jal	ra,2ec8 <nan>
     e0c:	02a12023          	sw	a0,32(sp)
     e10:	02b12223          	sw	a1,36(sp)
     e14:	f7dff06f          	j	d90 <log+0xf4>

00000e18 <pow>:
     e18:	fa010113          	addi	sp,sp,-96
     e1c:	03712e23          	sw	s7,60(sp)
     e20:	04812c23          	sw	s0,88(sp)
     e24:	04912a23          	sw	s1,84(sp)
     e28:	05212823          	sw	s2,80(sp)
     e2c:	05312623          	sw	s3,76(sp)
     e30:	05412423          	sw	s4,72(sp)
     e34:	05512223          	sw	s5,68(sp)
     e38:	03812c23          	sw	s8,56(sp)
     e3c:	04112e23          	sw	ra,92(sp)
     e40:	05612023          	sw	s6,64(sp)
     e44:	00050913          	mv	s2,a0
     e48:	00058993          	mv	s3,a1
     e4c:	00060413          	mv	s0,a2
     e50:	00068493          	mv	s1,a3
     e54:	755000ef          	jal	ra,1da8 <__ieee754_pow>
     e58:	dc41ac03          	lw	s8,-572(gp) # 6d1c <__fdlib_version>
     e5c:	fff00793          	li	a5,-1
     e60:	00050a13          	mv	s4,a0
     e64:	00058a93          	mv	s5,a1
     e68:	12fc0663          	beq	s8,a5,f94 <pow+0x17c>
     e6c:	00040613          	mv	a2,s0
     e70:	00048693          	mv	a3,s1
     e74:	00040513          	mv	a0,s0
     e78:	00048593          	mv	a1,s1
     e7c:	408040ef          	jal	ra,5284 <__unorddf2>
     e80:	10051a63          	bnez	a0,f94 <pow+0x17c>
     e84:	00090613          	mv	a2,s2
     e88:	00098693          	mv	a3,s3
     e8c:	00090513          	mv	a0,s2
     e90:	00098593          	mv	a1,s3
     e94:	3f0040ef          	jal	ra,5284 <__unorddf2>
     e98:	00000613          	li	a2,0
     e9c:	00000693          	li	a3,0
     ea0:	06050e63          	beqz	a0,f1c <pow+0x104>
     ea4:	00040513          	mv	a0,s0
     ea8:	00048593          	mv	a1,s1
     eac:	344030ef          	jal	ra,41f0 <__eqdf2>
     eb0:	0e051263          	bnez	a0,f94 <pow+0x17c>
     eb4:	00100793          	li	a5,1
     eb8:	00f12423          	sw	a5,8(sp)
     ebc:	000057b7          	lui	a5,0x5
     ec0:	56078793          	addi	a5,a5,1376 # 5560 <__errno+0x40>
     ec4:	00f12623          	sw	a5,12(sp)
     ec8:	000077b7          	lui	a5,0x7
     ecc:	bb07a703          	lw	a4,-1104(a5) # 6bb0 <__SDATA_BEGIN__+0x30>
     ed0:	bb47a783          	lw	a5,-1100(a5)
     ed4:	02012423          	sw	zero,40(sp)
     ed8:	01212823          	sw	s2,16(sp)
     edc:	02f12223          	sw	a5,36(sp)
     ee0:	01312a23          	sw	s3,20(sp)
     ee4:	00812c23          	sw	s0,24(sp)
     ee8:	00912e23          	sw	s1,28(sp)
     eec:	02e12023          	sw	a4,32(sp)
     ef0:	00200793          	li	a5,2
     ef4:	08fc0c63          	beq	s8,a5,f8c <pow+0x174>
     ef8:	00810513          	addi	a0,sp,8
     efc:	7c5010ef          	jal	ra,2ec0 <matherr>
     f00:	14050663          	beqz	a0,104c <pow+0x234>
     f04:	02812783          	lw	a5,40(sp)
     f08:	08078263          	beqz	a5,f8c <pow+0x174>
     f0c:	614040ef          	jal	ra,5520 <__errno>
     f10:	02812783          	lw	a5,40(sp)
     f14:	00f52023          	sw	a5,0(a0)
     f18:	0740006f          	j	f8c <pow+0x174>
     f1c:	00090513          	mv	a0,s2
     f20:	00098593          	mv	a1,s3
     f24:	2cc030ef          	jal	ra,41f0 <__eqdf2>
     f28:	12051a63          	bnez	a0,105c <pow+0x244>
     f2c:	00000613          	li	a2,0
     f30:	00000693          	li	a3,0
     f34:	00040513          	mv	a0,s0
     f38:	00048593          	mv	a1,s1
     f3c:	2b4030ef          	jal	ra,41f0 <__eqdf2>
     f40:	08051663          	bnez	a0,fcc <pow+0x1b4>
     f44:	00100793          	li	a5,1
     f48:	00f12423          	sw	a5,8(sp)
     f4c:	000057b7          	lui	a5,0x5
     f50:	56078793          	addi	a5,a5,1376 # 5560 <__errno+0x40>
     f54:	00f12623          	sw	a5,12(sp)
     f58:	02012423          	sw	zero,40(sp)
     f5c:	01212823          	sw	s2,16(sp)
     f60:	01312a23          	sw	s3,20(sp)
     f64:	00812c23          	sw	s0,24(sp)
     f68:	00912e23          	sw	s1,28(sp)
     f6c:	02012023          	sw	zero,32(sp)
     f70:	02012223          	sw	zero,36(sp)
     f74:	f80c02e3          	beqz	s8,ef8 <pow+0xe0>
     f78:	000077b7          	lui	a5,0x7
     f7c:	bb07a703          	lw	a4,-1104(a5) # 6bb0 <__SDATA_BEGIN__+0x30>
     f80:	bb47a783          	lw	a5,-1100(a5)
     f84:	02e12023          	sw	a4,32(sp)
     f88:	02f12223          	sw	a5,36(sp)
     f8c:	02012a03          	lw	s4,32(sp)
     f90:	02412a83          	lw	s5,36(sp)
     f94:	05c12083          	lw	ra,92(sp)
     f98:	05812403          	lw	s0,88(sp)
     f9c:	000a0513          	mv	a0,s4
     fa0:	000a8593          	mv	a1,s5
     fa4:	05412483          	lw	s1,84(sp)
     fa8:	05012903          	lw	s2,80(sp)
     fac:	04c12983          	lw	s3,76(sp)
     fb0:	04812a03          	lw	s4,72(sp)
     fb4:	04412a83          	lw	s5,68(sp)
     fb8:	04012b03          	lw	s6,64(sp)
     fbc:	03c12b83          	lw	s7,60(sp)
     fc0:	03812c03          	lw	s8,56(sp)
     fc4:	06010113          	addi	sp,sp,96
     fc8:	00008067          	ret
     fcc:	00040513          	mv	a0,s0
     fd0:	00048593          	mv	a1,s1
     fd4:	6d5010ef          	jal	ra,2ea8 <finite>
     fd8:	fa050ee3          	beqz	a0,f94 <pow+0x17c>
     fdc:	00000613          	li	a2,0
     fe0:	00000693          	li	a3,0
     fe4:	00040513          	mv	a0,s0
     fe8:	00048593          	mv	a1,s1
     fec:	378030ef          	jal	ra,4364 <__ledf2>
     ff0:	fa0552e3          	bgez	a0,f94 <pow+0x17c>
     ff4:	00100793          	li	a5,1
     ff8:	00f12423          	sw	a5,8(sp)
     ffc:	000057b7          	lui	a5,0x5
    1000:	56078793          	addi	a5,a5,1376 # 5560 <__errno+0x40>
    1004:	00f12623          	sw	a5,12(sp)
    1008:	dc41a783          	lw	a5,-572(gp) # 6d1c <__fdlib_version>
    100c:	02012423          	sw	zero,40(sp)
    1010:	01212823          	sw	s2,16(sp)
    1014:	01312a23          	sw	s3,20(sp)
    1018:	00812c23          	sw	s0,24(sp)
    101c:	00912e23          	sw	s1,28(sp)
    1020:	00079863          	bnez	a5,1030 <pow+0x218>
    1024:	02012023          	sw	zero,32(sp)
    1028:	02012223          	sw	zero,36(sp)
    102c:	ecdff06f          	j	ef8 <pow+0xe0>
    1030:	00007737          	lui	a4,0x7
    1034:	ba872603          	lw	a2,-1112(a4) # 6ba8 <__SDATA_BEGIN__+0x28>
    1038:	bac72683          	lw	a3,-1108(a4)
    103c:	00200713          	li	a4,2
    1040:	02c12023          	sw	a2,32(sp)
    1044:	02d12223          	sw	a3,36(sp)
    1048:	eae798e3          	bne	a5,a4,ef8 <pow+0xe0>
    104c:	4d4040ef          	jal	ra,5520 <__errno>
    1050:	02100793          	li	a5,33
    1054:	00f52023          	sw	a5,0(a0)
    1058:	eadff06f          	j	f04 <pow+0xec>
    105c:	000a0513          	mv	a0,s4
    1060:	000a8593          	mv	a1,s5
    1064:	000b8b13          	mv	s6,s7
    1068:	641010ef          	jal	ra,2ea8 <finite>
    106c:	1a051263          	bnez	a0,1210 <pow+0x3f8>
    1070:	00090513          	mv	a0,s2
    1074:	00098593          	mv	a1,s3
    1078:	631010ef          	jal	ra,2ea8 <finite>
    107c:	18050a63          	beqz	a0,1210 <pow+0x3f8>
    1080:	00040513          	mv	a0,s0
    1084:	00048593          	mv	a1,s1
    1088:	621010ef          	jal	ra,2ea8 <finite>
    108c:	18050263          	beqz	a0,1210 <pow+0x3f8>
    1090:	000a0613          	mv	a2,s4
    1094:	000a8693          	mv	a3,s5
    1098:	000a0513          	mv	a0,s4
    109c:	000a8593          	mv	a1,s5
    10a0:	1e4040ef          	jal	ra,5284 <__unorddf2>
    10a4:	000057b7          	lui	a5,0x5
    10a8:	dc41ab83          	lw	s7,-572(gp) # 6d1c <__fdlib_version>
    10ac:	56078793          	addi	a5,a5,1376 # 5560 <__errno+0x40>
    10b0:	04050863          	beqz	a0,1100 <pow+0x2e8>
    10b4:	00100713          	li	a4,1
    10b8:	00e12423          	sw	a4,8(sp)
    10bc:	00f12623          	sw	a5,12(sp)
    10c0:	02012423          	sw	zero,40(sp)
    10c4:	01212823          	sw	s2,16(sp)
    10c8:	01312a23          	sw	s3,20(sp)
    10cc:	00812c23          	sw	s0,24(sp)
    10d0:	00912e23          	sw	s1,28(sp)
    10d4:	f40b88e3          	beqz	s7,1024 <pow+0x20c>
    10d8:	00000613          	li	a2,0
    10dc:	00000693          	li	a3,0
    10e0:	00060513          	mv	a0,a2
    10e4:	00068593          	mv	a1,a3
    10e8:	139020ef          	jal	ra,3a20 <__divdf3>
    10ec:	02a12023          	sw	a0,32(sp)
    10f0:	02b12223          	sw	a1,36(sp)
    10f4:	00200793          	li	a5,2
    10f8:	f4fb8ae3          	beq	s7,a5,104c <pow+0x234>
    10fc:	dfdff06f          	j	ef8 <pow+0xe0>
    1100:	00f12623          	sw	a5,12(sp)
    1104:	000077b7          	lui	a5,0x7
    1108:	bb87a603          	lw	a2,-1096(a5) # 6bb8 <__SDATA_BEGIN__+0x38>
    110c:	bbc7a683          	lw	a3,-1092(a5)
    1110:	00300713          	li	a4,3
    1114:	00040513          	mv	a0,s0
    1118:	00048593          	mv	a1,s1
    111c:	00812c23          	sw	s0,24(sp)
    1120:	00912e23          	sw	s1,28(sp)
    1124:	00e12423          	sw	a4,8(sp)
    1128:	02012423          	sw	zero,40(sp)
    112c:	01212823          	sw	s2,16(sp)
    1130:	01312a23          	sw	s3,20(sp)
    1134:	318030ef          	jal	ra,444c <__muldf3>
    1138:	00050413          	mv	s0,a0
    113c:	00058493          	mv	s1,a1
    1140:	060b9c63          	bnez	s7,11b8 <pow+0x3a0>
    1144:	000077b7          	lui	a5,0x7
    1148:	b887a703          	lw	a4,-1144(a5) # 6b88 <__SDATA_BEGIN__+0x8>
    114c:	b8c7a783          	lw	a5,-1140(a5)
    1150:	00000613          	li	a2,0
    1154:	00000693          	li	a3,0
    1158:	00090513          	mv	a0,s2
    115c:	00098593          	mv	a1,s3
    1160:	02e12023          	sw	a4,32(sp)
    1164:	02f12223          	sw	a5,36(sp)
    1168:	1fc030ef          	jal	ra,4364 <__ledf2>
    116c:	10055863          	bgez	a0,127c <pow+0x464>
    1170:	00040513          	mv	a0,s0
    1174:	00048593          	mv	a1,s1
    1178:	561010ef          	jal	ra,2ed8 <rint>
    117c:	00040613          	mv	a2,s0
    1180:	00048693          	mv	a3,s1
    1184:	06c030ef          	jal	ra,41f0 <__eqdf2>
    1188:	00050c63          	beqz	a0,11a0 <pow+0x388>
    118c:	000077b7          	lui	a5,0x7
    1190:	ba07a703          	lw	a4,-1120(a5) # 6ba0 <__SDATA_BEGIN__+0x20>
    1194:	ba47a783          	lw	a5,-1116(a5)
    1198:	02e12023          	sw	a4,32(sp)
    119c:	02f12223          	sw	a5,36(sp)
    11a0:	dc41a703          	lw	a4,-572(gp) # 6d1c <__fdlib_version>
    11a4:	00200793          	li	a5,2
    11a8:	0cf71a63          	bne	a4,a5,127c <pow+0x464>
    11ac:	374040ef          	jal	ra,5520 <__errno>
    11b0:	02200793          	li	a5,34
    11b4:	ea1ff06f          	j	1054 <pow+0x23c>
    11b8:	000077b7          	lui	a5,0x7
    11bc:	b907a703          	lw	a4,-1136(a5) # 6b90 <__SDATA_BEGIN__+0x10>
    11c0:	b947a783          	lw	a5,-1132(a5)
    11c4:	00000613          	li	a2,0
    11c8:	00000693          	li	a3,0
    11cc:	00090513          	mv	a0,s2
    11d0:	00098593          	mv	a1,s3
    11d4:	02e12023          	sw	a4,32(sp)
    11d8:	02f12223          	sw	a5,36(sp)
    11dc:	188030ef          	jal	ra,4364 <__ledf2>
    11e0:	fc0550e3          	bgez	a0,11a0 <pow+0x388>
    11e4:	00040513          	mv	a0,s0
    11e8:	00048593          	mv	a1,s1
    11ec:	4ed010ef          	jal	ra,2ed8 <rint>
    11f0:	00040613          	mv	a2,s0
    11f4:	00048693          	mv	a3,s1
    11f8:	7f9020ef          	jal	ra,41f0 <__eqdf2>
    11fc:	fa0502e3          	beqz	a0,11a0 <pow+0x388>
    1200:	000077b7          	lui	a5,0x7
    1204:	ba87a703          	lw	a4,-1112(a5) # 6ba8 <__SDATA_BEGIN__+0x28>
    1208:	bac7a783          	lw	a5,-1108(a5)
    120c:	f8dff06f          	j	1198 <pow+0x380>
    1210:	00000613          	li	a2,0
    1214:	00000693          	li	a3,0
    1218:	000a0513          	mv	a0,s4
    121c:	000a8593          	mv	a1,s5
    1220:	7d1020ef          	jal	ra,41f0 <__eqdf2>
    1224:	d60518e3          	bnez	a0,f94 <pow+0x17c>
    1228:	00090513          	mv	a0,s2
    122c:	00098593          	mv	a1,s3
    1230:	479010ef          	jal	ra,2ea8 <finite>
    1234:	d60500e3          	beqz	a0,f94 <pow+0x17c>
    1238:	00040513          	mv	a0,s0
    123c:	00048593          	mv	a1,s1
    1240:	469010ef          	jal	ra,2ea8 <finite>
    1244:	d40508e3          	beqz	a0,f94 <pow+0x17c>
    1248:	00400793          	li	a5,4
    124c:	00f12423          	sw	a5,8(sp)
    1250:	000057b7          	lui	a5,0x5
    1254:	56078793          	addi	a5,a5,1376 # 5560 <__errno+0x40>
    1258:	00f12623          	sw	a5,12(sp)
    125c:	02012423          	sw	zero,40(sp)
    1260:	01212823          	sw	s2,16(sp)
    1264:	01312a23          	sw	s3,20(sp)
    1268:	00812c23          	sw	s0,24(sp)
    126c:	00912e23          	sw	s1,28(sp)
    1270:	02012023          	sw	zero,32(sp)
    1274:	02012223          	sw	zero,36(sp)
    1278:	f29ff06f          	j	11a0 <pow+0x388>
    127c:	00810513          	addi	a0,sp,8
    1280:	441010ef          	jal	ra,2ec0 <matherr>
    1284:	c80510e3          	bnez	a0,f04 <pow+0xec>
    1288:	f25ff06f          	j	11ac <pow+0x394>

0000128c <sqrt>:
    128c:	fb010113          	addi	sp,sp,-80
    1290:	04812423          	sw	s0,72(sp)
    1294:	04912223          	sw	s1,68(sp)
    1298:	05212023          	sw	s2,64(sp)
    129c:	03412e23          	sw	s4,60(sp)
    12a0:	03512c23          	sw	s5,56(sp)
    12a4:	04112623          	sw	ra,76(sp)
    12a8:	00050413          	mv	s0,a0
    12ac:	00058493          	mv	s1,a1
    12b0:	1ad010ef          	jal	ra,2c5c <__ieee754_sqrt>
    12b4:	dc41a903          	lw	s2,-572(gp) # 6d1c <__fdlib_version>
    12b8:	fff00793          	li	a5,-1
    12bc:	00050a13          	mv	s4,a0
    12c0:	00058a93          	mv	s5,a1
    12c4:	08f90863          	beq	s2,a5,1354 <sqrt+0xc8>
    12c8:	00040613          	mv	a2,s0
    12cc:	00048693          	mv	a3,s1
    12d0:	00040513          	mv	a0,s0
    12d4:	00048593          	mv	a1,s1
    12d8:	7ad030ef          	jal	ra,5284 <__unorddf2>
    12dc:	06051c63          	bnez	a0,1354 <sqrt+0xc8>
    12e0:	00000613          	li	a2,0
    12e4:	00000693          	li	a3,0
    12e8:	00040513          	mv	a0,s0
    12ec:	00048593          	mv	a1,s1
    12f0:	074030ef          	jal	ra,4364 <__ledf2>
    12f4:	06055063          	bgez	a0,1354 <sqrt+0xc8>
    12f8:	00100793          	li	a5,1
    12fc:	00f12423          	sw	a5,8(sp)
    1300:	000057b7          	lui	a5,0x5
    1304:	56478793          	addi	a5,a5,1380 # 5564 <__errno+0x44>
    1308:	00f12623          	sw	a5,12(sp)
    130c:	02012423          	sw	zero,40(sp)
    1310:	00812c23          	sw	s0,24(sp)
    1314:	00912e23          	sw	s1,28(sp)
    1318:	00812823          	sw	s0,16(sp)
    131c:	00912a23          	sw	s1,20(sp)
    1320:	04091e63          	bnez	s2,137c <sqrt+0xf0>
    1324:	02012023          	sw	zero,32(sp)
    1328:	02012223          	sw	zero,36(sp)
    132c:	00810513          	addi	a0,sp,8
    1330:	391010ef          	jal	ra,2ec0 <matherr>
    1334:	06050663          	beqz	a0,13a0 <sqrt+0x114>
    1338:	02812783          	lw	a5,40(sp)
    133c:	00078863          	beqz	a5,134c <sqrt+0xc0>
    1340:	1e0040ef          	jal	ra,5520 <__errno>
    1344:	02812783          	lw	a5,40(sp)
    1348:	00f52023          	sw	a5,0(a0)
    134c:	02012a03          	lw	s4,32(sp)
    1350:	02412a83          	lw	s5,36(sp)
    1354:	04c12083          	lw	ra,76(sp)
    1358:	04812403          	lw	s0,72(sp)
    135c:	000a0513          	mv	a0,s4
    1360:	000a8593          	mv	a1,s5
    1364:	04412483          	lw	s1,68(sp)
    1368:	04012903          	lw	s2,64(sp)
    136c:	03c12a03          	lw	s4,60(sp)
    1370:	03812a83          	lw	s5,56(sp)
    1374:	05010113          	addi	sp,sp,80
    1378:	00008067          	ret
    137c:	00000613          	li	a2,0
    1380:	00000693          	li	a3,0
    1384:	00060513          	mv	a0,a2
    1388:	00068593          	mv	a1,a3
    138c:	694020ef          	jal	ra,3a20 <__divdf3>
    1390:	02a12023          	sw	a0,32(sp)
    1394:	02b12223          	sw	a1,36(sp)
    1398:	00200793          	li	a5,2
    139c:	f8f918e3          	bne	s2,a5,132c <sqrt+0xa0>
    13a0:	180040ef          	jal	ra,5520 <__errno>
    13a4:	02100793          	li	a5,33
    13a8:	00f52023          	sw	a5,0(a0)
    13ac:	f8dff06f          	j	1338 <sqrt+0xac>

000013b0 <__ieee754_exp>:
    13b0:	fc010113          	addi	sp,sp,-64
    13b4:	00159793          	slli	a5,a1,0x1
    13b8:	408636b7          	lui	a3,0x40863
    13bc:	02812c23          	sw	s0,56(sp)
    13c0:	02912a23          	sw	s1,52(sp)
    13c4:	03212823          	sw	s2,48(sp)
    13c8:	02112e23          	sw	ra,60(sp)
    13cc:	03312623          	sw	s3,44(sp)
    13d0:	03412423          	sw	s4,40(sp)
    13d4:	03512223          	sw	s5,36(sp)
    13d8:	03612023          	sw	s6,32(sp)
    13dc:	01712e23          	sw	s7,28(sp)
    13e0:	01812c23          	sw	s8,24(sp)
    13e4:	01912a23          	sw	s9,20(sp)
    13e8:	01a12823          	sw	s10,16(sp)
    13ec:	01b12623          	sw	s11,12(sp)
    13f0:	0017d793          	srli	a5,a5,0x1
    13f4:	e4168693          	addi	a3,a3,-447 # 40862e41 <__global_pointer$+0x4085bee9>
    13f8:	00050493          	mv	s1,a0
    13fc:	00058413          	mv	s0,a1
    1400:	01f5d913          	srli	s2,a1,0x1f
    1404:	0cf6fa63          	bgeu	a3,a5,14d8 <__ieee754_exp+0x128>
    1408:	7ff006b7          	lui	a3,0x7ff00
    140c:	06d7ea63          	bltu	a5,a3,1480 <__ieee754_exp+0xd0>
    1410:	00c59793          	slli	a5,a1,0xc
    1414:	00c7d793          	srli	a5,a5,0xc
    1418:	00a7e7b3          	or	a5,a5,a0
    141c:	00078e63          	beqz	a5,1438 <__ieee754_exp+0x88>
    1420:	00050613          	mv	a2,a0
    1424:	00058693          	mv	a3,a1
    1428:	639010ef          	jal	ra,3260 <__adddf3>
    142c:	00050493          	mv	s1,a0
    1430:	00058413          	mv	s0,a1
    1434:	0080006f          	j	143c <__ieee754_exp+0x8c>
    1438:	08091a63          	bnez	s2,14cc <__ieee754_exp+0x11c>
    143c:	00040593          	mv	a1,s0
    1440:	03c12083          	lw	ra,60(sp)
    1444:	03812403          	lw	s0,56(sp)
    1448:	00048513          	mv	a0,s1
    144c:	03012903          	lw	s2,48(sp)
    1450:	03412483          	lw	s1,52(sp)
    1454:	02c12983          	lw	s3,44(sp)
    1458:	02812a03          	lw	s4,40(sp)
    145c:	02412a83          	lw	s5,36(sp)
    1460:	02012b03          	lw	s6,32(sp)
    1464:	01c12b83          	lw	s7,28(sp)
    1468:	01812c03          	lw	s8,24(sp)
    146c:	01412c83          	lw	s9,20(sp)
    1470:	01012d03          	lw	s10,16(sp)
    1474:	00c12d83          	lw	s11,12(sp)
    1478:	04010113          	addi	sp,sp,64
    147c:	00008067          	ret
    1480:	000077b7          	lui	a5,0x7
    1484:	b807a603          	lw	a2,-1152(a5) # 6b80 <__SDATA_BEGIN__>
    1488:	b847a683          	lw	a3,-1148(a5)
    148c:	5f1020ef          	jal	ra,427c <__gedf2>
    1490:	02a05063          	blez	a0,14b0 <__ieee754_exp+0x100>
    1494:	000077b7          	lui	a5,0x7
    1498:	bc07a603          	lw	a2,-1088(a5) # 6bc0 <__SDATA_BEGIN__+0x40>
    149c:	bc47a683          	lw	a3,-1084(a5)
    14a0:	00060513          	mv	a0,a2
    14a4:	00068593          	mv	a1,a3
    14a8:	7a5020ef          	jal	ra,444c <__muldf3>
    14ac:	f81ff06f          	j	142c <__ieee754_exp+0x7c>
    14b0:	000077b7          	lui	a5,0x7
    14b4:	b987a603          	lw	a2,-1128(a5) # 6b98 <__SDATA_BEGIN__+0x18>
    14b8:	b9c7a683          	lw	a3,-1124(a5)
    14bc:	00048513          	mv	a0,s1
    14c0:	00040593          	mv	a1,s0
    14c4:	6a1020ef          	jal	ra,4364 <__ledf2>
    14c8:	1a055463          	bgez	a0,1670 <__ieee754_exp+0x2c0>
    14cc:	00000493          	li	s1,0
    14d0:	00000413          	li	s0,0
    14d4:	f69ff06f          	j	143c <__ieee754_exp+0x8c>
    14d8:	3fd63737          	lui	a4,0x3fd63
    14dc:	e4270713          	addi	a4,a4,-446 # 3fd62e42 <__global_pointer$+0x3fd5beea>
    14e0:	22f77463          	bgeu	a4,a5,1708 <__ieee754_exp+0x358>
    14e4:	3ff0a737          	lui	a4,0x3ff0a
    14e8:	2b170713          	addi	a4,a4,689 # 3ff0a2b1 <__global_pointer$+0x3ff03359>
    14ec:	18f76263          	bltu	a4,a5,1670 <__ieee754_exp+0x2c0>
    14f0:	00005437          	lui	s0,0x5
    14f4:	00391793          	slli	a5,s2,0x3
    14f8:	57040413          	addi	s0,s0,1392 # 5570 <ln2HI>
    14fc:	00f40433          	add	s0,s0,a5
    1500:	00042603          	lw	a2,0(s0)
    1504:	00442683          	lw	a3,4(s0)
    1508:	00100c13          	li	s8,1
    150c:	412c0c33          	sub	s8,s8,s2
    1510:	5b0030ef          	jal	ra,4ac0 <__subdf3>
    1514:	01042b03          	lw	s6,16(s0)
    1518:	01442b83          	lw	s7,20(s0)
    151c:	00050a13          	mv	s4,a0
    1520:	00058a93          	mv	s5,a1
    1524:	412c0c33          	sub	s8,s8,s2
    1528:	000b0613          	mv	a2,s6
    152c:	000b8693          	mv	a3,s7
    1530:	000a0513          	mv	a0,s4
    1534:	000a8593          	mv	a1,s5
    1538:	588030ef          	jal	ra,4ac0 <__subdf3>
    153c:	00050493          	mv	s1,a0
    1540:	00058413          	mv	s0,a1
    1544:	00048613          	mv	a2,s1
    1548:	00040693          	mv	a3,s0
    154c:	00048513          	mv	a0,s1
    1550:	00040593          	mv	a1,s0
    1554:	6f9020ef          	jal	ra,444c <__muldf3>
    1558:	000077b7          	lui	a5,0x7
    155c:	be07a603          	lw	a2,-1056(a5) # 6be0 <__SDATA_BEGIN__+0x60>
    1560:	be47a683          	lw	a3,-1052(a5)
    1564:	00050913          	mv	s2,a0
    1568:	00058993          	mv	s3,a1
    156c:	6e1020ef          	jal	ra,444c <__muldf3>
    1570:	000077b7          	lui	a5,0x7
    1574:	be87a603          	lw	a2,-1048(a5) # 6be8 <__SDATA_BEGIN__+0x68>
    1578:	bec7a683          	lw	a3,-1044(a5)
    157c:	00007cb7          	lui	s9,0x7
    1580:	540030ef          	jal	ra,4ac0 <__subdf3>
    1584:	00090613          	mv	a2,s2
    1588:	00098693          	mv	a3,s3
    158c:	6c1020ef          	jal	ra,444c <__muldf3>
    1590:	000077b7          	lui	a5,0x7
    1594:	bf07a603          	lw	a2,-1040(a5) # 6bf0 <__SDATA_BEGIN__+0x70>
    1598:	bf47a683          	lw	a3,-1036(a5)
    159c:	4c5010ef          	jal	ra,3260 <__adddf3>
    15a0:	00090613          	mv	a2,s2
    15a4:	00098693          	mv	a3,s3
    15a8:	6a5020ef          	jal	ra,444c <__muldf3>
    15ac:	000077b7          	lui	a5,0x7
    15b0:	bf87a603          	lw	a2,-1032(a5) # 6bf8 <__SDATA_BEGIN__+0x78>
    15b4:	bfc7a683          	lw	a3,-1028(a5)
    15b8:	508030ef          	jal	ra,4ac0 <__subdf3>
    15bc:	00090613          	mv	a2,s2
    15c0:	00098693          	mv	a3,s3
    15c4:	689020ef          	jal	ra,444c <__muldf3>
    15c8:	000077b7          	lui	a5,0x7
    15cc:	c007a603          	lw	a2,-1024(a5) # 6c00 <__SDATA_BEGIN__+0x80>
    15d0:	c047a683          	lw	a3,-1020(a5)
    15d4:	48d010ef          	jal	ra,3260 <__adddf3>
    15d8:	00090613          	mv	a2,s2
    15dc:	00098693          	mv	a3,s3
    15e0:	66d020ef          	jal	ra,444c <__muldf3>
    15e4:	00050613          	mv	a2,a0
    15e8:	00058693          	mv	a3,a1
    15ec:	00048513          	mv	a0,s1
    15f0:	00040593          	mv	a1,s0
    15f4:	4cc030ef          	jal	ra,4ac0 <__subdf3>
    15f8:	00050613          	mv	a2,a0
    15fc:	00058693          	mv	a3,a1
    1600:	00050d13          	mv	s10,a0
    1604:	00058d93          	mv	s11,a1
    1608:	00048513          	mv	a0,s1
    160c:	00040593          	mv	a1,s0
    1610:	63d020ef          	jal	ra,444c <__muldf3>
    1614:	00050913          	mv	s2,a0
    1618:	00058993          	mv	s3,a1
    161c:	000077b7          	lui	a5,0x7
    1620:	120c1c63          	bnez	s8,1758 <__ieee754_exp+0x3a8>
    1624:	c087a603          	lw	a2,-1016(a5) # 6c08 <__SDATA_BEGIN__+0x88>
    1628:	c0c7a683          	lw	a3,-1012(a5)
    162c:	000d0513          	mv	a0,s10
    1630:	000d8593          	mv	a1,s11
    1634:	48c030ef          	jal	ra,4ac0 <__subdf3>
    1638:	00050613          	mv	a2,a0
    163c:	00058693          	mv	a3,a1
    1640:	00090513          	mv	a0,s2
    1644:	00098593          	mv	a1,s3
    1648:	3d8020ef          	jal	ra,3a20 <__divdf3>
    164c:	00048613          	mv	a2,s1
    1650:	00040693          	mv	a3,s0
    1654:	46c030ef          	jal	ra,4ac0 <__subdf3>
    1658:	00050613          	mv	a2,a0
    165c:	00058693          	mv	a3,a1
    1660:	bb0ca503          	lw	a0,-1104(s9) # 6bb0 <__SDATA_BEGIN__+0x30>
    1664:	bb4ca583          	lw	a1,-1100(s9)
    1668:	458030ef          	jal	ra,4ac0 <__subdf3>
    166c:	dc1ff06f          	j	142c <__ieee754_exp+0x7c>
    1670:	000077b7          	lui	a5,0x7
    1674:	bc87a603          	lw	a2,-1080(a5) # 6bc8 <__SDATA_BEGIN__+0x48>
    1678:	bcc7a683          	lw	a3,-1076(a5)
    167c:	00391c13          	slli	s8,s2,0x3
    1680:	00005937          	lui	s2,0x5
    1684:	57090913          	addi	s2,s2,1392 # 5570 <ln2HI>
    1688:	00048513          	mv	a0,s1
    168c:	00040593          	mv	a1,s0
    1690:	01890c33          	add	s8,s2,s8
    1694:	5b9020ef          	jal	ra,444c <__muldf3>
    1698:	020c2603          	lw	a2,32(s8)
    169c:	024c2683          	lw	a3,36(s8)
    16a0:	3c1010ef          	jal	ra,3260 <__adddf3>
    16a4:	42d030ef          	jal	ra,52d0 <__fixdfsi>
    16a8:	00050c13          	mv	s8,a0
    16ac:	4a5030ef          	jal	ra,5350 <__floatsidf>
    16b0:	000077b7          	lui	a5,0x7
    16b4:	bd07a603          	lw	a2,-1072(a5) # 6bd0 <__SDATA_BEGIN__+0x50>
    16b8:	bd47a683          	lw	a3,-1068(a5)
    16bc:	00050913          	mv	s2,a0
    16c0:	00058993          	mv	s3,a1
    16c4:	589020ef          	jal	ra,444c <__muldf3>
    16c8:	00050613          	mv	a2,a0
    16cc:	00058693          	mv	a3,a1
    16d0:	00048513          	mv	a0,s1
    16d4:	00040593          	mv	a1,s0
    16d8:	3e8030ef          	jal	ra,4ac0 <__subdf3>
    16dc:	000077b7          	lui	a5,0x7
    16e0:	bd87a603          	lw	a2,-1064(a5) # 6bd8 <__SDATA_BEGIN__+0x58>
    16e4:	bdc7a683          	lw	a3,-1060(a5)
    16e8:	00050a13          	mv	s4,a0
    16ec:	00058a93          	mv	s5,a1
    16f0:	00090513          	mv	a0,s2
    16f4:	00098593          	mv	a1,s3
    16f8:	555020ef          	jal	ra,444c <__muldf3>
    16fc:	00050b13          	mv	s6,a0
    1700:	00058b93          	mv	s7,a1
    1704:	e25ff06f          	j	1528 <__ieee754_exp+0x178>
    1708:	3e300737          	lui	a4,0x3e300
    170c:	04e7f263          	bgeu	a5,a4,1750 <__ieee754_exp+0x3a0>
    1710:	000077b7          	lui	a5,0x7
    1714:	bc07a603          	lw	a2,-1088(a5) # 6bc0 <__SDATA_BEGIN__+0x40>
    1718:	bc47a683          	lw	a3,-1084(a5)
    171c:	345010ef          	jal	ra,3260 <__adddf3>
    1720:	000077b7          	lui	a5,0x7
    1724:	bb07a903          	lw	s2,-1104(a5) # 6bb0 <__SDATA_BEGIN__+0x30>
    1728:	bb47a983          	lw	s3,-1100(a5)
    172c:	00090613          	mv	a2,s2
    1730:	00098693          	mv	a3,s3
    1734:	349020ef          	jal	ra,427c <__gedf2>
    1738:	00a05c63          	blez	a0,1750 <__ieee754_exp+0x3a0>
    173c:	00090613          	mv	a2,s2
    1740:	00098693          	mv	a3,s3
    1744:	00048513          	mv	a0,s1
    1748:	00040593          	mv	a1,s0
    174c:	cddff06f          	j	1428 <__ieee754_exp+0x78>
    1750:	00000c13          	li	s8,0
    1754:	df1ff06f          	j	1544 <__ieee754_exp+0x194>
    1758:	c087a503          	lw	a0,-1016(a5)
    175c:	c0c7a583          	lw	a1,-1012(a5)
    1760:	000d0613          	mv	a2,s10
    1764:	000d8693          	mv	a3,s11
    1768:	358030ef          	jal	ra,4ac0 <__subdf3>
    176c:	00050613          	mv	a2,a0
    1770:	00058693          	mv	a3,a1
    1774:	00090513          	mv	a0,s2
    1778:	00098593          	mv	a1,s3
    177c:	2a4020ef          	jal	ra,3a20 <__divdf3>
    1780:	00050613          	mv	a2,a0
    1784:	00058693          	mv	a3,a1
    1788:	000b0513          	mv	a0,s6
    178c:	000b8593          	mv	a1,s7
    1790:	330030ef          	jal	ra,4ac0 <__subdf3>
    1794:	000a0613          	mv	a2,s4
    1798:	000a8693          	mv	a3,s5
    179c:	324030ef          	jal	ra,4ac0 <__subdf3>
    17a0:	00050613          	mv	a2,a0
    17a4:	00058693          	mv	a3,a1
    17a8:	bb0ca503          	lw	a0,-1104(s9)
    17ac:	bb4ca583          	lw	a1,-1100(s9)
    17b0:	310030ef          	jal	ra,4ac0 <__subdf3>
    17b4:	c0300793          	li	a5,-1021
    17b8:	00fc4a63          	blt	s8,a5,17cc <__ieee754_exp+0x41c>
    17bc:	014c1c13          	slli	s8,s8,0x14
    17c0:	00050493          	mv	s1,a0
    17c4:	00bc0433          	add	s0,s8,a1
    17c8:	c75ff06f          	j	143c <__ieee754_exp+0x8c>
    17cc:	3e8c0c13          	addi	s8,s8,1000
    17d0:	014c1c13          	slli	s8,s8,0x14
    17d4:	000076b7          	lui	a3,0x7
    17d8:	00bc07b3          	add	a5,s8,a1
    17dc:	c106a603          	lw	a2,-1008(a3) # 6c10 <__SDATA_BEGIN__+0x90>
    17e0:	00078593          	mv	a1,a5
    17e4:	c146a683          	lw	a3,-1004(a3)
    17e8:	cc1ff06f          	j	14a8 <__ieee754_exp+0xf8>

000017ec <__ieee754_log>:
    17ec:	fb010113          	addi	sp,sp,-80
    17f0:	04112623          	sw	ra,76(sp)
    17f4:	04812423          	sw	s0,72(sp)
    17f8:	04912223          	sw	s1,68(sp)
    17fc:	05212023          	sw	s2,64(sp)
    1800:	03312e23          	sw	s3,60(sp)
    1804:	03412c23          	sw	s4,56(sp)
    1808:	03512a23          	sw	s5,52(sp)
    180c:	03612823          	sw	s6,48(sp)
    1810:	03712623          	sw	s7,44(sp)
    1814:	03812423          	sw	s8,40(sp)
    1818:	03912223          	sw	s9,36(sp)
    181c:	03a12023          	sw	s10,32(sp)
    1820:	01b12e23          	sw	s11,28(sp)
    1824:	001006b7          	lui	a3,0x100
    1828:	00050713          	mv	a4,a0
    182c:	00058793          	mv	a5,a1
    1830:	0cd5d263          	bge	a1,a3,18f4 <__ieee754_log+0x108>
    1834:	00159693          	slli	a3,a1,0x1
    1838:	0016d693          	srli	a3,a3,0x1
    183c:	00a6e6b3          	or	a3,a3,a0
    1840:	04069c63          	bnez	a3,1898 <__ieee754_log+0xac>
    1844:	000077b7          	lui	a5,0x7
    1848:	c187a503          	lw	a0,-1000(a5) # 6c18 <__SDATA_BEGIN__+0x98>
    184c:	c1c7a583          	lw	a1,-996(a5)
    1850:	00000613          	li	a2,0
    1854:	00000693          	li	a3,0
    1858:	1c8020ef          	jal	ra,3a20 <__divdf3>
    185c:	04c12083          	lw	ra,76(sp)
    1860:	04812403          	lw	s0,72(sp)
    1864:	04412483          	lw	s1,68(sp)
    1868:	04012903          	lw	s2,64(sp)
    186c:	03c12983          	lw	s3,60(sp)
    1870:	03812a03          	lw	s4,56(sp)
    1874:	03412a83          	lw	s5,52(sp)
    1878:	03012b03          	lw	s6,48(sp)
    187c:	02c12b83          	lw	s7,44(sp)
    1880:	02812c03          	lw	s8,40(sp)
    1884:	02412c83          	lw	s9,36(sp)
    1888:	02012d03          	lw	s10,32(sp)
    188c:	01c12d83          	lw	s11,28(sp)
    1890:	05010113          	addi	sp,sp,80
    1894:	00008067          	ret
    1898:	0005de63          	bgez	a1,18b4 <__ieee754_log+0xc8>
    189c:	00050613          	mv	a2,a0
    18a0:	00058693          	mv	a3,a1
    18a4:	21c030ef          	jal	ra,4ac0 <__subdf3>
    18a8:	00000613          	li	a2,0
    18ac:	00000693          	li	a3,0
    18b0:	fa9ff06f          	j	1858 <__ieee754_log+0x6c>
    18b4:	000077b7          	lui	a5,0x7
    18b8:	c247a683          	lw	a3,-988(a5) # 6c24 <__SDATA_BEGIN__+0xa4>
    18bc:	c207a603          	lw	a2,-992(a5)
    18c0:	38d020ef          	jal	ra,444c <__muldf3>
    18c4:	00050713          	mv	a4,a0
    18c8:	00058793          	mv	a5,a1
    18cc:	00058c93          	mv	s9,a1
    18d0:	fca00693          	li	a3,-54
    18d4:	7ff00637          	lui	a2,0x7ff00
    18d8:	02ccc463          	blt	s9,a2,1900 <__ieee754_log+0x114>
    18dc:	00070613          	mv	a2,a4
    18e0:	00078693          	mv	a3,a5
    18e4:	00070513          	mv	a0,a4
    18e8:	00078593          	mv	a1,a5
    18ec:	175010ef          	jal	ra,3260 <__adddf3>
    18f0:	f6dff06f          	j	185c <__ieee754_log+0x70>
    18f4:	00058c93          	mv	s9,a1
    18f8:	00000693          	li	a3,0
    18fc:	fd9ff06f          	j	18d4 <__ieee754_log+0xe8>
    1900:	414cdc13          	srai	s8,s9,0x14
    1904:	c01c0c13          	addi	s8,s8,-1023
    1908:	00dc07b3          	add	a5,s8,a3
    190c:	001006b7          	lui	a3,0x100
    1910:	fff68913          	addi	s2,a3,-1 # fffff <__global_pointer$+0xf90a7>
    1914:	00096c37          	lui	s8,0x96
    1918:	012cfcb3          	and	s9,s9,s2
    191c:	f64c0c13          	addi	s8,s8,-156 # 95f64 <__global_pointer$+0x8f00c>
    1920:	018c8c33          	add	s8,s9,s8
    1924:	00dc7c33          	and	s8,s8,a3
    1928:	3ff006b7          	lui	a3,0x3ff00
    192c:	00dc46b3          	xor	a3,s8,a3
    1930:	414c5c13          	srai	s8,s8,0x14
    1934:	00fc0c33          	add	s8,s8,a5
    1938:	000077b7          	lui	a5,0x7
    193c:	0196e833          	or	a6,a3,s9
    1940:	bb07a603          	lw	a2,-1104(a5) # 6bb0 <__SDATA_BEGIN__+0x30>
    1944:	bb47a683          	lw	a3,-1100(a5)
    1948:	00070513          	mv	a0,a4
    194c:	00080593          	mv	a1,a6
    1950:	170030ef          	jal	ra,4ac0 <__subdf3>
    1954:	002c8793          	addi	a5,s9,2
    1958:	0127f7b3          	and	a5,a5,s2
    195c:	00200713          	li	a4,2
    1960:	00050413          	mv	s0,a0
    1964:	00058493          	mv	s1,a1
    1968:	16f74263          	blt	a4,a5,1acc <__ieee754_log+0x2e0>
    196c:	00000613          	li	a2,0
    1970:	00000693          	li	a3,0
    1974:	07d020ef          	jal	ra,41f0 <__eqdf2>
    1978:	06051263          	bnez	a0,19dc <__ieee754_log+0x1f0>
    197c:	00000513          	li	a0,0
    1980:	00000593          	li	a1,0
    1984:	ec0c0ce3          	beqz	s8,185c <__ieee754_log+0x70>
    1988:	000c0513          	mv	a0,s8
    198c:	1c5030ef          	jal	ra,5350 <__floatsidf>
    1990:	000077b7          	lui	a5,0x7
    1994:	bd07a603          	lw	a2,-1072(a5) # 6bd0 <__SDATA_BEGIN__+0x50>
    1998:	bd47a683          	lw	a3,-1068(a5)
    199c:	00050913          	mv	s2,a0
    19a0:	00058993          	mv	s3,a1
    19a4:	2a9020ef          	jal	ra,444c <__muldf3>
    19a8:	000077b7          	lui	a5,0x7
    19ac:	bd87a603          	lw	a2,-1064(a5) # 6bd8 <__SDATA_BEGIN__+0x58>
    19b0:	bdc7a683          	lw	a3,-1060(a5)
    19b4:	00050413          	mv	s0,a0
    19b8:	00058493          	mv	s1,a1
    19bc:	00090513          	mv	a0,s2
    19c0:	00098593          	mv	a1,s3
    19c4:	289020ef          	jal	ra,444c <__muldf3>
    19c8:	00050613          	mv	a2,a0
    19cc:	00058693          	mv	a3,a1
    19d0:	00040513          	mv	a0,s0
    19d4:	00048593          	mv	a1,s1
    19d8:	f15ff06f          	j	18ec <__ieee754_log+0x100>
    19dc:	000077b7          	lui	a5,0x7
    19e0:	c287a603          	lw	a2,-984(a5) # 6c28 <__SDATA_BEGIN__+0xa8>
    19e4:	c2c7a683          	lw	a3,-980(a5)
    19e8:	00040513          	mv	a0,s0
    19ec:	00048593          	mv	a1,s1
    19f0:	25d020ef          	jal	ra,444c <__muldf3>
    19f4:	000077b7          	lui	a5,0x7
    19f8:	00050613          	mv	a2,a0
    19fc:	00058693          	mv	a3,a1
    1a00:	bb87a503          	lw	a0,-1096(a5) # 6bb8 <__SDATA_BEGIN__+0x38>
    1a04:	bbc7a583          	lw	a1,-1092(a5)
    1a08:	0b8030ef          	jal	ra,4ac0 <__subdf3>
    1a0c:	00050913          	mv	s2,a0
    1a10:	00058993          	mv	s3,a1
    1a14:	00040613          	mv	a2,s0
    1a18:	00048693          	mv	a3,s1
    1a1c:	00040513          	mv	a0,s0
    1a20:	00048593          	mv	a1,s1
    1a24:	229020ef          	jal	ra,444c <__muldf3>
    1a28:	00050613          	mv	a2,a0
    1a2c:	00058693          	mv	a3,a1
    1a30:	00090513          	mv	a0,s2
    1a34:	00098593          	mv	a1,s3
    1a38:	215020ef          	jal	ra,444c <__muldf3>
    1a3c:	00050913          	mv	s2,a0
    1a40:	00058993          	mv	s3,a1
    1a44:	000c1863          	bnez	s8,1a54 <__ieee754_log+0x268>
    1a48:	00090613          	mv	a2,s2
    1a4c:	00098693          	mv	a3,s3
    1a50:	25c0006f          	j	1cac <__ieee754_log+0x4c0>
    1a54:	000c0513          	mv	a0,s8
    1a58:	0f9030ef          	jal	ra,5350 <__floatsidf>
    1a5c:	000077b7          	lui	a5,0x7
    1a60:	bd07a603          	lw	a2,-1072(a5) # 6bd0 <__SDATA_BEGIN__+0x50>
    1a64:	bd47a683          	lw	a3,-1068(a5)
    1a68:	00050b13          	mv	s6,a0
    1a6c:	00058b93          	mv	s7,a1
    1a70:	1dd020ef          	jal	ra,444c <__muldf3>
    1a74:	000077b7          	lui	a5,0x7
    1a78:	bd87a603          	lw	a2,-1064(a5) # 6bd8 <__SDATA_BEGIN__+0x58>
    1a7c:	bdc7a683          	lw	a3,-1060(a5)
    1a80:	00050a13          	mv	s4,a0
    1a84:	00058a93          	mv	s5,a1
    1a88:	000b0513          	mv	a0,s6
    1a8c:	000b8593          	mv	a1,s7
    1a90:	1bd020ef          	jal	ra,444c <__muldf3>
    1a94:	00050613          	mv	a2,a0
    1a98:	00058693          	mv	a3,a1
    1a9c:	00090513          	mv	a0,s2
    1aa0:	00098593          	mv	a1,s3
    1aa4:	01c030ef          	jal	ra,4ac0 <__subdf3>
    1aa8:	00040613          	mv	a2,s0
    1aac:	00048693          	mv	a3,s1
    1ab0:	010030ef          	jal	ra,4ac0 <__subdf3>
    1ab4:	00050613          	mv	a2,a0
    1ab8:	00058693          	mv	a3,a1
    1abc:	000a0513          	mv	a0,s4
    1ac0:	000a8593          	mv	a1,s5
    1ac4:	7fd020ef          	jal	ra,4ac0 <__subdf3>
    1ac8:	d95ff06f          	j	185c <__ieee754_log+0x70>
    1acc:	000077b7          	lui	a5,0x7
    1ad0:	c087a603          	lw	a2,-1016(a5) # 6c08 <__SDATA_BEGIN__+0x88>
    1ad4:	c0c7a683          	lw	a3,-1012(a5)
    1ad8:	788010ef          	jal	ra,3260 <__adddf3>
    1adc:	00050613          	mv	a2,a0
    1ae0:	00058693          	mv	a3,a1
    1ae4:	00040513          	mv	a0,s0
    1ae8:	00048593          	mv	a1,s1
    1aec:	735010ef          	jal	ra,3a20 <__divdf3>
    1af0:	00050b13          	mv	s6,a0
    1af4:	000c0513          	mv	a0,s8
    1af8:	00058b93          	mv	s7,a1
    1afc:	055030ef          	jal	ra,5350 <__floatsidf>
    1b00:	000b0613          	mv	a2,s6
    1b04:	000b8693          	mv	a3,s7
    1b08:	00050a13          	mv	s4,a0
    1b0c:	00058a93          	mv	s5,a1
    1b10:	000b0513          	mv	a0,s6
    1b14:	000b8593          	mv	a1,s7
    1b18:	135020ef          	jal	ra,444c <__muldf3>
    1b1c:	fff9f737          	lui	a4,0xfff9f
    1b20:	b8670713          	addi	a4,a4,-1146 # fff9eb86 <__global_pointer$+0xfff97c2e>
    1b24:	00ec8733          	add	a4,s9,a4
    1b28:	00050613          	mv	a2,a0
    1b2c:	00058693          	mv	a3,a1
    1b30:	00e12623          	sw	a4,12(sp)
    1b34:	00050d13          	mv	s10,a0
    1b38:	00058d93          	mv	s11,a1
    1b3c:	111020ef          	jal	ra,444c <__muldf3>
    1b40:	000077b7          	lui	a5,0x7
    1b44:	c307a603          	lw	a2,-976(a5) # 6c30 <__SDATA_BEGIN__+0xb0>
    1b48:	c347a683          	lw	a3,-972(a5)
    1b4c:	00050913          	mv	s2,a0
    1b50:	00058993          	mv	s3,a1
    1b54:	0f9020ef          	jal	ra,444c <__muldf3>
    1b58:	000077b7          	lui	a5,0x7
    1b5c:	c387a603          	lw	a2,-968(a5) # 6c38 <__SDATA_BEGIN__+0xb8>
    1b60:	c3c7a683          	lw	a3,-964(a5)
    1b64:	6fc010ef          	jal	ra,3260 <__adddf3>
    1b68:	00090613          	mv	a2,s2
    1b6c:	00098693          	mv	a3,s3
    1b70:	0dd020ef          	jal	ra,444c <__muldf3>
    1b74:	000077b7          	lui	a5,0x7
    1b78:	c407a603          	lw	a2,-960(a5) # 6c40 <__SDATA_BEGIN__+0xc0>
    1b7c:	c447a683          	lw	a3,-956(a5)
    1b80:	6e0010ef          	jal	ra,3260 <__adddf3>
    1b84:	00090613          	mv	a2,s2
    1b88:	00098693          	mv	a3,s3
    1b8c:	0c1020ef          	jal	ra,444c <__muldf3>
    1b90:	000077b7          	lui	a5,0x7
    1b94:	c487a603          	lw	a2,-952(a5) # 6c48 <__SDATA_BEGIN__+0xc8>
    1b98:	c4c7a683          	lw	a3,-948(a5)
    1b9c:	6c4010ef          	jal	ra,3260 <__adddf3>
    1ba0:	000d0613          	mv	a2,s10
    1ba4:	000d8693          	mv	a3,s11
    1ba8:	0a5020ef          	jal	ra,444c <__muldf3>
    1bac:	000077b7          	lui	a5,0x7
    1bb0:	c507a603          	lw	a2,-944(a5) # 6c50 <__SDATA_BEGIN__+0xd0>
    1bb4:	c547a683          	lw	a3,-940(a5)
    1bb8:	00050d13          	mv	s10,a0
    1bbc:	00058d93          	mv	s11,a1
    1bc0:	00090513          	mv	a0,s2
    1bc4:	00098593          	mv	a1,s3
    1bc8:	085020ef          	jal	ra,444c <__muldf3>
    1bcc:	000077b7          	lui	a5,0x7
    1bd0:	c587a603          	lw	a2,-936(a5) # 6c58 <__SDATA_BEGIN__+0xd8>
    1bd4:	c5c7a683          	lw	a3,-932(a5)
    1bd8:	688010ef          	jal	ra,3260 <__adddf3>
    1bdc:	00090613          	mv	a2,s2
    1be0:	00098693          	mv	a3,s3
    1be4:	069020ef          	jal	ra,444c <__muldf3>
    1be8:	000077b7          	lui	a5,0x7
    1bec:	c607a603          	lw	a2,-928(a5) # 6c60 <__SDATA_BEGIN__+0xe0>
    1bf0:	c647a683          	lw	a3,-924(a5)
    1bf4:	66c010ef          	jal	ra,3260 <__adddf3>
    1bf8:	00090613          	mv	a2,s2
    1bfc:	00098693          	mv	a3,s3
    1c00:	04d020ef          	jal	ra,444c <__muldf3>
    1c04:	00050613          	mv	a2,a0
    1c08:	00058693          	mv	a3,a1
    1c0c:	000d0513          	mv	a0,s10
    1c10:	000d8593          	mv	a1,s11
    1c14:	64c010ef          	jal	ra,3260 <__adddf3>
    1c18:	0006c7b7          	lui	a5,0x6c
    1c1c:	00c12703          	lw	a4,12(sp)
    1c20:	85178793          	addi	a5,a5,-1967 # 6b851 <__global_pointer$+0x648f9>
    1c24:	41978cb3          	sub	s9,a5,s9
    1c28:	00ececb3          	or	s9,s9,a4
    1c2c:	00050913          	mv	s2,a0
    1c30:	00058993          	mv	s3,a1
    1c34:	0f905e63          	blez	s9,1d30 <__ieee754_log+0x544>
    1c38:	000077b7          	lui	a5,0x7
    1c3c:	bb87a603          	lw	a2,-1096(a5) # 6bb8 <__SDATA_BEGIN__+0x38>
    1c40:	bbc7a683          	lw	a3,-1092(a5)
    1c44:	00040513          	mv	a0,s0
    1c48:	00048593          	mv	a1,s1
    1c4c:	001020ef          	jal	ra,444c <__muldf3>
    1c50:	00040613          	mv	a2,s0
    1c54:	00048693          	mv	a3,s1
    1c58:	7f4020ef          	jal	ra,444c <__muldf3>
    1c5c:	00050613          	mv	a2,a0
    1c60:	00058693          	mv	a3,a1
    1c64:	00050d13          	mv	s10,a0
    1c68:	00058d93          	mv	s11,a1
    1c6c:	00090513          	mv	a0,s2
    1c70:	00098593          	mv	a1,s3
    1c74:	5ec010ef          	jal	ra,3260 <__adddf3>
    1c78:	000b0613          	mv	a2,s6
    1c7c:	000b8693          	mv	a3,s7
    1c80:	7cc020ef          	jal	ra,444c <__muldf3>
    1c84:	00050913          	mv	s2,a0
    1c88:	00058993          	mv	s3,a1
    1c8c:	020c1663          	bnez	s8,1cb8 <__ieee754_log+0x4cc>
    1c90:	00050613          	mv	a2,a0
    1c94:	00058693          	mv	a3,a1
    1c98:	000d0513          	mv	a0,s10
    1c9c:	000d8593          	mv	a1,s11
    1ca0:	621020ef          	jal	ra,4ac0 <__subdf3>
    1ca4:	00050613          	mv	a2,a0
    1ca8:	00058693          	mv	a3,a1
    1cac:	00040513          	mv	a0,s0
    1cb0:	00048593          	mv	a1,s1
    1cb4:	e11ff06f          	j	1ac4 <__ieee754_log+0x2d8>
    1cb8:	000077b7          	lui	a5,0x7
    1cbc:	bd07a603          	lw	a2,-1072(a5) # 6bd0 <__SDATA_BEGIN__+0x50>
    1cc0:	bd47a683          	lw	a3,-1068(a5)
    1cc4:	000a0513          	mv	a0,s4
    1cc8:	000a8593          	mv	a1,s5
    1ccc:	780020ef          	jal	ra,444c <__muldf3>
    1cd0:	000077b7          	lui	a5,0x7
    1cd4:	bd87a603          	lw	a2,-1064(a5) # 6bd8 <__SDATA_BEGIN__+0x58>
    1cd8:	bdc7a683          	lw	a3,-1060(a5)
    1cdc:	00050b13          	mv	s6,a0
    1ce0:	00058b93          	mv	s7,a1
    1ce4:	000a0513          	mv	a0,s4
    1ce8:	000a8593          	mv	a1,s5
    1cec:	760020ef          	jal	ra,444c <__muldf3>
    1cf0:	00090613          	mv	a2,s2
    1cf4:	00098693          	mv	a3,s3
    1cf8:	568010ef          	jal	ra,3260 <__adddf3>
    1cfc:	00050613          	mv	a2,a0
    1d00:	00058693          	mv	a3,a1
    1d04:	000d0513          	mv	a0,s10
    1d08:	000d8593          	mv	a1,s11
    1d0c:	5b5020ef          	jal	ra,4ac0 <__subdf3>
    1d10:	00040613          	mv	a2,s0
    1d14:	00048693          	mv	a3,s1
    1d18:	5a9020ef          	jal	ra,4ac0 <__subdf3>
    1d1c:	00050613          	mv	a2,a0
    1d20:	00058693          	mv	a3,a1
    1d24:	000b0513          	mv	a0,s6
    1d28:	000b8593          	mv	a1,s7
    1d2c:	d99ff06f          	j	1ac4 <__ieee754_log+0x2d8>
    1d30:	00050613          	mv	a2,a0
    1d34:	00058693          	mv	a3,a1
    1d38:	00040513          	mv	a0,s0
    1d3c:	00048593          	mv	a1,s1
    1d40:	581020ef          	jal	ra,4ac0 <__subdf3>
    1d44:	000b0613          	mv	a2,s6
    1d48:	000b8693          	mv	a3,s7
    1d4c:	700020ef          	jal	ra,444c <__muldf3>
    1d50:	00050913          	mv	s2,a0
    1d54:	00058993          	mv	s3,a1
    1d58:	ce0c08e3          	beqz	s8,1a48 <__ieee754_log+0x25c>
    1d5c:	000077b7          	lui	a5,0x7
    1d60:	bd07a603          	lw	a2,-1072(a5) # 6bd0 <__SDATA_BEGIN__+0x50>
    1d64:	bd47a683          	lw	a3,-1068(a5)
    1d68:	000a0513          	mv	a0,s4
    1d6c:	000a8593          	mv	a1,s5
    1d70:	6dc020ef          	jal	ra,444c <__muldf3>
    1d74:	000077b7          	lui	a5,0x7
    1d78:	bd87a603          	lw	a2,-1064(a5) # 6bd8 <__SDATA_BEGIN__+0x58>
    1d7c:	bdc7a683          	lw	a3,-1060(a5)
    1d80:	00050b13          	mv	s6,a0
    1d84:	00058b93          	mv	s7,a1
    1d88:	000a0513          	mv	a0,s4
    1d8c:	000a8593          	mv	a1,s5
    1d90:	6bc020ef          	jal	ra,444c <__muldf3>
    1d94:	00050613          	mv	a2,a0
    1d98:	00058693          	mv	a3,a1
    1d9c:	00090513          	mv	a0,s2
    1da0:	00098593          	mv	a1,s3
    1da4:	f69ff06f          	j	1d0c <__ieee754_log+0x520>

00001da8 <__ieee754_pow>:
    1da8:	f9010113          	addi	sp,sp,-112
    1dac:	06912223          	sw	s1,100(sp)
    1db0:	800004b7          	lui	s1,0x80000
    1db4:	fff4c493          	not	s1,s1
    1db8:	05312e23          	sw	s3,92(sp)
    1dbc:	0096f9b3          	and	s3,a3,s1
    1dc0:	06112623          	sw	ra,108(sp)
    1dc4:	06812423          	sw	s0,104(sp)
    1dc8:	07212023          	sw	s2,96(sp)
    1dcc:	05412c23          	sw	s4,88(sp)
    1dd0:	05512a23          	sw	s5,84(sp)
    1dd4:	05612823          	sw	s6,80(sp)
    1dd8:	05712623          	sw	s7,76(sp)
    1ddc:	05812423          	sw	s8,72(sp)
    1de0:	05912223          	sw	s9,68(sp)
    1de4:	05a12023          	sw	s10,64(sp)
    1de8:	03b12e23          	sw	s11,60(sp)
    1dec:	00c9e7b3          	or	a5,s3,a2
    1df0:	00079463          	bnez	a5,1df8 <__ieee754_pow+0x50>
    1df4:	6450006f          	j	2c38 <__ieee754_pow+0xe90>
    1df8:	00b4f4b3          	and	s1,s1,a1
    1dfc:	7ff007b7          	lui	a5,0x7ff00
    1e00:	00058a93          	mv	s5,a1
    1e04:	00050b13          	mv	s6,a0
    1e08:	0297c263          	blt	a5,s1,1e2c <__ieee754_pow+0x84>
    1e0c:	00f49863          	bne	s1,a5,1e1c <__ieee754_pow+0x74>
    1e10:	02051663          	bnez	a0,1e3c <__ieee754_pow+0x94>
    1e14:	0134d663          	bge	s1,s3,1e20 <__ieee754_pow+0x78>
    1e18:	0240006f          	j	1e3c <__ieee754_pow+0x94>
    1e1c:	0137c863          	blt	a5,s3,1e2c <__ieee754_pow+0x84>
    1e20:	7ff007b7          	lui	a5,0x7ff00
    1e24:	04f99e63          	bne	s3,a5,1e80 <__ieee754_pow+0xd8>
    1e28:	04060c63          	beqz	a2,1e80 <__ieee754_pow+0xd8>
    1e2c:	c01005b7          	lui	a1,0xc0100
    1e30:	00b484b3          	add	s1,s1,a1
    1e34:	00a4e4b3          	or	s1,s1,a0
    1e38:	600480e3          	beqz	s1,2c38 <__ieee754_pow+0xe90>
    1e3c:	06812403          	lw	s0,104(sp)
    1e40:	06c12083          	lw	ra,108(sp)
    1e44:	06412483          	lw	s1,100(sp)
    1e48:	06012903          	lw	s2,96(sp)
    1e4c:	05c12983          	lw	s3,92(sp)
    1e50:	05812a03          	lw	s4,88(sp)
    1e54:	05412a83          	lw	s5,84(sp)
    1e58:	05012b03          	lw	s6,80(sp)
    1e5c:	04c12b83          	lw	s7,76(sp)
    1e60:	04812c03          	lw	s8,72(sp)
    1e64:	04412c83          	lw	s9,68(sp)
    1e68:	04012d03          	lw	s10,64(sp)
    1e6c:	03c12d83          	lw	s11,60(sp)
    1e70:	00005537          	lui	a0,0x5
    1e74:	56850513          	addi	a0,a0,1384 # 5568 <__errno+0x48>
    1e78:	07010113          	addi	sp,sp,112
    1e7c:	04c0106f          	j	2ec8 <nan>
    1e80:	00068d13          	mv	s10,a3
    1e84:	00060d93          	mv	s11,a2
    1e88:	00058913          	mv	s2,a1
    1e8c:	00050a13          	mv	s4,a0
    1e90:	00000413          	li	s0,0
    1e94:	100ad263          	bgez	s5,1f98 <__ieee754_pow+0x1f0>
    1e98:	434007b7          	lui	a5,0x43400
    1e9c:	0ef9dc63          	bge	s3,a5,1f94 <__ieee754_pow+0x1ec>
    1ea0:	3ff007b7          	lui	a5,0x3ff00
    1ea4:	02f9ca63          	blt	s3,a5,1ed8 <__ieee754_pow+0x130>
    1ea8:	4149d793          	srai	a5,s3,0x14
    1eac:	c0178713          	addi	a4,a5,-1023 # 3feffc01 <__global_pointer$+0x3fef8ca9>
    1eb0:	01400793          	li	a5,20
    1eb4:	08e7da63          	bge	a5,a4,1f48 <__ieee754_pow+0x1a0>
    1eb8:	03400793          	li	a5,52
    1ebc:	40e787b3          	sub	a5,a5,a4
    1ec0:	00f65733          	srl	a4,a2,a5
    1ec4:	00f717b3          	sll	a5,a4,a5
    1ec8:	00c79863          	bne	a5,a2,1ed8 <__ieee754_pow+0x130>
    1ecc:	00177713          	andi	a4,a4,1
    1ed0:	00200413          	li	s0,2
    1ed4:	40e40433          	sub	s0,s0,a4
    1ed8:	080d8a63          	beqz	s11,1f6c <__ieee754_pow+0x1c4>
    1edc:	000a0513          	mv	a0,s4
    1ee0:	00090593          	mv	a1,s2
    1ee4:	7ad000ef          	jal	ra,2e90 <fabs>
    1ee8:	1a0b1a63          	bnez	s6,209c <__ieee754_pow+0x2f4>
    1eec:	00048a63          	beqz	s1,1f00 <__ieee754_pow+0x158>
    1ef0:	00291793          	slli	a5,s2,0x2
    1ef4:	0027d793          	srli	a5,a5,0x2
    1ef8:	3ff00737          	lui	a4,0x3ff00
    1efc:	1ae79063          	bne	a5,a4,209c <__ieee754_pow+0x2f4>
    1f00:	000d5e63          	bgez	s10,1f1c <__ieee754_pow+0x174>
    1f04:	000077b7          	lui	a5,0x7
    1f08:	00050613          	mv	a2,a0
    1f0c:	00058693          	mv	a3,a1
    1f10:	bb07a503          	lw	a0,-1104(a5) # 6bb0 <__SDATA_BEGIN__+0x30>
    1f14:	bb47a583          	lw	a1,-1100(a5)
    1f18:	309010ef          	jal	ra,3a20 <__divdf3>
    1f1c:	0a0ad663          	bgez	s5,1fc8 <__ieee754_pow+0x220>
    1f20:	c01007b7          	lui	a5,0xc0100
    1f24:	00f484b3          	add	s1,s1,a5
    1f28:	0084e4b3          	or	s1,s1,s0
    1f2c:	14049e63          	bnez	s1,2088 <__ieee754_pow+0x2e0>
    1f30:	00050613          	mv	a2,a0
    1f34:	00058693          	mv	a3,a1
    1f38:	389020ef          	jal	ra,4ac0 <__subdf3>
    1f3c:	00050613          	mv	a2,a0
    1f40:	00058693          	mv	a3,a1
    1f44:	0480006f          	j	1f8c <__ieee754_pow+0x1e4>
    1f48:	f8061ae3          	bnez	a2,1edc <__ieee754_pow+0x134>
    1f4c:	40e787b3          	sub	a5,a5,a4
    1f50:	40f9d733          	sra	a4,s3,a5
    1f54:	00f717b3          	sll	a5,a4,a5
    1f58:	00060413          	mv	s0,a2
    1f5c:	01379863          	bne	a5,s3,1f6c <__ieee754_pow+0x1c4>
    1f60:	00177713          	andi	a4,a4,1
    1f64:	00200413          	li	s0,2
    1f68:	40e40433          	sub	s0,s0,a4
    1f6c:	3ff007b7          	lui	a5,0x3ff00
    1f70:	0af99463          	bne	s3,a5,2018 <__ieee754_pow+0x270>
    1f74:	4c0d5ee3          	bgez	s10,2c50 <__ieee754_pow+0xea8>
    1f78:	000077b7          	lui	a5,0x7
    1f7c:	bb07a503          	lw	a0,-1104(a5) # 6bb0 <__SDATA_BEGIN__+0x30>
    1f80:	bb47a583          	lw	a1,-1100(a5)
    1f84:	000a0613          	mv	a2,s4
    1f88:	00090693          	mv	a3,s2
    1f8c:	295010ef          	jal	ra,3a20 <__divdf3>
    1f90:	0380006f          	j	1fc8 <__ieee754_pow+0x220>
    1f94:	00200413          	li	s0,2
    1f98:	f40d92e3          	bnez	s11,1edc <__ieee754_pow+0x134>
    1f9c:	7ff007b7          	lui	a5,0x7ff00
    1fa0:	fcf996e3          	bne	s3,a5,1f6c <__ieee754_pow+0x1c4>
    1fa4:	c0100537          	lui	a0,0xc0100
    1fa8:	00a48533          	add	a0,s1,a0
    1fac:	01456a33          	or	s4,a0,s4
    1fb0:	480a04e3          	beqz	s4,2c38 <__ieee754_pow+0xe90>
    1fb4:	3ff007b7          	lui	a5,0x3ff00
    1fb8:	04f4c663          	blt	s1,a5,2004 <__ieee754_pow+0x25c>
    1fbc:	480d54e3          	bgez	s10,2c44 <__ieee754_pow+0xe9c>
    1fc0:	00000513          	li	a0,0
    1fc4:	00000593          	li	a1,0
    1fc8:	06c12083          	lw	ra,108(sp)
    1fcc:	06812403          	lw	s0,104(sp)
    1fd0:	06412483          	lw	s1,100(sp)
    1fd4:	06012903          	lw	s2,96(sp)
    1fd8:	05c12983          	lw	s3,92(sp)
    1fdc:	05812a03          	lw	s4,88(sp)
    1fe0:	05412a83          	lw	s5,84(sp)
    1fe4:	05012b03          	lw	s6,80(sp)
    1fe8:	04c12b83          	lw	s7,76(sp)
    1fec:	04812c03          	lw	s8,72(sp)
    1ff0:	04412c83          	lw	s9,68(sp)
    1ff4:	04012d03          	lw	s10,64(sp)
    1ff8:	03c12d83          	lw	s11,60(sp)
    1ffc:	07010113          	addi	sp,sp,112
    2000:	00008067          	ret
    2004:	fa0d5ee3          	bgez	s10,1fc0 <__ieee754_pow+0x218>
    2008:	800005b7          	lui	a1,0x80000
    200c:	00000513          	li	a0,0
    2010:	01a5c5b3          	xor	a1,a1,s10
    2014:	fb5ff06f          	j	1fc8 <__ieee754_pow+0x220>
    2018:	400007b7          	lui	a5,0x40000
    201c:	00fd1e63          	bne	s10,a5,2038 <__ieee754_pow+0x290>
    2020:	000a0613          	mv	a2,s4
    2024:	00090693          	mv	a3,s2
    2028:	000a0513          	mv	a0,s4
    202c:	00090593          	mv	a1,s2
    2030:	41c020ef          	jal	ra,444c <__muldf3>
    2034:	f95ff06f          	j	1fc8 <__ieee754_pow+0x220>
    2038:	3fe007b7          	lui	a5,0x3fe00
    203c:	eafd10e3          	bne	s10,a5,1edc <__ieee754_pow+0x134>
    2040:	e80acee3          	bltz	s5,1edc <__ieee754_pow+0x134>
    2044:	06812403          	lw	s0,104(sp)
    2048:	06c12083          	lw	ra,108(sp)
    204c:	06412483          	lw	s1,100(sp)
    2050:	05c12983          	lw	s3,92(sp)
    2054:	05412a83          	lw	s5,84(sp)
    2058:	05012b03          	lw	s6,80(sp)
    205c:	04c12b83          	lw	s7,76(sp)
    2060:	04812c03          	lw	s8,72(sp)
    2064:	04412c83          	lw	s9,68(sp)
    2068:	04012d03          	lw	s10,64(sp)
    206c:	03c12d83          	lw	s11,60(sp)
    2070:	000a0513          	mv	a0,s4
    2074:	00090593          	mv	a1,s2
    2078:	05812a03          	lw	s4,88(sp)
    207c:	06012903          	lw	s2,96(sp)
    2080:	07010113          	addi	sp,sp,112
    2084:	3d90006f          	j	2c5c <__ieee754_sqrt>
    2088:	00100793          	li	a5,1
    208c:	f2f41ee3          	bne	s0,a5,1fc8 <__ieee754_pow+0x220>
    2090:	800007b7          	lui	a5,0x80000
    2094:	00b7c5b3          	xor	a1,a5,a1
    2098:	f31ff06f          	j	1fc8 <__ieee754_pow+0x220>
    209c:	01f95793          	srli	a5,s2,0x1f
    20a0:	fff78793          	addi	a5,a5,-1 # 7fffffff <__global_pointer$+0x7fff90a7>
    20a4:	00f12623          	sw	a5,12(sp)
    20a8:	00f467b3          	or	a5,s0,a5
    20ac:	00079c63          	bnez	a5,20c4 <__ieee754_pow+0x31c>
    20b0:	000a0613          	mv	a2,s4
    20b4:	00090693          	mv	a3,s2
    20b8:	000a0513          	mv	a0,s4
    20bc:	00090593          	mv	a1,s2
    20c0:	e79ff06f          	j	1f38 <__ieee754_pow+0x190>
    20c4:	41e007b7          	lui	a5,0x41e00
    20c8:	2937d463          	bge	a5,s3,2350 <__ieee754_pow+0x5a8>
    20cc:	43f007b7          	lui	a5,0x43f00
    20d0:	0337d463          	bge	a5,s3,20f8 <__ieee754_pow+0x350>
    20d4:	3ff007b7          	lui	a5,0x3ff00
    20d8:	02f4d863          	bge	s1,a5,2108 <__ieee754_pow+0x360>
    20dc:	ee0d52e3          	bgez	s10,1fc0 <__ieee754_pow+0x218>
    20e0:	000077b7          	lui	a5,0x7
    20e4:	bc07a603          	lw	a2,-1088(a5) # 6bc0 <__SDATA_BEGIN__+0x40>
    20e8:	bc47a683          	lw	a3,-1084(a5)
    20ec:	00060513          	mv	a0,a2
    20f0:	00068593          	mv	a1,a3
    20f4:	f3dff06f          	j	2030 <__ieee754_pow+0x288>
    20f8:	3ff007b7          	lui	a5,0x3ff00
    20fc:	ffe78713          	addi	a4,a5,-2 # 3feffffe <__global_pointer$+0x3fef90a6>
    2100:	fc975ee3          	bge	a4,s1,20dc <__ieee754_pow+0x334>
    2104:	0097d663          	bge	a5,s1,2110 <__ieee754_pow+0x368>
    2108:	fda04ce3          	bgtz	s10,20e0 <__ieee754_pow+0x338>
    210c:	eb5ff06f          	j	1fc0 <__ieee754_pow+0x218>
    2110:	000077b7          	lui	a5,0x7
    2114:	bb07a603          	lw	a2,-1104(a5) # 6bb0 <__SDATA_BEGIN__+0x30>
    2118:	bb47a683          	lw	a3,-1100(a5)
    211c:	1a5020ef          	jal	ra,4ac0 <__subdf3>
    2120:	000077b7          	lui	a5,0x7
    2124:	c707a603          	lw	a2,-912(a5) # 6c70 <__SDATA_BEGIN__+0xf0>
    2128:	c747a683          	lw	a3,-908(a5)
    212c:	00050a13          	mv	s4,a0
    2130:	00058a93          	mv	s5,a1
    2134:	318020ef          	jal	ra,444c <__muldf3>
    2138:	000077b7          	lui	a5,0x7
    213c:	c787a603          	lw	a2,-904(a5) # 6c78 <__SDATA_BEGIN__+0xf8>
    2140:	c7c7a683          	lw	a3,-900(a5)
    2144:	00050913          	mv	s2,a0
    2148:	00058993          	mv	s3,a1
    214c:	000a0513          	mv	a0,s4
    2150:	000a8593          	mv	a1,s5
    2154:	2f8020ef          	jal	ra,444c <__muldf3>
    2158:	000077b7          	lui	a5,0x7
    215c:	c807a603          	lw	a2,-896(a5) # 6c80 <__SDATA_BEGIN__+0x100>
    2160:	c847a683          	lw	a3,-892(a5)
    2164:	00050b13          	mv	s6,a0
    2168:	00058b93          	mv	s7,a1
    216c:	000a0513          	mv	a0,s4
    2170:	000a8593          	mv	a1,s5
    2174:	2d8020ef          	jal	ra,444c <__muldf3>
    2178:	000077b7          	lui	a5,0x7
    217c:	00050613          	mv	a2,a0
    2180:	00058693          	mv	a3,a1
    2184:	c287a503          	lw	a0,-984(a5) # 6c28 <__SDATA_BEGIN__+0xa8>
    2188:	c2c7a583          	lw	a1,-980(a5)
    218c:	135020ef          	jal	ra,4ac0 <__subdf3>
    2190:	000a0613          	mv	a2,s4
    2194:	000a8693          	mv	a3,s5
    2198:	2b4020ef          	jal	ra,444c <__muldf3>
    219c:	000077b7          	lui	a5,0x7
    21a0:	00050613          	mv	a2,a0
    21a4:	00058693          	mv	a3,a1
    21a8:	bb87a503          	lw	a0,-1096(a5) # 6bb8 <__SDATA_BEGIN__+0x38>
    21ac:	bbc7a583          	lw	a1,-1092(a5)
    21b0:	111020ef          	jal	ra,4ac0 <__subdf3>
    21b4:	00050c13          	mv	s8,a0
    21b8:	00058c93          	mv	s9,a1
    21bc:	000a0613          	mv	a2,s4
    21c0:	000a8693          	mv	a3,s5
    21c4:	000a0513          	mv	a0,s4
    21c8:	000a8593          	mv	a1,s5
    21cc:	280020ef          	jal	ra,444c <__muldf3>
    21d0:	00050613          	mv	a2,a0
    21d4:	00058693          	mv	a3,a1
    21d8:	000c0513          	mv	a0,s8
    21dc:	000c8593          	mv	a1,s9
    21e0:	26c020ef          	jal	ra,444c <__muldf3>
    21e4:	000077b7          	lui	a5,0x7
    21e8:	bc87a603          	lw	a2,-1080(a5) # 6bc8 <__SDATA_BEGIN__+0x48>
    21ec:	bcc7a683          	lw	a3,-1076(a5)
    21f0:	25c020ef          	jal	ra,444c <__muldf3>
    21f4:	00050613          	mv	a2,a0
    21f8:	00058693          	mv	a3,a1
    21fc:	000b0513          	mv	a0,s6
    2200:	000b8593          	mv	a1,s7
    2204:	0bd020ef          	jal	ra,4ac0 <__subdf3>
    2208:	00050613          	mv	a2,a0
    220c:	00058693          	mv	a3,a1
    2210:	00050a13          	mv	s4,a0
    2214:	00058a93          	mv	s5,a1
    2218:	00090513          	mv	a0,s2
    221c:	00098593          	mv	a1,s3
    2220:	040010ef          	jal	ra,3260 <__adddf3>
    2224:	00000713          	li	a4,0
    2228:	00090613          	mv	a2,s2
    222c:	00098693          	mv	a3,s3
    2230:	00070513          	mv	a0,a4
    2234:	00070c13          	mv	s8,a4
    2238:	00058c93          	mv	s9,a1
    223c:	085020ef          	jal	ra,4ac0 <__subdf3>
    2240:	00050613          	mv	a2,a0
    2244:	00058693          	mv	a3,a1
    2248:	000a0513          	mv	a0,s4
    224c:	000a8593          	mv	a1,s5
    2250:	071020ef          	jal	ra,4ac0 <__subdf3>
    2254:	00c12783          	lw	a5,12(sp)
    2258:	fff40413          	addi	s0,s0,-1
    225c:	00050913          	mv	s2,a0
    2260:	00f46433          	or	s0,s0,a5
    2264:	00058993          	mv	s3,a1
    2268:	60041263          	bnez	s0,286c <__ieee754_pow+0xac4>
    226c:	000077b7          	lui	a5,0x7
    2270:	c687a403          	lw	s0,-920(a5) # 6c68 <__SDATA_BEGIN__+0xe8>
    2274:	c6c7a483          	lw	s1,-916(a5)
    2278:	000d0a13          	mv	s4,s10
    227c:	00000a93          	li	s5,0
    2280:	000a8613          	mv	a2,s5
    2284:	000d0693          	mv	a3,s10
    2288:	000d8513          	mv	a0,s11
    228c:	000a0593          	mv	a1,s4
    2290:	031020ef          	jal	ra,4ac0 <__subdf3>
    2294:	000c0613          	mv	a2,s8
    2298:	000c8693          	mv	a3,s9
    229c:	1b0020ef          	jal	ra,444c <__muldf3>
    22a0:	00050b13          	mv	s6,a0
    22a4:	00058b93          	mv	s7,a1
    22a8:	000d8613          	mv	a2,s11
    22ac:	000a0693          	mv	a3,s4
    22b0:	00090513          	mv	a0,s2
    22b4:	00098593          	mv	a1,s3
    22b8:	194020ef          	jal	ra,444c <__muldf3>
    22bc:	00050613          	mv	a2,a0
    22c0:	00058693          	mv	a3,a1
    22c4:	000b0513          	mv	a0,s6
    22c8:	000b8593          	mv	a1,s7
    22cc:	795000ef          	jal	ra,3260 <__adddf3>
    22d0:	000a8613          	mv	a2,s5
    22d4:	000a0693          	mv	a3,s4
    22d8:	00050913          	mv	s2,a0
    22dc:	00058993          	mv	s3,a1
    22e0:	000c0513          	mv	a0,s8
    22e4:	000c8593          	mv	a1,s9
    22e8:	164020ef          	jal	ra,444c <__muldf3>
    22ec:	00050613          	mv	a2,a0
    22f0:	00058693          	mv	a3,a1
    22f4:	00050a93          	mv	s5,a0
    22f8:	00058a13          	mv	s4,a1
    22fc:	00050d13          	mv	s10,a0
    2300:	00058b93          	mv	s7,a1
    2304:	00090513          	mv	a0,s2
    2308:	00098593          	mv	a1,s3
    230c:	755000ef          	jal	ra,3260 <__adddf3>
    2310:	40900737          	lui	a4,0x40900
    2314:	00058d93          	mv	s11,a1
    2318:	00058b13          	mv	s6,a1
    231c:	0ae5c4e3          	blt	a1,a4,2bc4 <__ieee754_pow+0xe1c>
    2320:	40e58733          	sub	a4,a1,a4
    2324:	00a76733          	or	a4,a4,a0
    2328:	54070a63          	beqz	a4,287c <__ieee754_pow+0xad4>
    232c:	00007937          	lui	s2,0x7
    2330:	bc092603          	lw	a2,-1088(s2) # 6bc0 <__SDATA_BEGIN__+0x40>
    2334:	bc492683          	lw	a3,-1084(s2)
    2338:	00040513          	mv	a0,s0
    233c:	00048593          	mv	a1,s1
    2340:	10c020ef          	jal	ra,444c <__muldf3>
    2344:	bc092603          	lw	a2,-1088(s2)
    2348:	bc492683          	lw	a3,-1084(s2)
    234c:	ce5ff06f          	j	2030 <__ieee754_pow+0x288>
    2350:	7ff007b7          	lui	a5,0x7ff00
    2354:	0127f933          	and	s2,a5,s2
    2358:	00000793          	li	a5,0
    235c:	00091e63          	bnez	s2,2378 <__ieee754_pow+0x5d0>
    2360:	000077b7          	lui	a5,0x7
    2364:	c887a603          	lw	a2,-888(a5) # 6c88 <__SDATA_BEGIN__+0x108>
    2368:	c8c7a683          	lw	a3,-884(a5)
    236c:	0e0020ef          	jal	ra,444c <__muldf3>
    2370:	00058493          	mv	s1,a1
    2374:	fcb00793          	li	a5,-53
    2378:	4144d713          	srai	a4,s1,0x14
    237c:	00100637          	lui	a2,0x100
    2380:	c0170713          	addi	a4,a4,-1023 # 408ffc01 <__global_pointer$+0x408f8ca9>
    2384:	fff60593          	addi	a1,a2,-1 # fffff <__global_pointer$+0xf90a7>
    2388:	0003a6b7          	lui	a3,0x3a
    238c:	00f70733          	add	a4,a4,a5
    2390:	00b4f4b3          	and	s1,s1,a1
    2394:	3ff007b7          	lui	a5,0x3ff00
    2398:	88e68693          	addi	a3,a3,-1906 # 3988e <__global_pointer$+0x32936>
    239c:	00f4e7b3          	or	a5,s1,a5
    23a0:	00000813          	li	a6,0
    23a4:	0296d063          	bge	a3,s1,23c4 <__ieee754_pow+0x61c>
    23a8:	000bb6b7          	lui	a3,0xbb
    23ac:	67968693          	addi	a3,a3,1657 # bb679 <__global_pointer$+0xb4721>
    23b0:	00100813          	li	a6,1
    23b4:	0096d863          	bge	a3,s1,23c4 <__ieee754_pow+0x61c>
    23b8:	00170713          	addi	a4,a4,1
    23bc:	40c787b3          	sub	a5,a5,a2
    23c0:	00000813          	li	a6,0
    23c4:	00005337          	lui	t1,0x5
    23c8:	00078c13          	mv	s8,a5
    23cc:	5a030313          	addi	t1,t1,1440 # 55a0 <bp>
    23d0:	00381793          	slli	a5,a6,0x3
    23d4:	00f30333          	add	t1,t1,a5
    23d8:	00032b03          	lw	s6,0(t1)
    23dc:	00432b83          	lw	s7,4(t1)
    23e0:	000c0593          	mv	a1,s8
    23e4:	000b0613          	mv	a2,s6
    23e8:	000b8693          	mv	a3,s7
    23ec:	02e12623          	sw	a4,44(sp)
    23f0:	02612423          	sw	t1,40(sp)
    23f4:	01012823          	sw	a6,16(sp)
    23f8:	00050c93          	mv	s9,a0
    23fc:	6c4020ef          	jal	ra,4ac0 <__subdf3>
    2400:	00050a13          	mv	s4,a0
    2404:	00058a93          	mv	s5,a1
    2408:	000c8613          	mv	a2,s9
    240c:	000c0693          	mv	a3,s8
    2410:	000b0513          	mv	a0,s6
    2414:	000b8593          	mv	a1,s7
    2418:	649000ef          	jal	ra,3260 <__adddf3>
    241c:	000077b7          	lui	a5,0x7
    2420:	00050613          	mv	a2,a0
    2424:	00058693          	mv	a3,a1
    2428:	bb07a503          	lw	a0,-1104(a5) # 6bb0 <__SDATA_BEGIN__+0x30>
    242c:	bb47a583          	lw	a1,-1100(a5)
    2430:	00000913          	li	s2,0
    2434:	5ec010ef          	jal	ra,3a20 <__divdf3>
    2438:	00050613          	mv	a2,a0
    243c:	00058693          	mv	a3,a1
    2440:	02a12023          	sw	a0,32(sp)
    2444:	02b12223          	sw	a1,36(sp)
    2448:	000a0513          	mv	a0,s4
    244c:	000a8593          	mv	a1,s5
    2450:	7fd010ef          	jal	ra,444c <__muldf3>
    2454:	01012803          	lw	a6,16(sp)
    2458:	401c5693          	srai	a3,s8,0x1
    245c:	20000637          	lui	a2,0x20000
    2460:	00c6e6b3          	or	a3,a3,a2
    2464:	00080637          	lui	a2,0x80
    2468:	01281813          	slli	a6,a6,0x12
    246c:	00c686b3          	add	a3,a3,a2
    2470:	01068e33          	add	t3,a3,a6
    2474:	00000e93          	li	t4,0
    2478:	000e8613          	mv	a2,t4
    247c:	000e0693          	mv	a3,t3
    2480:	00a12023          	sw	a0,0(sp)
    2484:	00090513          	mv	a0,s2
    2488:	00058993          	mv	s3,a1
    248c:	01d12c23          	sw	t4,24(sp)
    2490:	01c12823          	sw	t3,16(sp)
    2494:	7b9010ef          	jal	ra,444c <__muldf3>
    2498:	00050613          	mv	a2,a0
    249c:	00058693          	mv	a3,a1
    24a0:	000a0513          	mv	a0,s4
    24a4:	000a8593          	mv	a1,s5
    24a8:	618020ef          	jal	ra,4ac0 <__subdf3>
    24ac:	01812e83          	lw	t4,24(sp)
    24b0:	01012e03          	lw	t3,16(sp)
    24b4:	00050a13          	mv	s4,a0
    24b8:	00058a93          	mv	s5,a1
    24bc:	000e8513          	mv	a0,t4
    24c0:	000e0593          	mv	a1,t3
    24c4:	000b0613          	mv	a2,s6
    24c8:	000b8693          	mv	a3,s7
    24cc:	5f4020ef          	jal	ra,4ac0 <__subdf3>
    24d0:	00050613          	mv	a2,a0
    24d4:	00058693          	mv	a3,a1
    24d8:	000c8513          	mv	a0,s9
    24dc:	000c0593          	mv	a1,s8
    24e0:	5e0020ef          	jal	ra,4ac0 <__subdf3>
    24e4:	00090613          	mv	a2,s2
    24e8:	00098693          	mv	a3,s3
    24ec:	761010ef          	jal	ra,444c <__muldf3>
    24f0:	00050613          	mv	a2,a0
    24f4:	00058693          	mv	a3,a1
    24f8:	000a0513          	mv	a0,s4
    24fc:	000a8593          	mv	a1,s5
    2500:	5c0020ef          	jal	ra,4ac0 <__subdf3>
    2504:	02412f83          	lw	t6,36(sp)
    2508:	02012f03          	lw	t5,32(sp)
    250c:	000f8693          	mv	a3,t6
    2510:	000f0613          	mv	a2,t5
    2514:	739010ef          	jal	ra,444c <__muldf3>
    2518:	00050b13          	mv	s6,a0
    251c:	00012603          	lw	a2,0(sp)
    2520:	00012503          	lw	a0,0(sp)
    2524:	00058b93          	mv	s7,a1
    2528:	00098693          	mv	a3,s3
    252c:	00098593          	mv	a1,s3
    2530:	71d010ef          	jal	ra,444c <__muldf3>
    2534:	000076b7          	lui	a3,0x7
    2538:	c906a603          	lw	a2,-880(a3) # 6c90 <__SDATA_BEGIN__+0x110>
    253c:	c946a683          	lw	a3,-876(a3)
    2540:	00050a13          	mv	s4,a0
    2544:	00058a93          	mv	s5,a1
    2548:	705010ef          	jal	ra,444c <__muldf3>
    254c:	000076b7          	lui	a3,0x7
    2550:	c986a603          	lw	a2,-872(a3) # 6c98 <__SDATA_BEGIN__+0x118>
    2554:	c9c6a683          	lw	a3,-868(a3)
    2558:	509000ef          	jal	ra,3260 <__adddf3>
    255c:	000a0613          	mv	a2,s4
    2560:	000a8693          	mv	a3,s5
    2564:	6e9010ef          	jal	ra,444c <__muldf3>
    2568:	000076b7          	lui	a3,0x7
    256c:	ca06a603          	lw	a2,-864(a3) # 6ca0 <__SDATA_BEGIN__+0x120>
    2570:	ca46a683          	lw	a3,-860(a3)
    2574:	4ed000ef          	jal	ra,3260 <__adddf3>
    2578:	000a0613          	mv	a2,s4
    257c:	000a8693          	mv	a3,s5
    2580:	6cd010ef          	jal	ra,444c <__muldf3>
    2584:	000076b7          	lui	a3,0x7
    2588:	ca86a603          	lw	a2,-856(a3) # 6ca8 <__SDATA_BEGIN__+0x128>
    258c:	cac6a683          	lw	a3,-852(a3)
    2590:	4d1000ef          	jal	ra,3260 <__adddf3>
    2594:	000a0613          	mv	a2,s4
    2598:	000a8693          	mv	a3,s5
    259c:	6b1010ef          	jal	ra,444c <__muldf3>
    25a0:	000076b7          	lui	a3,0x7
    25a4:	cb06a603          	lw	a2,-848(a3) # 6cb0 <__SDATA_BEGIN__+0x130>
    25a8:	cb46a683          	lw	a3,-844(a3)
    25ac:	4b5000ef          	jal	ra,3260 <__adddf3>
    25b0:	000a0613          	mv	a2,s4
    25b4:	000a8693          	mv	a3,s5
    25b8:	695010ef          	jal	ra,444c <__muldf3>
    25bc:	000076b7          	lui	a3,0x7
    25c0:	cb86a603          	lw	a2,-840(a3) # 6cb8 <__SDATA_BEGIN__+0x138>
    25c4:	cbc6a683          	lw	a3,-836(a3)
    25c8:	499000ef          	jal	ra,3260 <__adddf3>
    25cc:	00050c13          	mv	s8,a0
    25d0:	00058c93          	mv	s9,a1
    25d4:	000a0613          	mv	a2,s4
    25d8:	000a8693          	mv	a3,s5
    25dc:	000a0513          	mv	a0,s4
    25e0:	000a8593          	mv	a1,s5
    25e4:	669010ef          	jal	ra,444c <__muldf3>
    25e8:	00050613          	mv	a2,a0
    25ec:	00058693          	mv	a3,a1
    25f0:	000c0513          	mv	a0,s8
    25f4:	000c8593          	mv	a1,s9
    25f8:	655010ef          	jal	ra,444c <__muldf3>
    25fc:	00050a13          	mv	s4,a0
    2600:	00012503          	lw	a0,0(sp)
    2604:	00058a93          	mv	s5,a1
    2608:	00090613          	mv	a2,s2
    260c:	00098693          	mv	a3,s3
    2610:	00098593          	mv	a1,s3
    2614:	44d000ef          	jal	ra,3260 <__adddf3>
    2618:	000b0613          	mv	a2,s6
    261c:	000b8693          	mv	a3,s7
    2620:	62d010ef          	jal	ra,444c <__muldf3>
    2624:	000a0613          	mv	a2,s4
    2628:	000a8693          	mv	a3,s5
    262c:	435000ef          	jal	ra,3260 <__adddf3>
    2630:	00090613          	mv	a2,s2
    2634:	00098693          	mv	a3,s3
    2638:	00a12823          	sw	a0,16(sp)
    263c:	00b12a23          	sw	a1,20(sp)
    2640:	00090513          	mv	a0,s2
    2644:	00098593          	mv	a1,s3
    2648:	605010ef          	jal	ra,444c <__muldf3>
    264c:	00007f37          	lui	t5,0x7
    2650:	cc0f2603          	lw	a2,-832(t5) # 6cc0 <__SDATA_BEGIN__+0x140>
    2654:	cc4f2683          	lw	a3,-828(t5)
    2658:	00a12c23          	sw	a0,24(sp)
    265c:	00b12e23          	sw	a1,28(sp)
    2660:	401000ef          	jal	ra,3260 <__adddf3>
    2664:	01012603          	lw	a2,16(sp)
    2668:	01412683          	lw	a3,20(sp)
    266c:	00000a93          	li	s5,0
    2670:	3f1000ef          	jal	ra,3260 <__adddf3>
    2674:	00058a13          	mv	s4,a1
    2678:	000a8613          	mv	a2,s5
    267c:	00058693          	mv	a3,a1
    2680:	00090513          	mv	a0,s2
    2684:	00098593          	mv	a1,s3
    2688:	5c5010ef          	jal	ra,444c <__muldf3>
    268c:	00007f37          	lui	t5,0x7
    2690:	cc0f2603          	lw	a2,-832(t5) # 6cc0 <__SDATA_BEGIN__+0x140>
    2694:	cc4f2683          	lw	a3,-828(t5)
    2698:	00050c13          	mv	s8,a0
    269c:	00058c93          	mv	s9,a1
    26a0:	000a8513          	mv	a0,s5
    26a4:	000a0593          	mv	a1,s4
    26a8:	418020ef          	jal	ra,4ac0 <__subdf3>
    26ac:	01812803          	lw	a6,24(sp)
    26b0:	01c12883          	lw	a7,28(sp)
    26b4:	00080613          	mv	a2,a6
    26b8:	00088693          	mv	a3,a7
    26bc:	404020ef          	jal	ra,4ac0 <__subdf3>
    26c0:	00050613          	mv	a2,a0
    26c4:	00058693          	mv	a3,a1
    26c8:	01012503          	lw	a0,16(sp)
    26cc:	01412583          	lw	a1,20(sp)
    26d0:	3f0020ef          	jal	ra,4ac0 <__subdf3>
    26d4:	00012603          	lw	a2,0(sp)
    26d8:	00098693          	mv	a3,s3
    26dc:	571010ef          	jal	ra,444c <__muldf3>
    26e0:	00050913          	mv	s2,a0
    26e4:	00058993          	mv	s3,a1
    26e8:	000a8613          	mv	a2,s5
    26ec:	000a0693          	mv	a3,s4
    26f0:	000b0513          	mv	a0,s6
    26f4:	000b8593          	mv	a1,s7
    26f8:	555010ef          	jal	ra,444c <__muldf3>
    26fc:	00050613          	mv	a2,a0
    2700:	00058693          	mv	a3,a1
    2704:	00090513          	mv	a0,s2
    2708:	00098593          	mv	a1,s3
    270c:	355000ef          	jal	ra,3260 <__adddf3>
    2710:	00050913          	mv	s2,a0
    2714:	00058993          	mv	s3,a1
    2718:	00050613          	mv	a2,a0
    271c:	00058693          	mv	a3,a1
    2720:	000c0513          	mv	a0,s8
    2724:	000c8593          	mv	a1,s9
    2728:	339000ef          	jal	ra,3260 <__adddf3>
    272c:	000077b7          	lui	a5,0x7
    2730:	cc87a603          	lw	a2,-824(a5) # 6cc8 <__SDATA_BEGIN__+0x148>
    2734:	ccc7a683          	lw	a3,-820(a5)
    2738:	00000a13          	li	s4,0
    273c:	000a0513          	mv	a0,s4
    2740:	00058493          	mv	s1,a1
    2744:	509010ef          	jal	ra,444c <__muldf3>
    2748:	000c0613          	mv	a2,s8
    274c:	000c8693          	mv	a3,s9
    2750:	00a12023          	sw	a0,0(sp)
    2754:	00b12223          	sw	a1,4(sp)
    2758:	000a0513          	mv	a0,s4
    275c:	00048593          	mv	a1,s1
    2760:	360020ef          	jal	ra,4ac0 <__subdf3>
    2764:	00050613          	mv	a2,a0
    2768:	00058693          	mv	a3,a1
    276c:	00090513          	mv	a0,s2
    2770:	00098593          	mv	a1,s3
    2774:	34c020ef          	jal	ra,4ac0 <__subdf3>
    2778:	000077b7          	lui	a5,0x7
    277c:	cd07a603          	lw	a2,-816(a5) # 6cd0 <__SDATA_BEGIN__+0x150>
    2780:	cd47a683          	lw	a3,-812(a5)
    2784:	4c9010ef          	jal	ra,444c <__muldf3>
    2788:	000077b7          	lui	a5,0x7
    278c:	cd87a603          	lw	a2,-808(a5) # 6cd8 <__SDATA_BEGIN__+0x158>
    2790:	cdc7a683          	lw	a3,-804(a5)
    2794:	00050913          	mv	s2,a0
    2798:	00058993          	mv	s3,a1
    279c:	000a0513          	mv	a0,s4
    27a0:	00048593          	mv	a1,s1
    27a4:	4a9010ef          	jal	ra,444c <__muldf3>
    27a8:	00050613          	mv	a2,a0
    27ac:	00058693          	mv	a3,a1
    27b0:	00090513          	mv	a0,s2
    27b4:	00098593          	mv	a1,s3
    27b8:	2a9000ef          	jal	ra,3260 <__adddf3>
    27bc:	02812303          	lw	t1,40(sp)
    27c0:	01032603          	lw	a2,16(t1)
    27c4:	01432683          	lw	a3,20(t1)
    27c8:	00612823          	sw	t1,16(sp)
    27cc:	295000ef          	jal	ra,3260 <__adddf3>
    27d0:	02c12703          	lw	a4,44(sp)
    27d4:	00050913          	mv	s2,a0
    27d8:	00058993          	mv	s3,a1
    27dc:	00070513          	mv	a0,a4
    27e0:	371020ef          	jal	ra,5350 <__floatsidf>
    27e4:	01012303          	lw	t1,16(sp)
    27e8:	00050a13          	mv	s4,a0
    27ec:	00058a93          	mv	s5,a1
    27f0:	00012503          	lw	a0,0(sp)
    27f4:	00412583          	lw	a1,4(sp)
    27f8:	02032b03          	lw	s6,32(t1)
    27fc:	02432b83          	lw	s7,36(t1)
    2800:	00090613          	mv	a2,s2
    2804:	00098693          	mv	a3,s3
    2808:	259000ef          	jal	ra,3260 <__adddf3>
    280c:	000b0613          	mv	a2,s6
    2810:	000b8693          	mv	a3,s7
    2814:	24d000ef          	jal	ra,3260 <__adddf3>
    2818:	000a0613          	mv	a2,s4
    281c:	000a8693          	mv	a3,s5
    2820:	241000ef          	jal	ra,3260 <__adddf3>
    2824:	00000713          	li	a4,0
    2828:	00070513          	mv	a0,a4
    282c:	000a0613          	mv	a2,s4
    2830:	000a8693          	mv	a3,s5
    2834:	00070c13          	mv	s8,a4
    2838:	00058c93          	mv	s9,a1
    283c:	284020ef          	jal	ra,4ac0 <__subdf3>
    2840:	000b0613          	mv	a2,s6
    2844:	000b8693          	mv	a3,s7
    2848:	278020ef          	jal	ra,4ac0 <__subdf3>
    284c:	00012603          	lw	a2,0(sp)
    2850:	00412683          	lw	a3,4(sp)
    2854:	26c020ef          	jal	ra,4ac0 <__subdf3>
    2858:	00050613          	mv	a2,a0
    285c:	00058693          	mv	a3,a1
    2860:	00090513          	mv	a0,s2
    2864:	00098593          	mv	a1,s3
    2868:	9e9ff06f          	j	2250 <__ieee754_pow+0x4a8>
    286c:	000077b7          	lui	a5,0x7
    2870:	bb07a403          	lw	s0,-1104(a5) # 6bb0 <__SDATA_BEGIN__+0x30>
    2874:	bb47a483          	lw	s1,-1100(a5)
    2878:	a01ff06f          	j	2278 <__ieee754_pow+0x4d0>
    287c:	000077b7          	lui	a5,0x7
    2880:	ce07a603          	lw	a2,-800(a5) # 6ce0 <__SDATA_BEGIN__+0x160>
    2884:	ce47a683          	lw	a3,-796(a5)
    2888:	00a12023          	sw	a0,0(sp)
    288c:	00098593          	mv	a1,s3
    2890:	00090513          	mv	a0,s2
    2894:	1cd000ef          	jal	ra,3260 <__adddf3>
    2898:	00012803          	lw	a6,0(sp)
    289c:	00050c13          	mv	s8,a0
    28a0:	00058c93          	mv	s9,a1
    28a4:	000a8613          	mv	a2,s5
    28a8:	000a0693          	mv	a3,s4
    28ac:	00080513          	mv	a0,a6
    28b0:	000d8593          	mv	a1,s11
    28b4:	20c020ef          	jal	ra,4ac0 <__subdf3>
    28b8:	00050613          	mv	a2,a0
    28bc:	00058693          	mv	a3,a1
    28c0:	000c0513          	mv	a0,s8
    28c4:	000c8593          	mv	a1,s9
    28c8:	1b5010ef          	jal	ra,427c <__gedf2>
    28cc:	a6a040e3          	bgtz	a0,232c <__ieee754_pow+0x584>
    28d0:	001d9793          	slli	a5,s11,0x1
    28d4:	0017d793          	srli	a5,a5,0x1
    28d8:	3fe00737          	lui	a4,0x3fe00
    28dc:	00000c13          	li	s8,0
    28e0:	06f75863          	bge	a4,a5,2950 <__ieee754_pow+0xba8>
    28e4:	4147d593          	srai	a1,a5,0x14
    28e8:	00100737          	lui	a4,0x100
    28ec:	c0258593          	addi	a1,a1,-1022 # 7ffffc02 <__global_pointer$+0x7fff8caa>
    28f0:	40b755b3          	sra	a1,a4,a1
    28f4:	01b585b3          	add	a1,a1,s11
    28f8:	4145d793          	srai	a5,a1,0x14
    28fc:	7ff7f793          	andi	a5,a5,2047
    2900:	c0178793          	addi	a5,a5,-1023
    2904:	fff70513          	addi	a0,a4,-1 # fffff <__global_pointer$+0xf90a7>
    2908:	40f556b3          	sra	a3,a0,a5
    290c:	fff6c693          	not	a3,a3
    2910:	00b6f833          	and	a6,a3,a1
    2914:	01400c13          	li	s8,20
    2918:	00a5f5b3          	and	a1,a1,a0
    291c:	00000893          	li	a7,0
    2920:	00e5e5b3          	or	a1,a1,a4
    2924:	40fc0c33          	sub	s8,s8,a5
    2928:	00088613          	mv	a2,a7
    292c:	00080693          	mv	a3,a6
    2930:	4185dc33          	sra	s8,a1,s8
    2934:	000b5463          	bgez	s6,293c <__ieee754_pow+0xb94>
    2938:	41800c33          	neg	s8,s8
    293c:	000a8513          	mv	a0,s5
    2940:	000a0593          	mv	a1,s4
    2944:	17c020ef          	jal	ra,4ac0 <__subdf3>
    2948:	00050d13          	mv	s10,a0
    294c:	00058b93          	mv	s7,a1
    2950:	00090613          	mv	a2,s2
    2954:	00098693          	mv	a3,s3
    2958:	000d0513          	mv	a0,s10
    295c:	000b8593          	mv	a1,s7
    2960:	101000ef          	jal	ra,3260 <__adddf3>
    2964:	000077b7          	lui	a5,0x7
    2968:	cf07a603          	lw	a2,-784(a5) # 6cf0 <__SDATA_BEGIN__+0x170>
    296c:	cf47a683          	lw	a3,-780(a5)
    2970:	00000c93          	li	s9,0
    2974:	000c8513          	mv	a0,s9
    2978:	00058b13          	mv	s6,a1
    297c:	2d1010ef          	jal	ra,444c <__muldf3>
    2980:	00050a13          	mv	s4,a0
    2984:	00058a93          	mv	s5,a1
    2988:	000d0613          	mv	a2,s10
    298c:	000b8693          	mv	a3,s7
    2990:	000b0593          	mv	a1,s6
    2994:	000c8513          	mv	a0,s9
    2998:	128020ef          	jal	ra,4ac0 <__subdf3>
    299c:	00050613          	mv	a2,a0
    29a0:	00058693          	mv	a3,a1
    29a4:	00090513          	mv	a0,s2
    29a8:	00098593          	mv	a1,s3
    29ac:	114020ef          	jal	ra,4ac0 <__subdf3>
    29b0:	000077b7          	lui	a5,0x7
    29b4:	cf87a603          	lw	a2,-776(a5) # 6cf8 <__SDATA_BEGIN__+0x178>
    29b8:	cfc7a683          	lw	a3,-772(a5)
    29bc:	291010ef          	jal	ra,444c <__muldf3>
    29c0:	000077b7          	lui	a5,0x7
    29c4:	d007a603          	lw	a2,-768(a5) # 6d00 <__SDATA_BEGIN__+0x180>
    29c8:	d047a683          	lw	a3,-764(a5)
    29cc:	00050913          	mv	s2,a0
    29d0:	00058993          	mv	s3,a1
    29d4:	000c8513          	mv	a0,s9
    29d8:	000b0593          	mv	a1,s6
    29dc:	271010ef          	jal	ra,444c <__muldf3>
    29e0:	00050613          	mv	a2,a0
    29e4:	00058693          	mv	a3,a1
    29e8:	00090513          	mv	a0,s2
    29ec:	00098593          	mv	a1,s3
    29f0:	071000ef          	jal	ra,3260 <__adddf3>
    29f4:	00050b13          	mv	s6,a0
    29f8:	00058b93          	mv	s7,a1
    29fc:	00050613          	mv	a2,a0
    2a00:	00058693          	mv	a3,a1
    2a04:	000a0513          	mv	a0,s4
    2a08:	000a8593          	mv	a1,s5
    2a0c:	055000ef          	jal	ra,3260 <__adddf3>
    2a10:	000a0613          	mv	a2,s4
    2a14:	000a8693          	mv	a3,s5
    2a18:	00050913          	mv	s2,a0
    2a1c:	00058993          	mv	s3,a1
    2a20:	0a0020ef          	jal	ra,4ac0 <__subdf3>
    2a24:	00050613          	mv	a2,a0
    2a28:	00058693          	mv	a3,a1
    2a2c:	000b0513          	mv	a0,s6
    2a30:	000b8593          	mv	a1,s7
    2a34:	08c020ef          	jal	ra,4ac0 <__subdf3>
    2a38:	00050b13          	mv	s6,a0
    2a3c:	00058b93          	mv	s7,a1
    2a40:	00090613          	mv	a2,s2
    2a44:	00098693          	mv	a3,s3
    2a48:	00090513          	mv	a0,s2
    2a4c:	00098593          	mv	a1,s3
    2a50:	1fd010ef          	jal	ra,444c <__muldf3>
    2a54:	000077b7          	lui	a5,0x7
    2a58:	be07a603          	lw	a2,-1056(a5) # 6be0 <__SDATA_BEGIN__+0x60>
    2a5c:	be47a683          	lw	a3,-1052(a5)
    2a60:	00050a13          	mv	s4,a0
    2a64:	00058a93          	mv	s5,a1
    2a68:	1e5010ef          	jal	ra,444c <__muldf3>
    2a6c:	000077b7          	lui	a5,0x7
    2a70:	be87a603          	lw	a2,-1048(a5) # 6be8 <__SDATA_BEGIN__+0x68>
    2a74:	bec7a683          	lw	a3,-1044(a5)
    2a78:	048020ef          	jal	ra,4ac0 <__subdf3>
    2a7c:	000a0613          	mv	a2,s4
    2a80:	000a8693          	mv	a3,s5
    2a84:	1c9010ef          	jal	ra,444c <__muldf3>
    2a88:	000077b7          	lui	a5,0x7
    2a8c:	bf07a603          	lw	a2,-1040(a5) # 6bf0 <__SDATA_BEGIN__+0x70>
    2a90:	bf47a683          	lw	a3,-1036(a5)
    2a94:	7cc000ef          	jal	ra,3260 <__adddf3>
    2a98:	000a0613          	mv	a2,s4
    2a9c:	000a8693          	mv	a3,s5
    2aa0:	1ad010ef          	jal	ra,444c <__muldf3>
    2aa4:	000077b7          	lui	a5,0x7
    2aa8:	bf87a603          	lw	a2,-1032(a5) # 6bf8 <__SDATA_BEGIN__+0x78>
    2aac:	bfc7a683          	lw	a3,-1028(a5)
    2ab0:	010020ef          	jal	ra,4ac0 <__subdf3>
    2ab4:	000a0613          	mv	a2,s4
    2ab8:	000a8693          	mv	a3,s5
    2abc:	191010ef          	jal	ra,444c <__muldf3>
    2ac0:	000077b7          	lui	a5,0x7
    2ac4:	c007a603          	lw	a2,-1024(a5) # 6c00 <__SDATA_BEGIN__+0x80>
    2ac8:	c047a683          	lw	a3,-1020(a5)
    2acc:	794000ef          	jal	ra,3260 <__adddf3>
    2ad0:	000a0613          	mv	a2,s4
    2ad4:	000a8693          	mv	a3,s5
    2ad8:	175010ef          	jal	ra,444c <__muldf3>
    2adc:	00050613          	mv	a2,a0
    2ae0:	00058693          	mv	a3,a1
    2ae4:	00090513          	mv	a0,s2
    2ae8:	00098593          	mv	a1,s3
    2aec:	7d5010ef          	jal	ra,4ac0 <__subdf3>
    2af0:	00050a13          	mv	s4,a0
    2af4:	00058a93          	mv	s5,a1
    2af8:	00050613          	mv	a2,a0
    2afc:	00058693          	mv	a3,a1
    2b00:	00090513          	mv	a0,s2
    2b04:	00098593          	mv	a1,s3
    2b08:	145010ef          	jal	ra,444c <__muldf3>
    2b0c:	000077b7          	lui	a5,0x7
    2b10:	c087a603          	lw	a2,-1016(a5) # 6c08 <__SDATA_BEGIN__+0x88>
    2b14:	c0c7a683          	lw	a3,-1012(a5)
    2b18:	00050d13          	mv	s10,a0
    2b1c:	00058d93          	mv	s11,a1
    2b20:	000a0513          	mv	a0,s4
    2b24:	000a8593          	mv	a1,s5
    2b28:	799010ef          	jal	ra,4ac0 <__subdf3>
    2b2c:	00050613          	mv	a2,a0
    2b30:	00058693          	mv	a3,a1
    2b34:	000d0513          	mv	a0,s10
    2b38:	000d8593          	mv	a1,s11
    2b3c:	6e5000ef          	jal	ra,3a20 <__divdf3>
    2b40:	00050a13          	mv	s4,a0
    2b44:	00058a93          	mv	s5,a1
    2b48:	000b0613          	mv	a2,s6
    2b4c:	000b8693          	mv	a3,s7
    2b50:	00090513          	mv	a0,s2
    2b54:	00098593          	mv	a1,s3
    2b58:	0f5010ef          	jal	ra,444c <__muldf3>
    2b5c:	000b0613          	mv	a2,s6
    2b60:	000b8693          	mv	a3,s7
    2b64:	6fc000ef          	jal	ra,3260 <__adddf3>
    2b68:	00050613          	mv	a2,a0
    2b6c:	00058693          	mv	a3,a1
    2b70:	000a0513          	mv	a0,s4
    2b74:	000a8593          	mv	a1,s5
    2b78:	749010ef          	jal	ra,4ac0 <__subdf3>
    2b7c:	00090613          	mv	a2,s2
    2b80:	00098693          	mv	a3,s3
    2b84:	73d010ef          	jal	ra,4ac0 <__subdf3>
    2b88:	000077b7          	lui	a5,0x7
    2b8c:	00050613          	mv	a2,a0
    2b90:	00058693          	mv	a3,a1
    2b94:	bb07a503          	lw	a0,-1104(a5) # 6bb0 <__SDATA_BEGIN__+0x30>
    2b98:	bb47a583          	lw	a1,-1100(a5)
    2b9c:	725010ef          	jal	ra,4ac0 <__subdf3>
    2ba0:	014c1793          	slli	a5,s8,0x14
    2ba4:	00b787b3          	add	a5,a5,a1
    2ba8:	4147d713          	srai	a4,a5,0x14
    2bac:	08e04263          	bgtz	a4,2c30 <__ieee754_pow+0xe88>
    2bb0:	000c0613          	mv	a2,s8
    2bb4:	520000ef          	jal	ra,30d4 <scalbn>
    2bb8:	00040613          	mv	a2,s0
    2bbc:	00048693          	mv	a3,s1
    2bc0:	c70ff06f          	j	2030 <__ieee754_pow+0x288>
    2bc4:	00159713          	slli	a4,a1,0x1
    2bc8:	4090d7b7          	lui	a5,0x4090d
    2bcc:	00175713          	srli	a4,a4,0x1
    2bd0:	bff78793          	addi	a5,a5,-1025 # 4090cbff <__global_pointer$+0x40905ca7>
    2bd4:	cee7dee3          	bge	a5,a4,28d0 <__ieee754_pow+0xb28>
    2bd8:	3f6f37b7          	lui	a5,0x3f6f3
    2bdc:	40078793          	addi	a5,a5,1024 # 3f6f3400 <__global_pointer$+0x3f6ec4a8>
    2be0:	00b787b3          	add	a5,a5,a1
    2be4:	00a7e7b3          	or	a5,a5,a0
    2be8:	02078463          	beqz	a5,2c10 <__ieee754_pow+0xe68>
    2bec:	00007937          	lui	s2,0x7
    2bf0:	ce892603          	lw	a2,-792(s2) # 6ce8 <__SDATA_BEGIN__+0x168>
    2bf4:	cec92683          	lw	a3,-788(s2)
    2bf8:	00040513          	mv	a0,s0
    2bfc:	00048593          	mv	a1,s1
    2c00:	04d010ef          	jal	ra,444c <__muldf3>
    2c04:	ce892603          	lw	a2,-792(s2)
    2c08:	cec92683          	lw	a3,-788(s2)
    2c0c:	c24ff06f          	j	2030 <__ieee754_pow+0x288>
    2c10:	000a8613          	mv	a2,s5
    2c14:	000a0693          	mv	a3,s4
    2c18:	6a9010ef          	jal	ra,4ac0 <__subdf3>
    2c1c:	00090613          	mv	a2,s2
    2c20:	00098693          	mv	a3,s3
    2c24:	658010ef          	jal	ra,427c <__gedf2>
    2c28:	ca0544e3          	bltz	a0,28d0 <__ieee754_pow+0xb28>
    2c2c:	fc1ff06f          	j	2bec <__ieee754_pow+0xe44>
    2c30:	00078593          	mv	a1,a5
    2c34:	f85ff06f          	j	2bb8 <__ieee754_pow+0xe10>
    2c38:	00000513          	li	a0,0
    2c3c:	3ff005b7          	lui	a1,0x3ff00
    2c40:	b88ff06f          	j	1fc8 <__ieee754_pow+0x220>
    2c44:	00000513          	li	a0,0
    2c48:	000d0593          	mv	a1,s10
    2c4c:	b7cff06f          	j	1fc8 <__ieee754_pow+0x220>
    2c50:	000a0513          	mv	a0,s4
    2c54:	00090593          	mv	a1,s2
    2c58:	b70ff06f          	j	1fc8 <__ieee754_pow+0x220>

00002c5c <__ieee754_sqrt>:
    2c5c:	ff010113          	addi	sp,sp,-16
    2c60:	7ff00837          	lui	a6,0x7ff00
    2c64:	00812423          	sw	s0,8(sp)
    2c68:	00912223          	sw	s1,4(sp)
    2c6c:	00112623          	sw	ra,12(sp)
    2c70:	00b877b3          	and	a5,a6,a1
    2c74:	00050493          	mv	s1,a0
    2c78:	00058413          	mv	s0,a1
    2c7c:	05079463          	bne	a5,a6,2cc4 <__ieee754_sqrt+0x68>
    2c80:	00050613          	mv	a2,a0
    2c84:	00058693          	mv	a3,a1
    2c88:	7c4010ef          	jal	ra,444c <__muldf3>
    2c8c:	00050613          	mv	a2,a0
    2c90:	00058693          	mv	a3,a1
    2c94:	00048513          	mv	a0,s1
    2c98:	00040593          	mv	a1,s0
    2c9c:	5c4000ef          	jal	ra,3260 <__adddf3>
    2ca0:	00050493          	mv	s1,a0
    2ca4:	00058413          	mv	s0,a1
    2ca8:	00040593          	mv	a1,s0
    2cac:	00c12083          	lw	ra,12(sp)
    2cb0:	00812403          	lw	s0,8(sp)
    2cb4:	00048513          	mv	a0,s1
    2cb8:	00412483          	lw	s1,4(sp)
    2cbc:	01010113          	addi	sp,sp,16
    2cc0:	00008067          	ret
    2cc4:	00058713          	mv	a4,a1
    2cc8:	00050693          	mv	a3,a0
    2ccc:	02b04a63          	bgtz	a1,2d00 <__ieee754_sqrt+0xa4>
    2cd0:	00159793          	slli	a5,a1,0x1
    2cd4:	0017d793          	srli	a5,a5,0x1
    2cd8:	00a7e7b3          	or	a5,a5,a0
    2cdc:	fc0786e3          	beqz	a5,2ca8 <__ieee754_sqrt+0x4c>
    2ce0:	02058063          	beqz	a1,2d00 <__ieee754_sqrt+0xa4>
    2ce4:	00050613          	mv	a2,a0
    2ce8:	00058693          	mv	a3,a1
    2cec:	5d5010ef          	jal	ra,4ac0 <__subdf3>
    2cf0:	00050613          	mv	a2,a0
    2cf4:	00058693          	mv	a3,a1
    2cf8:	529000ef          	jal	ra,3a20 <__divdf3>
    2cfc:	fa5ff06f          	j	2ca0 <__ieee754_sqrt+0x44>
    2d00:	41475793          	srai	a5,a4,0x14
    2d04:	16078663          	beqz	a5,2e70 <__ieee754_sqrt+0x214>
    2d08:	00100637          	lui	a2,0x100
    2d0c:	fff60593          	addi	a1,a2,-1 # fffff <__global_pointer$+0xf90a7>
    2d10:	c0178793          	addi	a5,a5,-1023
    2d14:	00b77733          	and	a4,a4,a1
    2d18:	00c76733          	or	a4,a4,a2
    2d1c:	0017f613          	andi	a2,a5,1
    2d20:	00060a63          	beqz	a2,2d34 <__ieee754_sqrt+0xd8>
    2d24:	01f6d613          	srli	a2,a3,0x1f
    2d28:	00171713          	slli	a4,a4,0x1
    2d2c:	00c70733          	add	a4,a4,a2
    2d30:	00169693          	slli	a3,a3,0x1
    2d34:	00171713          	slli	a4,a4,0x1
    2d38:	4017d893          	srai	a7,a5,0x1
    2d3c:	01f6d793          	srli	a5,a3,0x1f
    2d40:	00f707b3          	add	a5,a4,a5
    2d44:	00169693          	slli	a3,a3,0x1
    2d48:	01600513          	li	a0,22
    2d4c:	00000593          	li	a1,0
    2d50:	00000613          	li	a2,0
    2d54:	00200737          	lui	a4,0x200
    2d58:	00e60833          	add	a6,a2,a4
    2d5c:	0107c863          	blt	a5,a6,2d6c <__ieee754_sqrt+0x110>
    2d60:	00e80633          	add	a2,a6,a4
    2d64:	410787b3          	sub	a5,a5,a6
    2d68:	00e585b3          	add	a1,a1,a4
    2d6c:	01f6d813          	srli	a6,a3,0x1f
    2d70:	00179793          	slli	a5,a5,0x1
    2d74:	fff50513          	addi	a0,a0,-1 # c00fffff <__global_pointer$+0xc00f90a7>
    2d78:	00f807b3          	add	a5,a6,a5
    2d7c:	00169693          	slli	a3,a3,0x1
    2d80:	00175713          	srli	a4,a4,0x1
    2d84:	fc051ae3          	bnez	a0,2d58 <__ieee754_sqrt+0xfc>
    2d88:	02000313          	li	t1,32
    2d8c:	00000713          	li	a4,0
    2d90:	00000e13          	li	t3,0
    2d94:	80000537          	lui	a0,0x80000
    2d98:	01c50833          	add	a6,a0,t3
    2d9c:	00f64663          	blt	a2,a5,2da8 <__ieee754_sqrt+0x14c>
    2da0:	02c79a63          	bne	a5,a2,2dd4 <__ieee754_sqrt+0x178>
    2da4:	0306e863          	bltu	a3,a6,2dd4 <__ieee754_sqrt+0x178>
    2da8:	00a80e33          	add	t3,a6,a0
    2dac:	00060e93          	mv	t4,a2
    2db0:	00085663          	bgez	a6,2dbc <__ieee754_sqrt+0x160>
    2db4:	000e4463          	bltz	t3,2dbc <__ieee754_sqrt+0x160>
    2db8:	00160e93          	addi	t4,a2,1
    2dbc:	40c787b3          	sub	a5,a5,a2
    2dc0:	0106f463          	bgeu	a3,a6,2dc8 <__ieee754_sqrt+0x16c>
    2dc4:	fff78793          	addi	a5,a5,-1
    2dc8:	410686b3          	sub	a3,a3,a6
    2dcc:	00a70733          	add	a4,a4,a0
    2dd0:	000e8613          	mv	a2,t4
    2dd4:	01f6d813          	srli	a6,a3,0x1f
    2dd8:	00179793          	slli	a5,a5,0x1
    2ddc:	fff30313          	addi	t1,t1,-1
    2de0:	00f807b3          	add	a5,a6,a5
    2de4:	00169693          	slli	a3,a3,0x1
    2de8:	00155513          	srli	a0,a0,0x1
    2dec:	fa0316e3          	bnez	t1,2d98 <__ieee754_sqrt+0x13c>
    2df0:	00d7e7b3          	or	a5,a5,a3
    2df4:	00078a63          	beqz	a5,2e08 <__ieee754_sqrt+0x1ac>
    2df8:	fff00793          	li	a5,-1
    2dfc:	08f71463          	bne	a4,a5,2e84 <__ieee754_sqrt+0x228>
    2e00:	00158593          	addi	a1,a1,1 # 3ff00001 <__global_pointer$+0x3fef90a9>
    2e04:	00000713          	li	a4,0
    2e08:	4015d693          	srai	a3,a1,0x1
    2e0c:	3fe007b7          	lui	a5,0x3fe00
    2e10:	0015f593          	andi	a1,a1,1
    2e14:	00f686b3          	add	a3,a3,a5
    2e18:	00175713          	srli	a4,a4,0x1
    2e1c:	00058663          	beqz	a1,2e28 <__ieee754_sqrt+0x1cc>
    2e20:	800007b7          	lui	a5,0x80000
    2e24:	00f76733          	or	a4,a4,a5
    2e28:	01489793          	slli	a5,a7,0x14
    2e2c:	00070493          	mv	s1,a4
    2e30:	00d78433          	add	s0,a5,a3
    2e34:	e75ff06f          	j	2ca8 <__ieee754_sqrt+0x4c>
    2e38:	00b6d713          	srli	a4,a3,0xb
    2e3c:	feb58593          	addi	a1,a1,-21
    2e40:	01569693          	slli	a3,a3,0x15
    2e44:	fe070ae3          	beqz	a4,2e38 <__ieee754_sqrt+0x1dc>
    2e48:	00b71613          	slli	a2,a4,0xb
    2e4c:	02065663          	bgez	a2,2e78 <__ieee754_sqrt+0x21c>
    2e50:	02000613          	li	a2,32
    2e54:	40f60633          	sub	a2,a2,a5
    2e58:	00c6d633          	srl	a2,a3,a2
    2e5c:	fff78513          	addi	a0,a5,-1 # 7fffffff <__global_pointer$+0x7fff90a7>
    2e60:	00f696b3          	sll	a3,a3,a5
    2e64:	00e66733          	or	a4,a2,a4
    2e68:	40a587b3          	sub	a5,a1,a0
    2e6c:	e9dff06f          	j	2d08 <__ieee754_sqrt+0xac>
    2e70:	00000593          	li	a1,0
    2e74:	fd1ff06f          	j	2e44 <__ieee754_sqrt+0x1e8>
    2e78:	00171713          	slli	a4,a4,0x1
    2e7c:	00178793          	addi	a5,a5,1
    2e80:	fc9ff06f          	j	2e48 <__ieee754_sqrt+0x1ec>
    2e84:	00170713          	addi	a4,a4,1 # 200001 <__global_pointer$+0x1f90a9>
    2e88:	ffe77713          	andi	a4,a4,-2
    2e8c:	f7dff06f          	j	2e08 <__ieee754_sqrt+0x1ac>

00002e90 <fabs>:
    2e90:	00159593          	slli	a1,a1,0x1
    2e94:	00050713          	mv	a4,a0
    2e98:	0015d793          	srli	a5,a1,0x1
    2e9c:	00070513          	mv	a0,a4
    2ea0:	00078593          	mv	a1,a5
    2ea4:	00008067          	ret

00002ea8 <finite>:
    2ea8:	00159593          	slli	a1,a1,0x1
    2eac:	0015d593          	srli	a1,a1,0x1
    2eb0:	80100537          	lui	a0,0x80100
    2eb4:	00a58533          	add	a0,a1,a0
    2eb8:	01f55513          	srli	a0,a0,0x1f
    2ebc:	00008067          	ret

00002ec0 <matherr>:
    2ec0:	00000513          	li	a0,0
    2ec4:	00008067          	ret

00002ec8 <nan>:
    2ec8:	000077b7          	lui	a5,0x7
    2ecc:	d087a503          	lw	a0,-760(a5) # 6d08 <__SDATA_BEGIN__+0x188>
    2ed0:	d0c7a583          	lw	a1,-756(a5)
    2ed4:	00008067          	ret

00002ed8 <rint>:
    2ed8:	4145d613          	srai	a2,a1,0x14
    2edc:	fd010113          	addi	sp,sp,-48
    2ee0:	7ff67613          	andi	a2,a2,2047
    2ee4:	02812423          	sw	s0,40(sp)
    2ee8:	02112623          	sw	ra,44(sp)
    2eec:	02912223          	sw	s1,36(sp)
    2ef0:	03212023          	sw	s2,32(sp)
    2ef4:	01312e23          	sw	s3,28(sp)
    2ef8:	c0160813          	addi	a6,a2,-1023
    2efc:	01300f13          	li	t5,19
    2f00:	00050e13          	mv	t3,a0
    2f04:	00058713          	mv	a4,a1
    2f08:	00058893          	mv	a7,a1
    2f0c:	00050793          	mv	a5,a0
    2f10:	01f5d413          	srli	s0,a1,0x1f
    2f14:	170f4063          	blt	t5,a6,3074 <rint+0x19c>
    2f18:	0c085063          	bgez	a6,2fd8 <rint+0x100>
    2f1c:	800004b7          	lui	s1,0x80000
    2f20:	fff4c493          	not	s1,s1
    2f24:	0095f6b3          	and	a3,a1,s1
    2f28:	00a6e6b3          	or	a3,a3,a0
    2f2c:	08068463          	beqz	a3,2fb4 <rint+0xdc>
    2f30:	00c59793          	slli	a5,a1,0xc
    2f34:	00c7d793          	srli	a5,a5,0xc
    2f38:	00a7e733          	or	a4,a5,a0
    2f3c:	40e007b3          	neg	a5,a4
    2f40:	00e7e7b3          	or	a5,a5,a4
    2f44:	00c7d793          	srli	a5,a5,0xc
    2f48:	00080737          	lui	a4,0x80
    2f4c:	00e7f7b3          	and	a5,a5,a4
    2f50:	fffe0737          	lui	a4,0xfffe0
    2f54:	00e5f333          	and	t1,a1,a4
    2f58:	0067e733          	or	a4,a5,t1
    2f5c:	000057b7          	lui	a5,0x5
    2f60:	00341693          	slli	a3,s0,0x3
    2f64:	5d078793          	addi	a5,a5,1488 # 55d0 <TWO52>
    2f68:	00d787b3          	add	a5,a5,a3
    2f6c:	0007a903          	lw	s2,0(a5)
    2f70:	0047a983          	lw	s3,4(a5)
    2f74:	00070693          	mv	a3,a4
    2f78:	00050613          	mv	a2,a0
    2f7c:	00098593          	mv	a1,s3
    2f80:	00090513          	mv	a0,s2
    2f84:	2dc000ef          	jal	ra,3260 <__adddf3>
    2f88:	00a12423          	sw	a0,8(sp)
    2f8c:	00b12623          	sw	a1,12(sp)
    2f90:	00812503          	lw	a0,8(sp)
    2f94:	00c12583          	lw	a1,12(sp)
    2f98:	00090613          	mv	a2,s2
    2f9c:	00098693          	mv	a3,s3
    2fa0:	321010ef          	jal	ra,4ac0 <__subdf3>
    2fa4:	00b4f4b3          	and	s1,s1,a1
    2fa8:	01f41413          	slli	s0,s0,0x1f
    2fac:	00050e13          	mv	t3,a0
    2fb0:	0084e733          	or	a4,s1,s0
    2fb4:	02c12083          	lw	ra,44(sp)
    2fb8:	02812403          	lw	s0,40(sp)
    2fbc:	02412483          	lw	s1,36(sp)
    2fc0:	02012903          	lw	s2,32(sp)
    2fc4:	01c12983          	lw	s3,28(sp)
    2fc8:	000e0513          	mv	a0,t3
    2fcc:	00070593          	mv	a1,a4
    2fd0:	03010113          	addi	sp,sp,48
    2fd4:	00008067          	ret
    2fd8:	001006b7          	lui	a3,0x100
    2fdc:	fff68693          	addi	a3,a3,-1 # fffff <__global_pointer$+0xf90a7>
    2fe0:	4106d6b3          	sra	a3,a3,a6
    2fe4:	00d5f633          	and	a2,a1,a3
    2fe8:	00a66633          	or	a2,a2,a0
    2fec:	00058e93          	mv	t4,a1
    2ff0:	fc0602e3          	beqz	a2,2fb4 <rint+0xdc>
    2ff4:	0016d693          	srli	a3,a3,0x1
    2ff8:	00d5f733          	and	a4,a1,a3
    2ffc:	00e567b3          	or	a5,a0,a4
    3000:	02078263          	beqz	a5,3024 <rint+0x14c>
    3004:	800007b7          	lui	a5,0x80000
    3008:	01e80463          	beq	a6,t5,3010 <rint+0x138>
    300c:	00000793          	li	a5,0
    3010:	000408b7          	lui	a7,0x40
    3014:	fff6c693          	not	a3,a3
    3018:	01d6f6b3          	and	a3,a3,t4
    301c:	4108d833          	sra	a6,a7,a6
    3020:	0106e8b3          	or	a7,a3,a6
    3024:	00078593          	mv	a1,a5
    3028:	00341793          	slli	a5,s0,0x3
    302c:	00005437          	lui	s0,0x5
    3030:	5d040413          	addi	s0,s0,1488 # 55d0 <TWO52>
    3034:	00f40433          	add	s0,s0,a5
    3038:	00442483          	lw	s1,4(s0)
    303c:	00042403          	lw	s0,0(s0)
    3040:	00058613          	mv	a2,a1
    3044:	00088693          	mv	a3,a7
    3048:	00040513          	mv	a0,s0
    304c:	00048593          	mv	a1,s1
    3050:	210000ef          	jal	ra,3260 <__adddf3>
    3054:	00a12423          	sw	a0,8(sp)
    3058:	00b12623          	sw	a1,12(sp)
    305c:	00812503          	lw	a0,8(sp)
    3060:	00c12583          	lw	a1,12(sp)
    3064:	00040613          	mv	a2,s0
    3068:	00048693          	mv	a3,s1
    306c:	255010ef          	jal	ra,4ac0 <__subdf3>
    3070:	0200006f          	j	3090 <rint+0x1b8>
    3074:	03300693          	li	a3,51
    3078:	0306d263          	bge	a3,a6,309c <rint+0x1c4>
    307c:	40000793          	li	a5,1024
    3080:	f2f81ae3          	bne	a6,a5,2fb4 <rint+0xdc>
    3084:	00050613          	mv	a2,a0
    3088:	00058693          	mv	a3,a1
    308c:	1d4000ef          	jal	ra,3260 <__adddf3>
    3090:	00050e13          	mv	t3,a0
    3094:	00058713          	mv	a4,a1
    3098:	f1dff06f          	j	2fb4 <rint+0xdc>
    309c:	bed60593          	addi	a1,a2,-1043
    30a0:	fff00613          	li	a2,-1
    30a4:	00b65633          	srl	a2,a2,a1
    30a8:	00c576b3          	and	a3,a0,a2
    30ac:	f00684e3          	beqz	a3,2fb4 <rint+0xdc>
    30b0:	00165613          	srli	a2,a2,0x1
    30b4:	00c57733          	and	a4,a0,a2
    30b8:	f60706e3          	beqz	a4,3024 <rint+0x14c>
    30bc:	fff64613          	not	a2,a2
    30c0:	00a677b3          	and	a5,a2,a0
    30c4:	40000637          	lui	a2,0x40000
    30c8:	40b65633          	sra	a2,a2,a1
    30cc:	00c7e7b3          	or	a5,a5,a2
    30d0:	f55ff06f          	j	3024 <rint+0x14c>

000030d4 <scalbn>:
    30d4:	ff010113          	addi	sp,sp,-16
    30d8:	4145d793          	srai	a5,a1,0x14
    30dc:	00812423          	sw	s0,8(sp)
    30e0:	00112623          	sw	ra,12(sp)
    30e4:	00912223          	sw	s1,4(sp)
    30e8:	7ff7f793          	andi	a5,a5,2047
    30ec:	00050693          	mv	a3,a0
    30f0:	00058713          	mv	a4,a1
    30f4:	00060413          	mv	s0,a2
    30f8:	04079663          	bnez	a5,3144 <scalbn+0x70>
    30fc:	00159793          	slli	a5,a1,0x1
    3100:	0017d793          	srli	a5,a5,0x1
    3104:	00a7e7b3          	or	a5,a5,a0
    3108:	0c078063          	beqz	a5,31c8 <scalbn+0xf4>
    310c:	000077b7          	lui	a5,0x7
    3110:	c247a683          	lw	a3,-988(a5) # 6c24 <__SDATA_BEGIN__+0xa4>
    3114:	c207a603          	lw	a2,-992(a5)
    3118:	334010ef          	jal	ra,444c <__muldf3>
    311c:	ffff47b7          	lui	a5,0xffff4
    3120:	cb078793          	addi	a5,a5,-848 # ffff3cb0 <__global_pointer$+0xfffecd58>
    3124:	00050693          	mv	a3,a0
    3128:	00058713          	mv	a4,a1
    312c:	02f45e63          	bge	s0,a5,3168 <scalbn+0x94>
    3130:	000077b7          	lui	a5,0x7
    3134:	ce87a603          	lw	a2,-792(a5) # 6ce8 <__SDATA_BEGIN__+0x168>
    3138:	cec7a683          	lw	a3,-788(a5)
    313c:	310010ef          	jal	ra,444c <__muldf3>
    3140:	01c0006f          	j	315c <scalbn+0x88>
    3144:	7ff00813          	li	a6,2047
    3148:	00058613          	mv	a2,a1
    314c:	03079663          	bne	a5,a6,3178 <scalbn+0xa4>
    3150:	00050613          	mv	a2,a0
    3154:	00058693          	mv	a3,a1
    3158:	108000ef          	jal	ra,3260 <__adddf3>
    315c:	00050693          	mv	a3,a0
    3160:	00058713          	mv	a4,a1
    3164:	0640006f          	j	31c8 <scalbn+0xf4>
    3168:	4145d793          	srai	a5,a1,0x14
    316c:	7ff7f793          	andi	a5,a5,2047
    3170:	00058613          	mv	a2,a1
    3174:	fca78793          	addi	a5,a5,-54
    3178:	00f407b3          	add	a5,s0,a5
    317c:	7fe00593          	li	a1,2046
    3180:	02f5d863          	bge	a1,a5,31b0 <scalbn+0xdc>
    3184:	000077b7          	lui	a5,0x7
    3188:	bc07a403          	lw	s0,-1088(a5) # 6bc0 <__SDATA_BEGIN__+0x40>
    318c:	bc47a483          	lw	s1,-1084(a5)
    3190:	00068613          	mv	a2,a3
    3194:	00040513          	mv	a0,s0
    3198:	00070693          	mv	a3,a4
    319c:	00048593          	mv	a1,s1
    31a0:	09c000ef          	jal	ra,323c <copysign>
    31a4:	00040613          	mv	a2,s0
    31a8:	00048693          	mv	a3,s1
    31ac:	f91ff06f          	j	313c <scalbn+0x68>
    31b0:	02f05a63          	blez	a5,31e4 <scalbn+0x110>
    31b4:	80100737          	lui	a4,0x80100
    31b8:	fff70713          	addi	a4,a4,-1 # 800fffff <__global_pointer$+0x800f90a7>
    31bc:	00e67633          	and	a2,a2,a4
    31c0:	01479793          	slli	a5,a5,0x14
    31c4:	00f66733          	or	a4,a2,a5
    31c8:	00c12083          	lw	ra,12(sp)
    31cc:	00812403          	lw	s0,8(sp)
    31d0:	00412483          	lw	s1,4(sp)
    31d4:	00068513          	mv	a0,a3
    31d8:	00070593          	mv	a1,a4
    31dc:	01010113          	addi	sp,sp,16
    31e0:	00008067          	ret
    31e4:	fcb00593          	li	a1,-53
    31e8:	02b7d063          	bge	a5,a1,3208 <scalbn+0x134>
    31ec:	0000c7b7          	lui	a5,0xc
    31f0:	35078793          	addi	a5,a5,848 # c350 <__global_pointer$+0x53f8>
    31f4:	f887c8e3          	blt	a5,s0,3184 <scalbn+0xb0>
    31f8:	000077b7          	lui	a5,0x7
    31fc:	ce87a403          	lw	s0,-792(a5) # 6ce8 <__SDATA_BEGIN__+0x168>
    3200:	cec7a483          	lw	s1,-788(a5)
    3204:	f8dff06f          	j	3190 <scalbn+0xbc>
    3208:	80100737          	lui	a4,0x80100
    320c:	fff70713          	addi	a4,a4,-1 # 800fffff <__global_pointer$+0x800f90a7>
    3210:	03678793          	addi	a5,a5,54
    3214:	01479793          	slli	a5,a5,0x14
    3218:	00e67633          	and	a2,a2,a4
    321c:	00c7e733          	or	a4,a5,a2
    3220:	00068813          	mv	a6,a3
    3224:	000077b7          	lui	a5,0x7
    3228:	d107a603          	lw	a2,-752(a5) # 6d10 <__SDATA_BEGIN__+0x190>
    322c:	d147a683          	lw	a3,-748(a5)
    3230:	00080513          	mv	a0,a6
    3234:	00070593          	mv	a1,a4
    3238:	f05ff06f          	j	313c <scalbn+0x68>

0000323c <copysign>:
    323c:	800007b7          	lui	a5,0x80000
    3240:	fff7c713          	not	a4,a5
    3244:	00b77733          	and	a4,a4,a1
    3248:	00d7f6b3          	and	a3,a5,a3
    324c:	00050613          	mv	a2,a0
    3250:	00d767b3          	or	a5,a4,a3
    3254:	00060513          	mv	a0,a2
    3258:	00078593          	mv	a1,a5
    325c:	00008067          	ret

00003260 <__adddf3>:
  FP_DECL_D (B);
  FP_DECL_D (R);
  DFtype r;

  FP_INIT_ROUNDMODE;
  FP_UNPACK_SEMIRAW_D (A, a);
    3260:	00100837          	lui	a6,0x100
    3264:	fff80813          	addi	a6,a6,-1 # fffff <__global_pointer$+0xf90a7>
    3268:	00b878b3          	and	a7,a6,a1
    326c:	00389893          	slli	a7,a7,0x3
    3270:	01d55793          	srli	a5,a0,0x1d
{
    3274:	fe010113          	addi	sp,sp,-32
  FP_UNPACK_SEMIRAW_D (A, a);
    3278:	0145d713          	srli	a4,a1,0x14
  FP_UNPACK_SEMIRAW_D (B, b);
    327c:	00d87833          	and	a6,a6,a3
  FP_UNPACK_SEMIRAW_D (A, a);
    3280:	0117e7b3          	or	a5,a5,a7
  FP_UNPACK_SEMIRAW_D (B, b);
    3284:	0146d893          	srli	a7,a3,0x14
    3288:	00381813          	slli	a6,a6,0x3
{
    328c:	00912a23          	sw	s1,20(sp)
    3290:	01212823          	sw	s2,16(sp)
  FP_UNPACK_SEMIRAW_D (A, a);
    3294:	7ff77493          	andi	s1,a4,2047
  FP_UNPACK_SEMIRAW_D (B, b);
    3298:	7ff8f893          	andi	a7,a7,2047
    329c:	01d65713          	srli	a4,a2,0x1d
{
    32a0:	00112e23          	sw	ra,28(sp)
    32a4:	00812c23          	sw	s0,24(sp)
    32a8:	01312623          	sw	s3,12(sp)
  FP_UNPACK_SEMIRAW_D (A, a);
    32ac:	01f5d913          	srli	s2,a1,0x1f
  FP_UNPACK_SEMIRAW_D (B, b);
    32b0:	01f6d693          	srli	a3,a3,0x1f
    32b4:	01076733          	or	a4,a4,a6
  FP_UNPACK_SEMIRAW_D (A, a);
    32b8:	00351513          	slli	a0,a0,0x3
  FP_UNPACK_SEMIRAW_D (B, b);
    32bc:	00361613          	slli	a2,a2,0x3
  FP_ADD_D (R, A, B);
    32c0:	41148833          	sub	a6,s1,a7
    32c4:	2cd91463          	bne	s2,a3,358c <__adddf3+0x32c>
    32c8:	11005e63          	blez	a6,33e4 <__adddf3+0x184>
    32cc:	04089063          	bnez	a7,330c <__adddf3+0xac>
    32d0:	00c766b3          	or	a3,a4,a2
    32d4:	70068063          	beqz	a3,39d4 <__adddf3+0x774>
    32d8:	fff80593          	addi	a1,a6,-1
    32dc:	02059063          	bnez	a1,32fc <__adddf3+0x9c>
    32e0:	00c50633          	add	a2,a0,a2
    32e4:	00a63533          	sltu	a0,a2,a0
    32e8:	00e787b3          	add	a5,a5,a4
    32ec:	00a787b3          	add	a5,a5,a0
    32f0:	00060513          	mv	a0,a2
  FP_UNPACK_SEMIRAW_D (B, b);
    32f4:	00100493          	li	s1,1
  FP_ADD_D (R, A, B);
    32f8:	0700006f          	j	3368 <__adddf3+0x108>
    32fc:	7ff00693          	li	a3,2047
    3300:	02d81063          	bne	a6,a3,3320 <__adddf3+0xc0>
    3304:	7ff00493          	li	s1,2047
    3308:	20c0006f          	j	3514 <__adddf3+0x2b4>
    330c:	7ff00693          	li	a3,2047
    3310:	20d48263          	beq	s1,a3,3514 <__adddf3+0x2b4>
    3314:	008006b7          	lui	a3,0x800
    3318:	00d76733          	or	a4,a4,a3
    331c:	00080593          	mv	a1,a6
    3320:	03800693          	li	a3,56
    3324:	0ab6ca63          	blt	a3,a1,33d8 <__adddf3+0x178>
    3328:	01f00693          	li	a3,31
    332c:	06b6cc63          	blt	a3,a1,33a4 <__adddf3+0x144>
    3330:	02000813          	li	a6,32
    3334:	40b80833          	sub	a6,a6,a1
    3338:	010716b3          	sll	a3,a4,a6
    333c:	00b658b3          	srl	a7,a2,a1
    3340:	01061633          	sll	a2,a2,a6
    3344:	0116e6b3          	or	a3,a3,a7
    3348:	00c03633          	snez	a2,a2
    334c:	00c6e633          	or	a2,a3,a2
    3350:	00b75733          	srl	a4,a4,a1
    3354:	00a60633          	add	a2,a2,a0
    3358:	00f70733          	add	a4,a4,a5
    335c:	00a637b3          	sltu	a5,a2,a0
    3360:	00f707b3          	add	a5,a4,a5
    3364:	00060513          	mv	a0,a2
    3368:	00879713          	slli	a4,a5,0x8
    336c:	1a075463          	bgez	a4,3514 <__adddf3+0x2b4>
    3370:	00148493          	addi	s1,s1,1 # 80000001 <__global_pointer$+0x7fff90a9>
    3374:	7ff00713          	li	a4,2047
    3378:	5ce48463          	beq	s1,a4,3940 <__adddf3+0x6e0>
    337c:	ff8006b7          	lui	a3,0xff800
    3380:	fff68693          	addi	a3,a3,-1 # ff7fffff <__global_pointer$+0xff7f90a7>
    3384:	00d7f6b3          	and	a3,a5,a3
    3388:	00155593          	srli	a1,a0,0x1
    338c:	00157513          	andi	a0,a0,1
    3390:	01f69793          	slli	a5,a3,0x1f
    3394:	00a5e533          	or	a0,a1,a0
    3398:	00a7e533          	or	a0,a5,a0
    339c:	0016d793          	srli	a5,a3,0x1
    33a0:	1740006f          	j	3514 <__adddf3+0x2b4>
    33a4:	fe058693          	addi	a3,a1,-32
    33a8:	02000893          	li	a7,32
    33ac:	00d756b3          	srl	a3,a4,a3
    33b0:	00000813          	li	a6,0
    33b4:	01158863          	beq	a1,a7,33c4 <__adddf3+0x164>
    33b8:	04000813          	li	a6,64
    33bc:	40b805b3          	sub	a1,a6,a1
    33c0:	00b71833          	sll	a6,a4,a1
    33c4:	00c86633          	or	a2,a6,a2
    33c8:	00c03633          	snez	a2,a2
    33cc:	00c6e633          	or	a2,a3,a2
    33d0:	00000713          	li	a4,0
    33d4:	f81ff06f          	j	3354 <__adddf3+0xf4>
    33d8:	00c76633          	or	a2,a4,a2
    33dc:	00c03633          	snez	a2,a2
    33e0:	ff1ff06f          	j	33d0 <__adddf3+0x170>
    33e4:	0e080263          	beqz	a6,34c8 <__adddf3+0x268>
    33e8:	409885b3          	sub	a1,a7,s1
    33ec:	02049e63          	bnez	s1,3428 <__adddf3+0x1c8>
    33f0:	00a7e6b3          	or	a3,a5,a0
    33f4:	52068663          	beqz	a3,3920 <__adddf3+0x6c0>
    33f8:	fff58693          	addi	a3,a1,-1
    33fc:	00069c63          	bnez	a3,3414 <__adddf3+0x1b4>
    3400:	00c50533          	add	a0,a0,a2
    3404:	00e787b3          	add	a5,a5,a4
    3408:	00c53633          	sltu	a2,a0,a2
    340c:	00c787b3          	add	a5,a5,a2
    3410:	ee5ff06f          	j	32f4 <__adddf3+0x94>
    3414:	7ff00813          	li	a6,2047
    3418:	03059263          	bne	a1,a6,343c <__adddf3+0x1dc>
  FP_UNPACK_SEMIRAW_D (B, b);
    341c:	00070793          	mv	a5,a4
    3420:	00060513          	mv	a0,a2
    3424:	ee1ff06f          	j	3304 <__adddf3+0xa4>
  FP_ADD_D (R, A, B);
    3428:	7ff00693          	li	a3,2047
    342c:	fed888e3          	beq	a7,a3,341c <__adddf3+0x1bc>
    3430:	008006b7          	lui	a3,0x800
    3434:	00d7e7b3          	or	a5,a5,a3
    3438:	00058693          	mv	a3,a1
    343c:	03800593          	li	a1,56
    3440:	06d5ce63          	blt	a1,a3,34bc <__adddf3+0x25c>
    3444:	01f00593          	li	a1,31
    3448:	04d5c063          	blt	a1,a3,3488 <__adddf3+0x228>
    344c:	02000813          	li	a6,32
    3450:	40d80833          	sub	a6,a6,a3
    3454:	00d55333          	srl	t1,a0,a3
    3458:	010795b3          	sll	a1,a5,a6
    345c:	01051533          	sll	a0,a0,a6
    3460:	0065e5b3          	or	a1,a1,t1
    3464:	00a03533          	snez	a0,a0
    3468:	00a5e533          	or	a0,a1,a0
    346c:	00d7d6b3          	srl	a3,a5,a3
    3470:	00c50533          	add	a0,a0,a2
    3474:	00e687b3          	add	a5,a3,a4
    3478:	00c53633          	sltu	a2,a0,a2
    347c:	00c787b3          	add	a5,a5,a2
  FP_UNPACK_SEMIRAW_D (B, b);
    3480:	00088493          	mv	s1,a7
    3484:	ee5ff06f          	j	3368 <__adddf3+0x108>
  FP_ADD_D (R, A, B);
    3488:	fe068593          	addi	a1,a3,-32 # 7fffe0 <__global_pointer$+0x7f9088>
    348c:	02000313          	li	t1,32
    3490:	00b7d5b3          	srl	a1,a5,a1
    3494:	00000813          	li	a6,0
    3498:	00668863          	beq	a3,t1,34a8 <__adddf3+0x248>
    349c:	04000813          	li	a6,64
    34a0:	40d806b3          	sub	a3,a6,a3
    34a4:	00d79833          	sll	a6,a5,a3
    34a8:	00a86533          	or	a0,a6,a0
    34ac:	00a03533          	snez	a0,a0
    34b0:	00a5e533          	or	a0,a1,a0
    34b4:	00000693          	li	a3,0
    34b8:	fb9ff06f          	j	3470 <__adddf3+0x210>
    34bc:	00a7e533          	or	a0,a5,a0
    34c0:	00a03533          	snez	a0,a0
    34c4:	ff1ff06f          	j	34b4 <__adddf3+0x254>
    34c8:	00148693          	addi	a3,s1,1
    34cc:	7fe6f593          	andi	a1,a3,2046
    34d0:	08059663          	bnez	a1,355c <__adddf3+0x2fc>
    34d4:	00a7e6b3          	or	a3,a5,a0
    34d8:	06049263          	bnez	s1,353c <__adddf3+0x2dc>
    34dc:	44068a63          	beqz	a3,3930 <__adddf3+0x6d0>
    34e0:	00c766b3          	or	a3,a4,a2
    34e4:	02068863          	beqz	a3,3514 <__adddf3+0x2b4>
    34e8:	00c50633          	add	a2,a0,a2
    34ec:	00e787b3          	add	a5,a5,a4
    34f0:	00a63533          	sltu	a0,a2,a0
    34f4:	00a787b3          	add	a5,a5,a0
    34f8:	00879713          	slli	a4,a5,0x8
    34fc:	00060513          	mv	a0,a2
    3500:	00075a63          	bgez	a4,3514 <__adddf3+0x2b4>
    3504:	ff800737          	lui	a4,0xff800
    3508:	fff70713          	addi	a4,a4,-1 # ff7fffff <__global_pointer$+0xff7f90a7>
    350c:	00e7f7b3          	and	a5,a5,a4
    3510:	00100493          	li	s1,1
  FP_PACK_SEMIRAW_D (r, R);
    3514:	00757713          	andi	a4,a0,7
    3518:	42070863          	beqz	a4,3948 <__adddf3+0x6e8>
    351c:	00f57713          	andi	a4,a0,15
    3520:	00400693          	li	a3,4
    3524:	42d70263          	beq	a4,a3,3948 <__adddf3+0x6e8>
    3528:	00450693          	addi	a3,a0,4 # 80100004 <__global_pointer$+0x800f90ac>
    352c:	00a6b533          	sltu	a0,a3,a0
    3530:	00a787b3          	add	a5,a5,a0
    3534:	00068513          	mv	a0,a3
    3538:	4100006f          	j	3948 <__adddf3+0x6e8>
  FP_ADD_D (R, A, B);
    353c:	ee0680e3          	beqz	a3,341c <__adddf3+0x1bc>
    3540:	00c76633          	or	a2,a4,a2
    3544:	dc0600e3          	beqz	a2,3304 <__adddf3+0xa4>
    3548:	00000913          	li	s2,0
    354c:	004007b7          	lui	a5,0x400
    3550:	00000513          	li	a0,0
    3554:	7ff00493          	li	s1,2047
    3558:	3f00006f          	j	3948 <__adddf3+0x6e8>
    355c:	7ff00593          	li	a1,2047
    3560:	3cb68e63          	beq	a3,a1,393c <__adddf3+0x6dc>
    3564:	00c50633          	add	a2,a0,a2
    3568:	00e78733          	add	a4,a5,a4
    356c:	00a637b3          	sltu	a5,a2,a0
    3570:	00f70733          	add	a4,a4,a5
    3574:	01f71513          	slli	a0,a4,0x1f
    3578:	00165613          	srli	a2,a2,0x1
    357c:	00c56533          	or	a0,a0,a2
    3580:	00175793          	srli	a5,a4,0x1
    3584:	00068493          	mv	s1,a3
    3588:	f8dff06f          	j	3514 <__adddf3+0x2b4>
    358c:	0f005c63          	blez	a6,3684 <__adddf3+0x424>
    3590:	08089e63          	bnez	a7,362c <__adddf3+0x3cc>
    3594:	00c766b3          	or	a3,a4,a2
    3598:	42068e63          	beqz	a3,39d4 <__adddf3+0x774>
    359c:	fff80593          	addi	a1,a6,-1
    35a0:	02059063          	bnez	a1,35c0 <__adddf3+0x360>
    35a4:	40c50633          	sub	a2,a0,a2
    35a8:	00c53533          	sltu	a0,a0,a2
    35ac:	40e787b3          	sub	a5,a5,a4
    35b0:	40a787b3          	sub	a5,a5,a0
    35b4:	00060513          	mv	a0,a2
  FP_UNPACK_SEMIRAW_D (B, b);
    35b8:	00100493          	li	s1,1
  FP_ADD_D (R, A, B);
    35bc:	0540006f          	j	3610 <__adddf3+0x3b0>
    35c0:	7ff00693          	li	a3,2047
    35c4:	d4d800e3          	beq	a6,a3,3304 <__adddf3+0xa4>
    35c8:	03800693          	li	a3,56
    35cc:	0ab6c663          	blt	a3,a1,3678 <__adddf3+0x418>
    35d0:	01f00693          	li	a3,31
    35d4:	06b6c863          	blt	a3,a1,3644 <__adddf3+0x3e4>
    35d8:	02000813          	li	a6,32
    35dc:	40b80833          	sub	a6,a6,a1
    35e0:	010716b3          	sll	a3,a4,a6
    35e4:	00b658b3          	srl	a7,a2,a1
    35e8:	01061633          	sll	a2,a2,a6
    35ec:	0116e6b3          	or	a3,a3,a7
    35f0:	00c03633          	snez	a2,a2
    35f4:	00c6e633          	or	a2,a3,a2
    35f8:	00b75733          	srl	a4,a4,a1
    35fc:	40c50633          	sub	a2,a0,a2
    3600:	40e78733          	sub	a4,a5,a4
    3604:	00c537b3          	sltu	a5,a0,a2
    3608:	40f707b3          	sub	a5,a4,a5
    360c:	00060513          	mv	a0,a2
    3610:	00879713          	slli	a4,a5,0x8
    3614:	f00750e3          	bgez	a4,3514 <__adddf3+0x2b4>
    3618:	00800437          	lui	s0,0x800
    361c:	fff40413          	addi	s0,s0,-1 # 7fffff <__global_pointer$+0x7f90a7>
    3620:	0087f433          	and	s0,a5,s0
    3624:	00050993          	mv	s3,a0
    3628:	20c0006f          	j	3834 <__adddf3+0x5d4>
    362c:	7ff00693          	li	a3,2047
    3630:	eed482e3          	beq	s1,a3,3514 <__adddf3+0x2b4>
    3634:	008006b7          	lui	a3,0x800
    3638:	00d76733          	or	a4,a4,a3
    363c:	00080593          	mv	a1,a6
    3640:	f89ff06f          	j	35c8 <__adddf3+0x368>
    3644:	fe058693          	addi	a3,a1,-32
    3648:	02000893          	li	a7,32
    364c:	00d756b3          	srl	a3,a4,a3
    3650:	00000813          	li	a6,0
    3654:	01158863          	beq	a1,a7,3664 <__adddf3+0x404>
    3658:	04000813          	li	a6,64
    365c:	40b805b3          	sub	a1,a6,a1
    3660:	00b71833          	sll	a6,a4,a1
    3664:	00c86633          	or	a2,a6,a2
    3668:	00c03633          	snez	a2,a2
    366c:	00c6e633          	or	a2,a3,a2
    3670:	00000713          	li	a4,0
    3674:	f89ff06f          	j	35fc <__adddf3+0x39c>
    3678:	00c76633          	or	a2,a4,a2
    367c:	00c03633          	snez	a2,a2
    3680:	ff1ff06f          	j	3670 <__adddf3+0x410>
    3684:	0e080863          	beqz	a6,3774 <__adddf3+0x514>
    3688:	40988833          	sub	a6,a7,s1
    368c:	04049263          	bnez	s1,36d0 <__adddf3+0x470>
    3690:	00a7e5b3          	or	a1,a5,a0
    3694:	34058463          	beqz	a1,39dc <__adddf3+0x77c>
    3698:	fff80593          	addi	a1,a6,-1
    369c:	00059e63          	bnez	a1,36b8 <__adddf3+0x458>
    36a0:	40a60533          	sub	a0,a2,a0
    36a4:	40f707b3          	sub	a5,a4,a5
    36a8:	00a63633          	sltu	a2,a2,a0
    36ac:	40c787b3          	sub	a5,a5,a2
    36b0:	00068913          	mv	s2,a3
    36b4:	f05ff06f          	j	35b8 <__adddf3+0x358>
    36b8:	7ff00313          	li	t1,2047
    36bc:	02681463          	bne	a6,t1,36e4 <__adddf3+0x484>
  FP_UNPACK_SEMIRAW_D (B, b);
    36c0:	00070793          	mv	a5,a4
    36c4:	00060513          	mv	a0,a2
  FP_ADD_D (R, A, B);
    36c8:	7ff00493          	li	s1,2047
    36cc:	0d00006f          	j	379c <__adddf3+0x53c>
    36d0:	7ff00593          	li	a1,2047
    36d4:	feb886e3          	beq	a7,a1,36c0 <__adddf3+0x460>
    36d8:	008005b7          	lui	a1,0x800
    36dc:	00b7e7b3          	or	a5,a5,a1
    36e0:	00080593          	mv	a1,a6
    36e4:	03800813          	li	a6,56
    36e8:	08b84063          	blt	a6,a1,3768 <__adddf3+0x508>
    36ec:	01f00813          	li	a6,31
    36f0:	04b84263          	blt	a6,a1,3734 <__adddf3+0x4d4>
    36f4:	02000313          	li	t1,32
    36f8:	40b30333          	sub	t1,t1,a1
    36fc:	00b55e33          	srl	t3,a0,a1
    3700:	00679833          	sll	a6,a5,t1
    3704:	00651533          	sll	a0,a0,t1
    3708:	01c86833          	or	a6,a6,t3
    370c:	00a03533          	snez	a0,a0
    3710:	00a86533          	or	a0,a6,a0
    3714:	00b7d5b3          	srl	a1,a5,a1
    3718:	40a60533          	sub	a0,a2,a0
    371c:	40b707b3          	sub	a5,a4,a1
    3720:	00a63633          	sltu	a2,a2,a0
    3724:	40c787b3          	sub	a5,a5,a2
  FP_UNPACK_SEMIRAW_D (B, b);
    3728:	00088493          	mv	s1,a7
    372c:	00068913          	mv	s2,a3
    3730:	ee1ff06f          	j	3610 <__adddf3+0x3b0>
  FP_ADD_D (R, A, B);
    3734:	fe058813          	addi	a6,a1,-32 # 7fffe0 <__global_pointer$+0x7f9088>
    3738:	02000e13          	li	t3,32
    373c:	0107d833          	srl	a6,a5,a6
    3740:	00000313          	li	t1,0
    3744:	01c58863          	beq	a1,t3,3754 <__adddf3+0x4f4>
    3748:	04000313          	li	t1,64
    374c:	40b305b3          	sub	a1,t1,a1
    3750:	00b79333          	sll	t1,a5,a1
    3754:	00a36533          	or	a0,t1,a0
    3758:	00a03533          	snez	a0,a0
    375c:	00a86533          	or	a0,a6,a0
    3760:	00000593          	li	a1,0
    3764:	fb5ff06f          	j	3718 <__adddf3+0x4b8>
    3768:	00a7e533          	or	a0,a5,a0
    376c:	00a03533          	snez	a0,a0
    3770:	ff1ff06f          	j	3760 <__adddf3+0x500>
    3774:	00148593          	addi	a1,s1,1
    3778:	7fe5f593          	andi	a1,a1,2046
    377c:	08059663          	bnez	a1,3808 <__adddf3+0x5a8>
    3780:	00a7e833          	or	a6,a5,a0
    3784:	00c765b3          	or	a1,a4,a2
    3788:	06049063          	bnez	s1,37e8 <__adddf3+0x588>
    378c:	00081c63          	bnez	a6,37a4 <__adddf3+0x544>
    3790:	24058e63          	beqz	a1,39ec <__adddf3+0x78c>
  FP_UNPACK_SEMIRAW_D (B, b);
    3794:	00070793          	mv	a5,a4
    3798:	00060513          	mv	a0,a2
    379c:	00068913          	mv	s2,a3
    37a0:	d75ff06f          	j	3514 <__adddf3+0x2b4>
  FP_ADD_D (R, A, B);
    37a4:	d60588e3          	beqz	a1,3514 <__adddf3+0x2b4>
    37a8:	40c50833          	sub	a6,a0,a2
    37ac:	010538b3          	sltu	a7,a0,a6
    37b0:	40e785b3          	sub	a1,a5,a4
    37b4:	411585b3          	sub	a1,a1,a7
    37b8:	00859893          	slli	a7,a1,0x8
    37bc:	0008dc63          	bgez	a7,37d4 <__adddf3+0x574>
    37c0:	40a60533          	sub	a0,a2,a0
    37c4:	40f707b3          	sub	a5,a4,a5
    37c8:	00a63633          	sltu	a2,a2,a0
    37cc:	40c787b3          	sub	a5,a5,a2
    37d0:	fcdff06f          	j	379c <__adddf3+0x53c>
    37d4:	00b86533          	or	a0,a6,a1
    37d8:	22050263          	beqz	a0,39fc <__adddf3+0x79c>
    37dc:	00058793          	mv	a5,a1
    37e0:	00080513          	mv	a0,a6
    37e4:	d31ff06f          	j	3514 <__adddf3+0x2b4>
    37e8:	00081c63          	bnez	a6,3800 <__adddf3+0x5a0>
    37ec:	20058c63          	beqz	a1,3a04 <__adddf3+0x7a4>
  FP_UNPACK_SEMIRAW_D (B, b);
    37f0:	00070793          	mv	a5,a4
    37f4:	00060513          	mv	a0,a2
  FP_ADD_D (R, A, B);
    37f8:	00068913          	mv	s2,a3
    37fc:	b09ff06f          	j	3304 <__adddf3+0xa4>
    3800:	b00582e3          	beqz	a1,3304 <__adddf3+0xa4>
    3804:	d45ff06f          	j	3548 <__adddf3+0x2e8>
    3808:	40c509b3          	sub	s3,a0,a2
    380c:	013535b3          	sltu	a1,a0,s3
    3810:	40e78433          	sub	s0,a5,a4
    3814:	40b40433          	sub	s0,s0,a1
    3818:	00841593          	slli	a1,s0,0x8
    381c:	0805d463          	bgez	a1,38a4 <__adddf3+0x644>
    3820:	40a609b3          	sub	s3,a2,a0
    3824:	40f707b3          	sub	a5,a4,a5
    3828:	01363633          	sltu	a2,a2,s3
    382c:	40c78433          	sub	s0,a5,a2
    3830:	00068913          	mv	s2,a3
    3834:	08040263          	beqz	s0,38b8 <__adddf3+0x658>
    3838:	00040513          	mv	a0,s0
    383c:	499010ef          	jal	ra,54d4 <__clzsi2>
    3840:	ff850713          	addi	a4,a0,-8
    3844:	01f00793          	li	a5,31
    3848:	08e7c063          	blt	a5,a4,38c8 <__adddf3+0x668>
    384c:	02000793          	li	a5,32
    3850:	40e787b3          	sub	a5,a5,a4
    3854:	00e41433          	sll	s0,s0,a4
    3858:	00f9d7b3          	srl	a5,s3,a5
    385c:	0087e433          	or	s0,a5,s0
    3860:	00e99533          	sll	a0,s3,a4
    3864:	0a974463          	blt	a4,s1,390c <__adddf3+0x6ac>
    3868:	40970733          	sub	a4,a4,s1
    386c:	00170793          	addi	a5,a4,1
    3870:	01f00693          	li	a3,31
    3874:	06f6c263          	blt	a3,a5,38d8 <__adddf3+0x678>
    3878:	02000713          	li	a4,32
    387c:	40f70733          	sub	a4,a4,a5
    3880:	00f55633          	srl	a2,a0,a5
    3884:	00e416b3          	sll	a3,s0,a4
    3888:	00e51533          	sll	a0,a0,a4
    388c:	00c6e6b3          	or	a3,a3,a2
    3890:	00a03533          	snez	a0,a0
    3894:	00a6e533          	or	a0,a3,a0
    3898:	00f457b3          	srl	a5,s0,a5
    389c:	00000493          	li	s1,0
    38a0:	c75ff06f          	j	3514 <__adddf3+0x2b4>
    38a4:	0089e533          	or	a0,s3,s0
    38a8:	f80516e3          	bnez	a0,3834 <__adddf3+0x5d4>
    38ac:	00000793          	li	a5,0
    38b0:	00000493          	li	s1,0
    38b4:	1400006f          	j	39f4 <__adddf3+0x794>
    38b8:	00098513          	mv	a0,s3
    38bc:	419010ef          	jal	ra,54d4 <__clzsi2>
    38c0:	02050513          	addi	a0,a0,32
    38c4:	f7dff06f          	j	3840 <__adddf3+0x5e0>
    38c8:	fd850413          	addi	s0,a0,-40
    38cc:	00899433          	sll	s0,s3,s0
    38d0:	00000513          	li	a0,0
    38d4:	f91ff06f          	j	3864 <__adddf3+0x604>
    38d8:	fe170713          	addi	a4,a4,-31
    38dc:	02000613          	li	a2,32
    38e0:	00e45733          	srl	a4,s0,a4
    38e4:	00000693          	li	a3,0
    38e8:	00c78863          	beq	a5,a2,38f8 <__adddf3+0x698>
    38ec:	04000693          	li	a3,64
    38f0:	40f686b3          	sub	a3,a3,a5
    38f4:	00d416b3          	sll	a3,s0,a3
    38f8:	00d56533          	or	a0,a0,a3
    38fc:	00a03533          	snez	a0,a0
    3900:	00a76533          	or	a0,a4,a0
    3904:	00000793          	li	a5,0
    3908:	f95ff06f          	j	389c <__adddf3+0x63c>
    390c:	ff8007b7          	lui	a5,0xff800
    3910:	fff78793          	addi	a5,a5,-1 # ff7fffff <__global_pointer$+0xff7f90a7>
    3914:	40e484b3          	sub	s1,s1,a4
    3918:	00f477b3          	and	a5,s0,a5
    391c:	bf9ff06f          	j	3514 <__adddf3+0x2b4>
  FP_UNPACK_SEMIRAW_D (B, b);
    3920:	00070793          	mv	a5,a4
    3924:	00060513          	mv	a0,a2
  FP_ADD_D (R, A, B);
    3928:	00058493          	mv	s1,a1
    392c:	be9ff06f          	j	3514 <__adddf3+0x2b4>
  FP_UNPACK_SEMIRAW_D (B, b);
    3930:	00070793          	mv	a5,a4
    3934:	00060513          	mv	a0,a2
    3938:	bddff06f          	j	3514 <__adddf3+0x2b4>
    393c:	7ff00493          	li	s1,2047
    3940:	00000793          	li	a5,0
    3944:	00000513          	li	a0,0
  FP_PACK_SEMIRAW_D (r, R);
    3948:	00879713          	slli	a4,a5,0x8
    394c:	00075e63          	bgez	a4,3968 <__adddf3+0x708>
    3950:	00148493          	addi	s1,s1,1
    3954:	7ff00713          	li	a4,2047
    3958:	0ae48e63          	beq	s1,a4,3a14 <__adddf3+0x7b4>
    395c:	ff800737          	lui	a4,0xff800
    3960:	fff70713          	addi	a4,a4,-1 # ff7fffff <__global_pointer$+0xff7f90a7>
    3964:	00e7f7b3          	and	a5,a5,a4
    3968:	01d79713          	slli	a4,a5,0x1d
    396c:	00355513          	srli	a0,a0,0x3
    3970:	00a76533          	or	a0,a4,a0
    3974:	7ff00713          	li	a4,2047
    3978:	0037d793          	srli	a5,a5,0x3
    397c:	00e49e63          	bne	s1,a4,3998 <__adddf3+0x738>
    3980:	00f56533          	or	a0,a0,a5
    3984:	00000793          	li	a5,0
    3988:	00050863          	beqz	a0,3998 <__adddf3+0x738>
    398c:	000807b7          	lui	a5,0x80
    3990:	00000513          	li	a0,0
    3994:	00000913          	li	s2,0
    3998:	7ff4f713          	andi	a4,s1,2047
    399c:	00c79793          	slli	a5,a5,0xc
    39a0:	01471713          	slli	a4,a4,0x14
  FP_HANDLE_EXCEPTIONS;

  return r;
}
    39a4:	01c12083          	lw	ra,28(sp)
    39a8:	01812403          	lw	s0,24(sp)
  FP_PACK_SEMIRAW_D (r, R);
    39ac:	00c7d793          	srli	a5,a5,0xc
    39b0:	01f91593          	slli	a1,s2,0x1f
    39b4:	00e7e7b3          	or	a5,a5,a4
    39b8:	00b7e733          	or	a4,a5,a1
}
    39bc:	01412483          	lw	s1,20(sp)
    39c0:	01012903          	lw	s2,16(sp)
    39c4:	00c12983          	lw	s3,12(sp)
    39c8:	00070593          	mv	a1,a4
    39cc:	02010113          	addi	sp,sp,32
    39d0:	00008067          	ret
    39d4:	00080493          	mv	s1,a6
    39d8:	b3dff06f          	j	3514 <__adddf3+0x2b4>
  FP_UNPACK_SEMIRAW_D (B, b);
    39dc:	00070793          	mv	a5,a4
    39e0:	00060513          	mv	a0,a2
  FP_ADD_D (R, A, B);
    39e4:	00080493          	mv	s1,a6
    39e8:	db5ff06f          	j	379c <__adddf3+0x53c>
    39ec:	00000793          	li	a5,0
    39f0:	00000513          	li	a0,0
    39f4:	00000913          	li	s2,0
    39f8:	f51ff06f          	j	3948 <__adddf3+0x6e8>
    39fc:	00000793          	li	a5,0
    3a00:	ff5ff06f          	j	39f4 <__adddf3+0x794>
    3a04:	00000513          	li	a0,0
    3a08:	00000913          	li	s2,0
    3a0c:	004007b7          	lui	a5,0x400
    3a10:	b45ff06f          	j	3554 <__adddf3+0x2f4>
    3a14:	00000793          	li	a5,0
    3a18:	00000513          	li	a0,0
    3a1c:	f4dff06f          	j	3968 <__adddf3+0x708>

00003a20 <__divdf3>:
#include "soft-fp.h"
#include "double.h"

DFtype
__divdf3 (DFtype a, DFtype b)
{
    3a20:	fb010113          	addi	sp,sp,-80
    3a24:	03312e23          	sw	s3,60(sp)
  FP_DECL_D (B);
  FP_DECL_D (R);
  DFtype r;

  FP_INIT_ROUNDMODE;
  FP_UNPACK_D (A, a);
    3a28:	0145d993          	srli	s3,a1,0x14
{
    3a2c:	04912223          	sw	s1,68(sp)
    3a30:	05212023          	sw	s2,64(sp)
    3a34:	03412c23          	sw	s4,56(sp)
    3a38:	03512a23          	sw	s5,52(sp)
    3a3c:	03612823          	sw	s6,48(sp)
  FP_UNPACK_D (A, a);
    3a40:	00c59493          	slli	s1,a1,0xc
{
    3a44:	04112623          	sw	ra,76(sp)
    3a48:	04812423          	sw	s0,72(sp)
    3a4c:	03712623          	sw	s7,44(sp)
    3a50:	03812423          	sw	s8,40(sp)
    3a54:	03912223          	sw	s9,36(sp)
    3a58:	03a12023          	sw	s10,32(sp)
    3a5c:	01b12e23          	sw	s11,28(sp)
  FP_UNPACK_D (A, a);
    3a60:	7ff9f993          	andi	s3,s3,2047
{
    3a64:	00050913          	mv	s2,a0
    3a68:	00060b13          	mv	s6,a2
    3a6c:	00068a93          	mv	s5,a3
  FP_UNPACK_D (A, a);
    3a70:	00c4d493          	srli	s1,s1,0xc
    3a74:	01f5da13          	srli	s4,a1,0x1f
    3a78:	0a098263          	beqz	s3,3b1c <__divdf3+0xfc>
    3a7c:	7ff00793          	li	a5,2047
    3a80:	10f98063          	beq	s3,a5,3b80 <__divdf3+0x160>
    3a84:	01d55c93          	srli	s9,a0,0x1d
    3a88:	00349493          	slli	s1,s1,0x3
    3a8c:	009ce4b3          	or	s1,s9,s1
    3a90:	00800cb7          	lui	s9,0x800
    3a94:	0194ecb3          	or	s9,s1,s9
    3a98:	00351413          	slli	s0,a0,0x3
    3a9c:	c0198993          	addi	s3,s3,-1023
    3aa0:	00000b93          	li	s7,0
  FP_UNPACK_D (B, b);
    3aa4:	014ad513          	srli	a0,s5,0x14
    3aa8:	00ca9493          	slli	s1,s5,0xc
    3aac:	7ff57513          	andi	a0,a0,2047
    3ab0:	000b0813          	mv	a6,s6
    3ab4:	00c4d493          	srli	s1,s1,0xc
    3ab8:	01fada93          	srli	s5,s5,0x1f
    3abc:	10050063          	beqz	a0,3bbc <__divdf3+0x19c>
    3ac0:	7ff00793          	li	a5,2047
    3ac4:	16f50063          	beq	a0,a5,3c24 <__divdf3+0x204>
    3ac8:	01db5793          	srli	a5,s6,0x1d
    3acc:	00349493          	slli	s1,s1,0x3
    3ad0:	0097e7b3          	or	a5,a5,s1
    3ad4:	00800937          	lui	s2,0x800
    3ad8:	0127e933          	or	s2,a5,s2
    3adc:	003b1813          	slli	a6,s6,0x3
    3ae0:	c0150513          	addi	a0,a0,-1023
    3ae4:	00000793          	li	a5,0
  FP_DIV_D (R, A, B);
    3ae8:	002b9713          	slli	a4,s7,0x2
    3aec:	00f76733          	or	a4,a4,a5
    3af0:	fff70713          	addi	a4,a4,-1
    3af4:	00e00693          	li	a3,14
    3af8:	015a44b3          	xor	s1,s4,s5
    3afc:	40a989b3          	sub	s3,s3,a0
    3b00:	14e6ee63          	bltu	a3,a4,3c5c <__divdf3+0x23c>
    3b04:	000056b7          	lui	a3,0x5
    3b08:	00271713          	slli	a4,a4,0x2
    3b0c:	5e068693          	addi	a3,a3,1504 # 55e0 <TWO52+0x10>
    3b10:	00d70733          	add	a4,a4,a3
    3b14:	00072703          	lw	a4,0(a4)
    3b18:	00070067          	jr	a4
  FP_UNPACK_D (A, a);
    3b1c:	00a4ecb3          	or	s9,s1,a0
    3b20:	060c8e63          	beqz	s9,3b9c <__divdf3+0x17c>
    3b24:	04048063          	beqz	s1,3b64 <__divdf3+0x144>
    3b28:	00048513          	mv	a0,s1
    3b2c:	1a9010ef          	jal	ra,54d4 <__clzsi2>
    3b30:	ff550793          	addi	a5,a0,-11
    3b34:	01c00713          	li	a4,28
    3b38:	02f74c63          	blt	a4,a5,3b70 <__divdf3+0x150>
    3b3c:	01d00c93          	li	s9,29
    3b40:	ff850413          	addi	s0,a0,-8
    3b44:	40fc8cb3          	sub	s9,s9,a5
    3b48:	008494b3          	sll	s1,s1,s0
    3b4c:	01995cb3          	srl	s9,s2,s9
    3b50:	009cecb3          	or	s9,s9,s1
    3b54:	00891433          	sll	s0,s2,s0
    3b58:	c0d00993          	li	s3,-1011
    3b5c:	40a989b3          	sub	s3,s3,a0
    3b60:	f41ff06f          	j	3aa0 <__divdf3+0x80>
    3b64:	171010ef          	jal	ra,54d4 <__clzsi2>
    3b68:	02050513          	addi	a0,a0,32
    3b6c:	fc5ff06f          	j	3b30 <__divdf3+0x110>
    3b70:	fd850493          	addi	s1,a0,-40
    3b74:	00991cb3          	sll	s9,s2,s1
    3b78:	00000413          	li	s0,0
    3b7c:	fddff06f          	j	3b58 <__divdf3+0x138>
    3b80:	00a4ecb3          	or	s9,s1,a0
    3b84:	020c8463          	beqz	s9,3bac <__divdf3+0x18c>
    3b88:	00050413          	mv	s0,a0
    3b8c:	00048c93          	mv	s9,s1
    3b90:	7ff00993          	li	s3,2047
    3b94:	00300b93          	li	s7,3
    3b98:	f0dff06f          	j	3aa4 <__divdf3+0x84>
    3b9c:	00000413          	li	s0,0
    3ba0:	00000993          	li	s3,0
    3ba4:	00100b93          	li	s7,1
    3ba8:	efdff06f          	j	3aa4 <__divdf3+0x84>
    3bac:	00000413          	li	s0,0
    3bb0:	7ff00993          	li	s3,2047
    3bb4:	00200b93          	li	s7,2
    3bb8:	eedff06f          	j	3aa4 <__divdf3+0x84>
  FP_UNPACK_D (B, b);
    3bbc:	0164e933          	or	s2,s1,s6
    3bc0:	06090e63          	beqz	s2,3c3c <__divdf3+0x21c>
    3bc4:	04048063          	beqz	s1,3c04 <__divdf3+0x1e4>
    3bc8:	00048513          	mv	a0,s1
    3bcc:	109010ef          	jal	ra,54d4 <__clzsi2>
    3bd0:	ff550913          	addi	s2,a0,-11
    3bd4:	01c00793          	li	a5,28
    3bd8:	0327ce63          	blt	a5,s2,3c14 <__divdf3+0x1f4>
    3bdc:	01d00793          	li	a5,29
    3be0:	ff850813          	addi	a6,a0,-8
    3be4:	412787b3          	sub	a5,a5,s2
    3be8:	010494b3          	sll	s1,s1,a6
    3bec:	00fb57b3          	srl	a5,s6,a5
    3bf0:	0097e933          	or	s2,a5,s1
    3bf4:	010b1833          	sll	a6,s6,a6
    3bf8:	c0d00793          	li	a5,-1011
    3bfc:	40a78533          	sub	a0,a5,a0
    3c00:	ee5ff06f          	j	3ae4 <__divdf3+0xc4>
    3c04:	000b0513          	mv	a0,s6
    3c08:	0cd010ef          	jal	ra,54d4 <__clzsi2>
    3c0c:	02050513          	addi	a0,a0,32
    3c10:	fc1ff06f          	j	3bd0 <__divdf3+0x1b0>
    3c14:	fd850793          	addi	a5,a0,-40
    3c18:	00fb1933          	sll	s2,s6,a5
    3c1c:	00000813          	li	a6,0
    3c20:	fd9ff06f          	j	3bf8 <__divdf3+0x1d8>
    3c24:	0164e933          	or	s2,s1,s6
    3c28:	02090263          	beqz	s2,3c4c <__divdf3+0x22c>
    3c2c:	00048913          	mv	s2,s1
    3c30:	7ff00513          	li	a0,2047
    3c34:	00300793          	li	a5,3
    3c38:	eb1ff06f          	j	3ae8 <__divdf3+0xc8>
    3c3c:	00000813          	li	a6,0
    3c40:	00000513          	li	a0,0
    3c44:	00100793          	li	a5,1
    3c48:	ea1ff06f          	j	3ae8 <__divdf3+0xc8>
    3c4c:	00000813          	li	a6,0
    3c50:	7ff00513          	li	a0,2047
    3c54:	00200793          	li	a5,2
    3c58:	e91ff06f          	j	3ae8 <__divdf3+0xc8>
  FP_DIV_D (R, A, B);
    3c5c:	01996663          	bltu	s2,s9,3c68 <__divdf3+0x248>
    3c60:	452c9263          	bne	s9,s2,40a4 <__divdf3+0x684>
    3c64:	45046063          	bltu	s0,a6,40a4 <__divdf3+0x684>
    3c68:	01fc9713          	slli	a4,s9,0x1f
    3c6c:	00145793          	srli	a5,s0,0x1
    3c70:	01f41d93          	slli	s11,s0,0x1f
    3c74:	001cdc93          	srli	s9,s9,0x1
    3c78:	00f76433          	or	s0,a4,a5
    3c7c:	00891793          	slli	a5,s2,0x8
    3c80:	01885b93          	srli	s7,a6,0x18
    3c84:	00fbebb3          	or	s7,s7,a5
    3c88:	010bda93          	srli	s5,s7,0x10
    3c8c:	000a8593          	mv	a1,s5
    3c90:	010b9b13          	slli	s6,s7,0x10
    3c94:	000c8513          	mv	a0,s9
    3c98:	00881c13          	slli	s8,a6,0x8
    3c9c:	010b5b13          	srli	s6,s6,0x10
    3ca0:	788010ef          	jal	ra,5428 <__udivsi3>
    3ca4:	00050593          	mv	a1,a0
    3ca8:	00050d13          	mv	s10,a0
    3cac:	000b0513          	mv	a0,s6
    3cb0:	74c010ef          	jal	ra,53fc <__mulsi3>
    3cb4:	00050913          	mv	s2,a0
    3cb8:	000a8593          	mv	a1,s5
    3cbc:	000c8513          	mv	a0,s9
    3cc0:	7b0010ef          	jal	ra,5470 <__umodsi3>
    3cc4:	01051513          	slli	a0,a0,0x10
    3cc8:	01045793          	srli	a5,s0,0x10
    3ccc:	00a7e533          	or	a0,a5,a0
    3cd0:	000d0a13          	mv	s4,s10
    3cd4:	01257e63          	bgeu	a0,s2,3cf0 <__divdf3+0x2d0>
    3cd8:	01750533          	add	a0,a0,s7
    3cdc:	fffd0a13          	addi	s4,s10,-1
    3ce0:	01756863          	bltu	a0,s7,3cf0 <__divdf3+0x2d0>
    3ce4:	01257663          	bgeu	a0,s2,3cf0 <__divdf3+0x2d0>
    3ce8:	ffed0a13          	addi	s4,s10,-2
    3cec:	01750533          	add	a0,a0,s7
    3cf0:	41250933          	sub	s2,a0,s2
    3cf4:	000a8593          	mv	a1,s5
    3cf8:	00090513          	mv	a0,s2
    3cfc:	72c010ef          	jal	ra,5428 <__udivsi3>
    3d00:	00050593          	mv	a1,a0
    3d04:	00050d13          	mv	s10,a0
    3d08:	000b0513          	mv	a0,s6
    3d0c:	6f0010ef          	jal	ra,53fc <__mulsi3>
    3d10:	00050c93          	mv	s9,a0
    3d14:	000a8593          	mv	a1,s5
    3d18:	00090513          	mv	a0,s2
    3d1c:	754010ef          	jal	ra,5470 <__umodsi3>
    3d20:	01041413          	slli	s0,s0,0x10
    3d24:	01051513          	slli	a0,a0,0x10
    3d28:	01045413          	srli	s0,s0,0x10
    3d2c:	00a46433          	or	s0,s0,a0
    3d30:	000d0713          	mv	a4,s10
    3d34:	01947e63          	bgeu	s0,s9,3d50 <__divdf3+0x330>
    3d38:	01740433          	add	s0,s0,s7
    3d3c:	fffd0713          	addi	a4,s10,-1
    3d40:	01746863          	bltu	s0,s7,3d50 <__divdf3+0x330>
    3d44:	01947663          	bgeu	s0,s9,3d50 <__divdf3+0x330>
    3d48:	ffed0713          	addi	a4,s10,-2
    3d4c:	01740433          	add	s0,s0,s7
    3d50:	010a1813          	slli	a6,s4,0x10
    3d54:	00010e37          	lui	t3,0x10
    3d58:	00e86833          	or	a6,a6,a4
    3d5c:	419407b3          	sub	a5,s0,s9
    3d60:	fffe0c93          	addi	s9,t3,-1 # ffff <__global_pointer$+0x90a7>
    3d64:	01987333          	and	t1,a6,s9
    3d68:	019c7cb3          	and	s9,s8,s9
    3d6c:	01085713          	srli	a4,a6,0x10
    3d70:	010c5d13          	srli	s10,s8,0x10
    3d74:	00030513          	mv	a0,t1
    3d78:	000c8593          	mv	a1,s9
    3d7c:	680010ef          	jal	ra,53fc <__mulsi3>
    3d80:	00050893          	mv	a7,a0
    3d84:	000d0593          	mv	a1,s10
    3d88:	00030513          	mv	a0,t1
    3d8c:	670010ef          	jal	ra,53fc <__mulsi3>
    3d90:	00050313          	mv	t1,a0
    3d94:	000c8593          	mv	a1,s9
    3d98:	00070513          	mv	a0,a4
    3d9c:	660010ef          	jal	ra,53fc <__mulsi3>
    3da0:	00050e93          	mv	t4,a0
    3da4:	000d0593          	mv	a1,s10
    3da8:	00070513          	mv	a0,a4
    3dac:	650010ef          	jal	ra,53fc <__mulsi3>
    3db0:	0108d713          	srli	a4,a7,0x10
    3db4:	01d30333          	add	t1,t1,t4
    3db8:	00670733          	add	a4,a4,t1
    3dbc:	01d77463          	bgeu	a4,t4,3dc4 <__divdf3+0x3a4>
    3dc0:	01c50533          	add	a0,a0,t3
    3dc4:	01075413          	srli	s0,a4,0x10
    3dc8:	00a40433          	add	s0,s0,a0
    3dcc:	00010537          	lui	a0,0x10
    3dd0:	fff50513          	addi	a0,a0,-1 # ffff <__global_pointer$+0x90a7>
    3dd4:	00a77a33          	and	s4,a4,a0
    3dd8:	010a1a13          	slli	s4,s4,0x10
    3ddc:	00a8f8b3          	and	a7,a7,a0
    3de0:	011a0a33          	add	s4,s4,a7
    3de4:	0087e863          	bltu	a5,s0,3df4 <__divdf3+0x3d4>
    3de8:	00080913          	mv	s2,a6
    3dec:	04879463          	bne	a5,s0,3e34 <__divdf3+0x414>
    3df0:	054df263          	bgeu	s11,s4,3e34 <__divdf3+0x414>
    3df4:	018d8db3          	add	s11,s11,s8
    3df8:	018db733          	sltu	a4,s11,s8
    3dfc:	01770733          	add	a4,a4,s7
    3e00:	00e787b3          	add	a5,a5,a4
    3e04:	fff80913          	addi	s2,a6,-1
    3e08:	00fbe663          	bltu	s7,a5,3e14 <__divdf3+0x3f4>
    3e0c:	02fb9463          	bne	s7,a5,3e34 <__divdf3+0x414>
    3e10:	038de263          	bltu	s11,s8,3e34 <__divdf3+0x414>
    3e14:	0087e663          	bltu	a5,s0,3e20 <__divdf3+0x400>
    3e18:	00f41e63          	bne	s0,a5,3e34 <__divdf3+0x414>
    3e1c:	014dfc63          	bgeu	s11,s4,3e34 <__divdf3+0x414>
    3e20:	018d8db3          	add	s11,s11,s8
    3e24:	018db733          	sltu	a4,s11,s8
    3e28:	01770733          	add	a4,a4,s7
    3e2c:	ffe80913          	addi	s2,a6,-2
    3e30:	00e787b3          	add	a5,a5,a4
    3e34:	414d8a33          	sub	s4,s11,s4
    3e38:	40878433          	sub	s0,a5,s0
    3e3c:	014db533          	sltu	a0,s11,s4
    3e40:	40a40433          	sub	s0,s0,a0
    3e44:	fff00813          	li	a6,-1
    3e48:	1a8b8063          	beq	s7,s0,3fe8 <__divdf3+0x5c8>
    3e4c:	000a8593          	mv	a1,s5
    3e50:	00040513          	mv	a0,s0
    3e54:	5d4010ef          	jal	ra,5428 <__udivsi3>
    3e58:	00050593          	mv	a1,a0
    3e5c:	00a12623          	sw	a0,12(sp)
    3e60:	000b0513          	mv	a0,s6
    3e64:	598010ef          	jal	ra,53fc <__mulsi3>
    3e68:	00a12423          	sw	a0,8(sp)
    3e6c:	000a8593          	mv	a1,s5
    3e70:	00040513          	mv	a0,s0
    3e74:	5fc010ef          	jal	ra,5470 <__umodsi3>
    3e78:	00c12683          	lw	a3,12(sp)
    3e7c:	00812783          	lw	a5,8(sp)
    3e80:	01051513          	slli	a0,a0,0x10
    3e84:	010a5713          	srli	a4,s4,0x10
    3e88:	00a76533          	or	a0,a4,a0
    3e8c:	00068d93          	mv	s11,a3
    3e90:	00f57e63          	bgeu	a0,a5,3eac <__divdf3+0x48c>
    3e94:	01750533          	add	a0,a0,s7
    3e98:	fff68d93          	addi	s11,a3,-1
    3e9c:	01756863          	bltu	a0,s7,3eac <__divdf3+0x48c>
    3ea0:	00f57663          	bgeu	a0,a5,3eac <__divdf3+0x48c>
    3ea4:	ffe68d93          	addi	s11,a3,-2
    3ea8:	01750533          	add	a0,a0,s7
    3eac:	40f50433          	sub	s0,a0,a5
    3eb0:	000a8593          	mv	a1,s5
    3eb4:	00040513          	mv	a0,s0
    3eb8:	570010ef          	jal	ra,5428 <__udivsi3>
    3ebc:	00050593          	mv	a1,a0
    3ec0:	00a12423          	sw	a0,8(sp)
    3ec4:	000b0513          	mv	a0,s6
    3ec8:	534010ef          	jal	ra,53fc <__mulsi3>
    3ecc:	00050b13          	mv	s6,a0
    3ed0:	000a8593          	mv	a1,s5
    3ed4:	00040513          	mv	a0,s0
    3ed8:	598010ef          	jal	ra,5470 <__umodsi3>
    3edc:	010a1a13          	slli	s4,s4,0x10
    3ee0:	00812783          	lw	a5,8(sp)
    3ee4:	01051513          	slli	a0,a0,0x10
    3ee8:	010a5a13          	srli	s4,s4,0x10
    3eec:	00aa6533          	or	a0,s4,a0
    3ef0:	00078713          	mv	a4,a5
    3ef4:	01657e63          	bgeu	a0,s6,3f10 <__divdf3+0x4f0>
    3ef8:	01750533          	add	a0,a0,s7
    3efc:	fff78713          	addi	a4,a5,-1 # 3fffff <__global_pointer$+0x3f90a7>
    3f00:	01756863          	bltu	a0,s7,3f10 <__divdf3+0x4f0>
    3f04:	01657663          	bgeu	a0,s6,3f10 <__divdf3+0x4f0>
    3f08:	ffe78713          	addi	a4,a5,-2
    3f0c:	01750533          	add	a0,a0,s7
    3f10:	010d9793          	slli	a5,s11,0x10
    3f14:	00e7e7b3          	or	a5,a5,a4
    3f18:	01079313          	slli	t1,a5,0x10
    3f1c:	01035313          	srli	t1,t1,0x10
    3f20:	416508b3          	sub	a7,a0,s6
    3f24:	0107d713          	srli	a4,a5,0x10
    3f28:	00030513          	mv	a0,t1
    3f2c:	000c8593          	mv	a1,s9
    3f30:	4cc010ef          	jal	ra,53fc <__mulsi3>
    3f34:	00050813          	mv	a6,a0
    3f38:	000d0593          	mv	a1,s10
    3f3c:	00030513          	mv	a0,t1
    3f40:	4bc010ef          	jal	ra,53fc <__mulsi3>
    3f44:	00050313          	mv	t1,a0
    3f48:	000c8593          	mv	a1,s9
    3f4c:	00070513          	mv	a0,a4
    3f50:	4ac010ef          	jal	ra,53fc <__mulsi3>
    3f54:	00050e13          	mv	t3,a0
    3f58:	000d0593          	mv	a1,s10
    3f5c:	00070513          	mv	a0,a4
    3f60:	49c010ef          	jal	ra,53fc <__mulsi3>
    3f64:	01085713          	srli	a4,a6,0x10
    3f68:	01c30333          	add	t1,t1,t3
    3f6c:	00670733          	add	a4,a4,t1
    3f70:	01c77663          	bgeu	a4,t3,3f7c <__divdf3+0x55c>
    3f74:	000106b7          	lui	a3,0x10
    3f78:	00d50533          	add	a0,a0,a3
    3f7c:	000105b7          	lui	a1,0x10
    3f80:	fff58593          	addi	a1,a1,-1 # ffff <__global_pointer$+0x90a7>
    3f84:	01075613          	srli	a2,a4,0x10
    3f88:	00b776b3          	and	a3,a4,a1
    3f8c:	01069693          	slli	a3,a3,0x10
    3f90:	00b87833          	and	a6,a6,a1
    3f94:	00a60633          	add	a2,a2,a0
    3f98:	010686b3          	add	a3,a3,a6
    3f9c:	00c8e863          	bltu	a7,a2,3fac <__divdf3+0x58c>
    3fa0:	24c89463          	bne	a7,a2,41e8 <__divdf3+0x7c8>
    3fa4:	00078813          	mv	a6,a5
    3fa8:	04068063          	beqz	a3,3fe8 <__divdf3+0x5c8>
    3fac:	011b8533          	add	a0,s7,a7
    3fb0:	fff78813          	addi	a6,a5,-1
    3fb4:	03756463          	bltu	a0,s7,3fdc <__divdf3+0x5bc>
    3fb8:	00c56663          	bltu	a0,a2,3fc4 <__divdf3+0x5a4>
    3fbc:	22c51463          	bne	a0,a2,41e4 <__divdf3+0x7c4>
    3fc0:	02dc7063          	bgeu	s8,a3,3fe0 <__divdf3+0x5c0>
    3fc4:	ffe78813          	addi	a6,a5,-2
    3fc8:	001c1793          	slli	a5,s8,0x1
    3fcc:	0187bc33          	sltu	s8,a5,s8
    3fd0:	017c0bb3          	add	s7,s8,s7
    3fd4:	01750533          	add	a0,a0,s7
    3fd8:	00078c13          	mv	s8,a5
    3fdc:	00c51463          	bne	a0,a2,3fe4 <__divdf3+0x5c4>
    3fe0:	00dc0463          	beq	s8,a3,3fe8 <__divdf3+0x5c8>
    3fe4:	00186813          	ori	a6,a6,1
  FP_PACK_D (r, R);
    3fe8:	3ff98693          	addi	a3,s3,1023
    3fec:	10d05a63          	blez	a3,4100 <__divdf3+0x6e0>
    3ff0:	00787793          	andi	a5,a6,7
    3ff4:	02078063          	beqz	a5,4014 <__divdf3+0x5f4>
    3ff8:	00f87793          	andi	a5,a6,15
    3ffc:	00400713          	li	a4,4
    4000:	00e78a63          	beq	a5,a4,4014 <__divdf3+0x5f4>
    4004:	00480793          	addi	a5,a6,4
    4008:	0107b833          	sltu	a6,a5,a6
    400c:	01090933          	add	s2,s2,a6
    4010:	00078813          	mv	a6,a5
    4014:	00791793          	slli	a5,s2,0x7
    4018:	0007da63          	bgez	a5,402c <__divdf3+0x60c>
    401c:	ff0007b7          	lui	a5,0xff000
    4020:	fff78793          	addi	a5,a5,-1 # feffffff <__global_pointer$+0xfeff90a7>
    4024:	00f97933          	and	s2,s2,a5
    4028:	40098693          	addi	a3,s3,1024
    402c:	7fe00793          	li	a5,2046
    4030:	18d7ca63          	blt	a5,a3,41c4 <__divdf3+0x7a4>
    4034:	00385813          	srli	a6,a6,0x3
    4038:	01d91713          	slli	a4,s2,0x1d
    403c:	01076733          	or	a4,a4,a6
    4040:	00395793          	srli	a5,s2,0x3
    4044:	00c79793          	slli	a5,a5,0xc
    4048:	7ff6f693          	andi	a3,a3,2047
    404c:	01469693          	slli	a3,a3,0x14
  FP_HANDLE_EXCEPTIONS;

  return r;
}
    4050:	04c12083          	lw	ra,76(sp)
    4054:	04812403          	lw	s0,72(sp)
  FP_PACK_D (r, R);
    4058:	00c7d793          	srli	a5,a5,0xc
    405c:	01f49493          	slli	s1,s1,0x1f
    4060:	00d7e7b3          	or	a5,a5,a3
    4064:	0097e6b3          	or	a3,a5,s1
}
    4068:	04012903          	lw	s2,64(sp)
    406c:	04412483          	lw	s1,68(sp)
    4070:	03c12983          	lw	s3,60(sp)
    4074:	03812a03          	lw	s4,56(sp)
    4078:	03412a83          	lw	s5,52(sp)
    407c:	03012b03          	lw	s6,48(sp)
    4080:	02c12b83          	lw	s7,44(sp)
    4084:	02812c03          	lw	s8,40(sp)
    4088:	02412c83          	lw	s9,36(sp)
    408c:	02012d03          	lw	s10,32(sp)
    4090:	01c12d83          	lw	s11,28(sp)
    4094:	00070513          	mv	a0,a4
    4098:	00068593          	mv	a1,a3
    409c:	05010113          	addi	sp,sp,80
    40a0:	00008067          	ret
  FP_DIV_D (R, A, B);
    40a4:	fff98993          	addi	s3,s3,-1
    40a8:	00000d93          	li	s11,0
    40ac:	bd1ff06f          	j	3c7c <__divdf3+0x25c>
  FP_UNPACK_D (A, a);
    40b0:	000a0493          	mv	s1,s4
  FP_DIV_D (R, A, B);
    40b4:	000c8913          	mv	s2,s9
    40b8:	00040813          	mv	a6,s0
    40bc:	000b8793          	mv	a5,s7
  FP_PACK_D (r, R);
    40c0:	00200713          	li	a4,2
    40c4:	10e78063          	beq	a5,a4,41c4 <__divdf3+0x7a4>
    40c8:	00300713          	li	a4,3
    40cc:	0ee78263          	beq	a5,a4,41b0 <__divdf3+0x790>
    40d0:	00100713          	li	a4,1
    40d4:	f0e79ae3          	bne	a5,a4,3fe8 <__divdf3+0x5c8>
    40d8:	00000793          	li	a5,0
    40dc:	00000713          	li	a4,0
    40e0:	0940006f          	j	4174 <__divdf3+0x754>
  FP_UNPACK_D (B, b);
    40e4:	000a8493          	mv	s1,s5
  FP_DIV_D (R, A, B);
    40e8:	fd9ff06f          	j	40c0 <__divdf3+0x6a0>
    40ec:	00080937          	lui	s2,0x80
    40f0:	00000813          	li	a6,0
    40f4:	00000493          	li	s1,0
    40f8:	00300793          	li	a5,3
    40fc:	fc5ff06f          	j	40c0 <__divdf3+0x6a0>
  FP_PACK_D (r, R);
    4100:	00100793          	li	a5,1
    4104:	40d787b3          	sub	a5,a5,a3
    4108:	03800713          	li	a4,56
    410c:	fcf746e3          	blt	a4,a5,40d8 <__divdf3+0x6b8>
    4110:	01f00713          	li	a4,31
    4114:	06f74463          	blt	a4,a5,417c <__divdf3+0x75c>
    4118:	41e98993          	addi	s3,s3,1054
    411c:	01391733          	sll	a4,s2,s3
    4120:	00f856b3          	srl	a3,a6,a5
    4124:	013819b3          	sll	s3,a6,s3
    4128:	00d76733          	or	a4,a4,a3
    412c:	013039b3          	snez	s3,s3
    4130:	01376733          	or	a4,a4,s3
    4134:	00f957b3          	srl	a5,s2,a5
    4138:	00777693          	andi	a3,a4,7
    413c:	02068063          	beqz	a3,415c <__divdf3+0x73c>
    4140:	00f77693          	andi	a3,a4,15
    4144:	00400613          	li	a2,4
    4148:	00c68a63          	beq	a3,a2,415c <__divdf3+0x73c>
    414c:	00470693          	addi	a3,a4,4
    4150:	00e6b733          	sltu	a4,a3,a4
    4154:	00e787b3          	add	a5,a5,a4
    4158:	00068713          	mv	a4,a3
    415c:	00879693          	slli	a3,a5,0x8
    4160:	0606ca63          	bltz	a3,41d4 <__divdf3+0x7b4>
    4164:	01d79693          	slli	a3,a5,0x1d
    4168:	00375713          	srli	a4,a4,0x3
    416c:	00e6e733          	or	a4,a3,a4
    4170:	0037d793          	srli	a5,a5,0x3
    4174:	00000693          	li	a3,0
    4178:	ecdff06f          	j	4044 <__divdf3+0x624>
    417c:	fe100713          	li	a4,-31
    4180:	40d70733          	sub	a4,a4,a3
    4184:	02000613          	li	a2,32
    4188:	00e95733          	srl	a4,s2,a4
    418c:	00000693          	li	a3,0
    4190:	00c78663          	beq	a5,a2,419c <__divdf3+0x77c>
    4194:	43e98993          	addi	s3,s3,1086
    4198:	013916b3          	sll	a3,s2,s3
    419c:	0106e833          	or	a6,a3,a6
    41a0:	01003833          	snez	a6,a6
    41a4:	01076733          	or	a4,a4,a6
    41a8:	00000793          	li	a5,0
    41ac:	f8dff06f          	j	4138 <__divdf3+0x718>
    41b0:	000807b7          	lui	a5,0x80
    41b4:	00000713          	li	a4,0
    41b8:	7ff00693          	li	a3,2047
    41bc:	00000493          	li	s1,0
    41c0:	e85ff06f          	j	4044 <__divdf3+0x624>
    41c4:	00000793          	li	a5,0
    41c8:	00000713          	li	a4,0
    41cc:	7ff00693          	li	a3,2047
    41d0:	e75ff06f          	j	4044 <__divdf3+0x624>
    41d4:	00000793          	li	a5,0
    41d8:	00000713          	li	a4,0
    41dc:	00100693          	li	a3,1
    41e0:	e65ff06f          	j	4044 <__divdf3+0x624>
  FP_DIV_D (R, A, B);
    41e4:	00080793          	mv	a5,a6
    41e8:	00078813          	mv	a6,a5
    41ec:	df9ff06f          	j	3fe4 <__divdf3+0x5c4>

000041f0 <__eqdf2>:
  FP_DECL_D (A);
  FP_DECL_D (B);
  CMPtype r;

  FP_INIT_EXCEPTIONS;
  FP_UNPACK_RAW_D (A, a);
    41f0:	0145d713          	srli	a4,a1,0x14
    41f4:	001007b7          	lui	a5,0x100
    41f8:	fff78793          	addi	a5,a5,-1 # fffff <__global_pointer$+0xf90a7>
  FP_UNPACK_RAW_D (B, b);
    41fc:	0146d813          	srli	a6,a3,0x14
{
    4200:	00050313          	mv	t1,a0
    4204:	00050e93          	mv	t4,a0
  FP_UNPACK_RAW_D (A, a);
    4208:	7ff77713          	andi	a4,a4,2047
  FP_CMP_EQ_D (r, A, B, 1);
    420c:	7ff00513          	li	a0,2047
  FP_UNPACK_RAW_D (A, a);
    4210:	00b7f8b3          	and	a7,a5,a1
    4214:	00060f13          	mv	t5,a2
  FP_UNPACK_RAW_D (B, b);
    4218:	00d7f7b3          	and	a5,a5,a3
  FP_UNPACK_RAW_D (A, a);
    421c:	01f5d593          	srli	a1,a1,0x1f
  FP_UNPACK_RAW_D (B, b);
    4220:	7ff87813          	andi	a6,a6,2047
    4224:	01f6d693          	srli	a3,a3,0x1f
  FP_CMP_EQ_D (r, A, B, 1);
    4228:	00a71c63          	bne	a4,a0,4240 <__eqdf2+0x50>
    422c:	0068ee33          	or	t3,a7,t1
    4230:	00100513          	li	a0,1
    4234:	000e1463          	bnez	t3,423c <__eqdf2+0x4c>
    4238:	00e80663          	beq	a6,a4,4244 <__eqdf2+0x54>
  FP_HANDLE_EXCEPTIONS;

  return r;
}
    423c:	00008067          	ret
  FP_CMP_EQ_D (r, A, B, 1);
    4240:	00a81863          	bne	a6,a0,4250 <__eqdf2+0x60>
    4244:	00c7e633          	or	a2,a5,a2
    4248:	00100513          	li	a0,1
    424c:	fe0618e3          	bnez	a2,423c <__eqdf2+0x4c>
    4250:	00100513          	li	a0,1
    4254:	ff0714e3          	bne	a4,a6,423c <__eqdf2+0x4c>
    4258:	fef892e3          	bne	a7,a5,423c <__eqdf2+0x4c>
    425c:	ffee90e3          	bne	t4,t5,423c <__eqdf2+0x4c>
    4260:	00d58a63          	beq	a1,a3,4274 <__eqdf2+0x84>
    4264:	fc071ce3          	bnez	a4,423c <__eqdf2+0x4c>
    4268:	0068e533          	or	a0,a7,t1
    426c:	00a03533          	snez	a0,a0
    4270:	00008067          	ret
    4274:	00000513          	li	a0,0
    4278:	00008067          	ret

0000427c <__gedf2>:
  FP_DECL_D (A);
  FP_DECL_D (B);
  CMPtype r;

  FP_INIT_EXCEPTIONS;
  FP_UNPACK_RAW_D (A, a);
    427c:	0145d813          	srli	a6,a1,0x14
    4280:	001007b7          	lui	a5,0x100
    4284:	fff78793          	addi	a5,a5,-1 # fffff <__global_pointer$+0xf90a7>
  FP_UNPACK_RAW_D (B, b);
    4288:	0146d713          	srli	a4,a3,0x14
{
    428c:	00050313          	mv	t1,a0
    4290:	00050e93          	mv	t4,a0
  FP_UNPACK_RAW_D (A, a);
    4294:	7ff87813          	andi	a6,a6,2047
  FP_CMP_D (r, A, B, -2, 2);
    4298:	7ff00513          	li	a0,2047
  FP_UNPACK_RAW_D (A, a);
    429c:	00b7f8b3          	and	a7,a5,a1
    42a0:	00060f13          	mv	t5,a2
  FP_UNPACK_RAW_D (B, b);
    42a4:	00d7f7b3          	and	a5,a5,a3
  FP_UNPACK_RAW_D (A, a);
    42a8:	01f5d593          	srli	a1,a1,0x1f
  FP_UNPACK_RAW_D (B, b);
    42ac:	7ff77713          	andi	a4,a4,2047
    42b0:	01f6d693          	srli	a3,a3,0x1f
  FP_CMP_D (r, A, B, -2, 2);
    42b4:	00a81a63          	bne	a6,a0,42c8 <__gedf2+0x4c>
    42b8:	0068ee33          	or	t3,a7,t1
    42bc:	ffe00513          	li	a0,-2
    42c0:	080e0a63          	beqz	t3,4354 <__gedf2+0xd8>
    42c4:	00008067          	ret
    42c8:	00a71863          	bne	a4,a0,42d8 <__gedf2+0x5c>
    42cc:	00c7ee33          	or	t3,a5,a2
    42d0:	ffe00513          	li	a0,-2
    42d4:	020e1663          	bnez	t3,4300 <__gedf2+0x84>
    42d8:	08081063          	bnez	a6,4358 <__gedf2+0xdc>
    42dc:	0068e533          	or	a0,a7,t1
    42e0:	00153513          	seqz	a0,a0
    42e4:	00071663          	bnez	a4,42f0 <__gedf2+0x74>
    42e8:	00c7e633          	or	a2,a5,a2
    42ec:	04060a63          	beqz	a2,4340 <__gedf2+0xc4>
    42f0:	00051a63          	bnez	a0,4304 <__gedf2+0x88>
    42f4:	00d58e63          	beq	a1,a3,4310 <__gedf2+0x94>
    42f8:	00100513          	li	a0,1
    42fc:	00059663          	bnez	a1,4308 <__gedf2+0x8c>
  FP_HANDLE_EXCEPTIONS;

  return r;
}
    4300:	00008067          	ret
  FP_CMP_D (r, A, B, -2, 2);
    4304:	fe069ee3          	bnez	a3,4300 <__gedf2+0x84>
    4308:	fff00513          	li	a0,-1
    430c:	00008067          	ret
    4310:	ff0744e3          	blt	a4,a6,42f8 <__gedf2+0x7c>
    4314:	00e85a63          	bge	a6,a4,4328 <__gedf2+0xac>
    4318:	fff00513          	li	a0,-1
    431c:	fe0582e3          	beqz	a1,4300 <__gedf2+0x84>
    4320:	00100513          	li	a0,1
    4324:	00008067          	ret
    4328:	fd17e8e3          	bltu	a5,a7,42f8 <__gedf2+0x7c>
    432c:	02f89063          	bne	a7,a5,434c <__gedf2+0xd0>
    4330:	fddf64e3          	bltu	t5,t4,42f8 <__gedf2+0x7c>
    4334:	00000513          	li	a0,0
    4338:	fdeef4e3          	bgeu	t4,t5,4300 <__gedf2+0x84>
    433c:	fddff06f          	j	4318 <__gedf2+0x9c>
    4340:	fa050ce3          	beqz	a0,42f8 <__gedf2+0x7c>
    4344:	00000513          	li	a0,0
    4348:	00008067          	ret
    434c:	fcf8e6e3          	bltu	a7,a5,4318 <__gedf2+0x9c>
    4350:	ff5ff06f          	j	4344 <__gedf2+0xc8>
    4354:	f7070ce3          	beq	a4,a6,42cc <__gedf2+0x50>
    4358:	f8071ee3          	bnez	a4,42f4 <__gedf2+0x78>
    435c:	00000513          	li	a0,0
    4360:	f89ff06f          	j	42e8 <__gedf2+0x6c>

00004364 <__ledf2>:
  FP_DECL_D (A);
  FP_DECL_D (B);
  CMPtype r;

  FP_INIT_EXCEPTIONS;
  FP_UNPACK_RAW_D (A, a);
    4364:	0145d813          	srli	a6,a1,0x14
    4368:	001007b7          	lui	a5,0x100
    436c:	fff78793          	addi	a5,a5,-1 # fffff <__global_pointer$+0xf90a7>
  FP_UNPACK_RAW_D (B, b);
    4370:	0146d713          	srli	a4,a3,0x14
{
    4374:	00050313          	mv	t1,a0
    4378:	00050e93          	mv	t4,a0
  FP_UNPACK_RAW_D (A, a);
    437c:	7ff87813          	andi	a6,a6,2047
  FP_CMP_D (r, A, B, 2, 2);
    4380:	7ff00513          	li	a0,2047
  FP_UNPACK_RAW_D (A, a);
    4384:	00b7f8b3          	and	a7,a5,a1
    4388:	00060f13          	mv	t5,a2
  FP_UNPACK_RAW_D (B, b);
    438c:	00d7f7b3          	and	a5,a5,a3
  FP_UNPACK_RAW_D (A, a);
    4390:	01f5d593          	srli	a1,a1,0x1f
  FP_UNPACK_RAW_D (B, b);
    4394:	7ff77713          	andi	a4,a4,2047
    4398:	01f6d693          	srli	a3,a3,0x1f
  FP_CMP_D (r, A, B, 2, 2);
    439c:	00a81a63          	bne	a6,a0,43b0 <__ledf2+0x4c>
    43a0:	0068ee33          	or	t3,a7,t1
    43a4:	00200513          	li	a0,2
    43a8:	080e0a63          	beqz	t3,443c <__ledf2+0xd8>
    43ac:	00008067          	ret
    43b0:	00a71863          	bne	a4,a0,43c0 <__ledf2+0x5c>
    43b4:	00c7ee33          	or	t3,a5,a2
    43b8:	00200513          	li	a0,2
    43bc:	020e1663          	bnez	t3,43e8 <__ledf2+0x84>
    43c0:	08081063          	bnez	a6,4440 <__ledf2+0xdc>
    43c4:	0068e533          	or	a0,a7,t1
    43c8:	00153513          	seqz	a0,a0
    43cc:	00071663          	bnez	a4,43d8 <__ledf2+0x74>
    43d0:	00c7e633          	or	a2,a5,a2
    43d4:	04060a63          	beqz	a2,4428 <__ledf2+0xc4>
    43d8:	00051a63          	bnez	a0,43ec <__ledf2+0x88>
    43dc:	00d58e63          	beq	a1,a3,43f8 <__ledf2+0x94>
    43e0:	00100513          	li	a0,1
    43e4:	00059663          	bnez	a1,43f0 <__ledf2+0x8c>
  FP_HANDLE_EXCEPTIONS;

  return r;
}
    43e8:	00008067          	ret
  FP_CMP_D (r, A, B, 2, 2);
    43ec:	fe069ee3          	bnez	a3,43e8 <__ledf2+0x84>
    43f0:	fff00513          	li	a0,-1
    43f4:	00008067          	ret
    43f8:	ff0744e3          	blt	a4,a6,43e0 <__ledf2+0x7c>
    43fc:	00e85a63          	bge	a6,a4,4410 <__ledf2+0xac>
    4400:	fff00513          	li	a0,-1
    4404:	fe0582e3          	beqz	a1,43e8 <__ledf2+0x84>
    4408:	00100513          	li	a0,1
    440c:	00008067          	ret
    4410:	fd17e8e3          	bltu	a5,a7,43e0 <__ledf2+0x7c>
    4414:	02f89063          	bne	a7,a5,4434 <__ledf2+0xd0>
    4418:	fddf64e3          	bltu	t5,t4,43e0 <__ledf2+0x7c>
    441c:	00000513          	li	a0,0
    4420:	fdeef4e3          	bgeu	t4,t5,43e8 <__ledf2+0x84>
    4424:	fddff06f          	j	4400 <__ledf2+0x9c>
    4428:	fa050ce3          	beqz	a0,43e0 <__ledf2+0x7c>
    442c:	00000513          	li	a0,0
    4430:	00008067          	ret
    4434:	fcf8e6e3          	bltu	a7,a5,4400 <__ledf2+0x9c>
    4438:	ff5ff06f          	j	442c <__ledf2+0xc8>
    443c:	f7070ce3          	beq	a4,a6,43b4 <__ledf2+0x50>
    4440:	f8071ee3          	bnez	a4,43dc <__ledf2+0x78>
    4444:	00000513          	li	a0,0
    4448:	f89ff06f          	j	43d0 <__ledf2+0x6c>

0000444c <__muldf3>:
#include "soft-fp.h"
#include "double.h"

DFtype
__muldf3 (DFtype a, DFtype b)
{
    444c:	fd010113          	addi	sp,sp,-48
    4450:	03212023          	sw	s2,32(sp)
  FP_DECL_D (B);
  FP_DECL_D (R);
  DFtype r;

  FP_INIT_ROUNDMODE;
  FP_UNPACK_D (A, a);
    4454:	0145d913          	srli	s2,a1,0x14
{
    4458:	01312e23          	sw	s3,28(sp)
    445c:	01412c23          	sw	s4,24(sp)
    4460:	01512a23          	sw	s5,20(sp)
    4464:	01612823          	sw	s6,16(sp)
    4468:	01712623          	sw	s7,12(sp)
  FP_UNPACK_D (A, a);
    446c:	00c59a93          	slli	s5,a1,0xc
{
    4470:	02112623          	sw	ra,44(sp)
    4474:	02812423          	sw	s0,40(sp)
    4478:	02912223          	sw	s1,36(sp)
  FP_UNPACK_D (A, a);
    447c:	7ff97913          	andi	s2,s2,2047
{
    4480:	00050b13          	mv	s6,a0
    4484:	00060b93          	mv	s7,a2
    4488:	00068a13          	mv	s4,a3
  FP_UNPACK_D (A, a);
    448c:	00cada93          	srli	s5,s5,0xc
    4490:	01f5d993          	srli	s3,a1,0x1f
    4494:	0a090463          	beqz	s2,453c <__muldf3+0xf0>
    4498:	7ff00793          	li	a5,2047
    449c:	10f90263          	beq	s2,a5,45a0 <__muldf3+0x154>
    44a0:	01d55413          	srli	s0,a0,0x1d
    44a4:	003a9a93          	slli	s5,s5,0x3
    44a8:	01546ab3          	or	s5,s0,s5
    44ac:	00800437          	lui	s0,0x800
    44b0:	008ae433          	or	s0,s5,s0
    44b4:	00351493          	slli	s1,a0,0x3
    44b8:	c0190913          	addi	s2,s2,-1023 # 7fc01 <__global_pointer$+0x78ca9>
    44bc:	00000b13          	li	s6,0
  FP_UNPACK_D (B, b);
    44c0:	014a5513          	srli	a0,s4,0x14
    44c4:	00ca1a93          	slli	s5,s4,0xc
    44c8:	7ff57513          	andi	a0,a0,2047
    44cc:	000b8713          	mv	a4,s7
    44d0:	00cada93          	srli	s5,s5,0xc
    44d4:	01fa5a13          	srli	s4,s4,0x1f
    44d8:	10050263          	beqz	a0,45dc <__muldf3+0x190>
    44dc:	7ff00793          	li	a5,2047
    44e0:	16f50263          	beq	a0,a5,4644 <__muldf3+0x1f8>
    44e4:	01dbd793          	srli	a5,s7,0x1d
    44e8:	003a9a93          	slli	s5,s5,0x3
    44ec:	0157eab3          	or	s5,a5,s5
    44f0:	008007b7          	lui	a5,0x800
    44f4:	00fae7b3          	or	a5,s5,a5
    44f8:	003b9713          	slli	a4,s7,0x3
    44fc:	c0150513          	addi	a0,a0,-1023
    4500:	00000693          	li	a3,0
  FP_MUL_D (R, A, B);
    4504:	002b1613          	slli	a2,s6,0x2
    4508:	00d66633          	or	a2,a2,a3
    450c:	00a90933          	add	s2,s2,a0
    4510:	fff60613          	addi	a2,a2,-1 # 3fffffff <__global_pointer$+0x3fff90a7>
    4514:	00e00593          	li	a1,14
    4518:	0149c833          	xor	a6,s3,s4
    451c:	00190893          	addi	a7,s2,1
    4520:	14c5ee63          	bltu	a1,a2,467c <__muldf3+0x230>
    4524:	000055b7          	lui	a1,0x5
    4528:	00261613          	slli	a2,a2,0x2
    452c:	61c58593          	addi	a1,a1,1564 # 561c <TWO52+0x4c>
    4530:	00b60633          	add	a2,a2,a1
    4534:	00062603          	lw	a2,0(a2)
    4538:	00060067          	jr	a2
  FP_UNPACK_D (A, a);
    453c:	00aae433          	or	s0,s5,a0
    4540:	06040e63          	beqz	s0,45bc <__muldf3+0x170>
    4544:	040a8063          	beqz	s5,4584 <__muldf3+0x138>
    4548:	000a8513          	mv	a0,s5
    454c:	789000ef          	jal	ra,54d4 <__clzsi2>
    4550:	ff550793          	addi	a5,a0,-11
    4554:	01c00713          	li	a4,28
    4558:	02f74c63          	blt	a4,a5,4590 <__muldf3+0x144>
    455c:	01d00413          	li	s0,29
    4560:	ff850493          	addi	s1,a0,-8
    4564:	40f40433          	sub	s0,s0,a5
    4568:	009a9ab3          	sll	s5,s5,s1
    456c:	008b5433          	srl	s0,s6,s0
    4570:	01546433          	or	s0,s0,s5
    4574:	009b14b3          	sll	s1,s6,s1
    4578:	c0d00913          	li	s2,-1011
    457c:	40a90933          	sub	s2,s2,a0
    4580:	f3dff06f          	j	44bc <__muldf3+0x70>
    4584:	751000ef          	jal	ra,54d4 <__clzsi2>
    4588:	02050513          	addi	a0,a0,32
    458c:	fc5ff06f          	j	4550 <__muldf3+0x104>
    4590:	fd850413          	addi	s0,a0,-40
    4594:	008b1433          	sll	s0,s6,s0
    4598:	00000493          	li	s1,0
    459c:	fddff06f          	j	4578 <__muldf3+0x12c>
    45a0:	00aae433          	or	s0,s5,a0
    45a4:	02040463          	beqz	s0,45cc <__muldf3+0x180>
    45a8:	00050493          	mv	s1,a0
    45ac:	000a8413          	mv	s0,s5
    45b0:	7ff00913          	li	s2,2047
    45b4:	00300b13          	li	s6,3
    45b8:	f09ff06f          	j	44c0 <__muldf3+0x74>
    45bc:	00000493          	li	s1,0
    45c0:	00000913          	li	s2,0
    45c4:	00100b13          	li	s6,1
    45c8:	ef9ff06f          	j	44c0 <__muldf3+0x74>
    45cc:	00000493          	li	s1,0
    45d0:	7ff00913          	li	s2,2047
    45d4:	00200b13          	li	s6,2
    45d8:	ee9ff06f          	j	44c0 <__muldf3+0x74>
  FP_UNPACK_D (B, b);
    45dc:	017ae7b3          	or	a5,s5,s7
    45e0:	06078e63          	beqz	a5,465c <__muldf3+0x210>
    45e4:	040a8063          	beqz	s5,4624 <__muldf3+0x1d8>
    45e8:	000a8513          	mv	a0,s5
    45ec:	6e9000ef          	jal	ra,54d4 <__clzsi2>
    45f0:	ff550693          	addi	a3,a0,-11
    45f4:	01c00793          	li	a5,28
    45f8:	02d7ce63          	blt	a5,a3,4634 <__muldf3+0x1e8>
    45fc:	01d00793          	li	a5,29
    4600:	ff850713          	addi	a4,a0,-8
    4604:	40d787b3          	sub	a5,a5,a3
    4608:	00ea9ab3          	sll	s5,s5,a4
    460c:	00fbd7b3          	srl	a5,s7,a5
    4610:	0157e7b3          	or	a5,a5,s5
    4614:	00eb9733          	sll	a4,s7,a4
    4618:	c0d00613          	li	a2,-1011
    461c:	40a60533          	sub	a0,a2,a0
    4620:	ee1ff06f          	j	4500 <__muldf3+0xb4>
    4624:	000b8513          	mv	a0,s7
    4628:	6ad000ef          	jal	ra,54d4 <__clzsi2>
    462c:	02050513          	addi	a0,a0,32
    4630:	fc1ff06f          	j	45f0 <__muldf3+0x1a4>
    4634:	fd850793          	addi	a5,a0,-40
    4638:	00fb97b3          	sll	a5,s7,a5
    463c:	00000713          	li	a4,0
    4640:	fd9ff06f          	j	4618 <__muldf3+0x1cc>
    4644:	017ae7b3          	or	a5,s5,s7
    4648:	02078263          	beqz	a5,466c <__muldf3+0x220>
    464c:	000a8793          	mv	a5,s5
    4650:	7ff00513          	li	a0,2047
    4654:	00300693          	li	a3,3
    4658:	eadff06f          	j	4504 <__muldf3+0xb8>
    465c:	00000713          	li	a4,0
    4660:	00000513          	li	a0,0
    4664:	00100693          	li	a3,1
    4668:	e9dff06f          	j	4504 <__muldf3+0xb8>
    466c:	00000713          	li	a4,0
    4670:	7ff00513          	li	a0,2047
    4674:	00200693          	li	a3,2
    4678:	e8dff06f          	j	4504 <__muldf3+0xb8>
  FP_MUL_D (R, A, B);
    467c:	000103b7          	lui	t2,0x10
    4680:	fff38313          	addi	t1,t2,-1 # ffff <__global_pointer$+0x90a7>
    4684:	0104df93          	srli	t6,s1,0x10
    4688:	01075293          	srli	t0,a4,0x10
    468c:	0064f4b3          	and	s1,s1,t1
    4690:	00677733          	and	a4,a4,t1
    4694:	00048513          	mv	a0,s1
    4698:	00070593          	mv	a1,a4
    469c:	561000ef          	jal	ra,53fc <__mulsi3>
    46a0:	00050e93          	mv	t4,a0
    46a4:	00028593          	mv	a1,t0
    46a8:	00048513          	mv	a0,s1
    46ac:	551000ef          	jal	ra,53fc <__mulsi3>
    46b0:	00050e13          	mv	t3,a0
    46b4:	00070593          	mv	a1,a4
    46b8:	000f8513          	mv	a0,t6
    46bc:	541000ef          	jal	ra,53fc <__mulsi3>
    46c0:	00050993          	mv	s3,a0
    46c4:	00028593          	mv	a1,t0
    46c8:	000f8513          	mv	a0,t6
    46cc:	531000ef          	jal	ra,53fc <__mulsi3>
    46d0:	010ed693          	srli	a3,t4,0x10
    46d4:	013e0e33          	add	t3,t3,s3
    46d8:	01c686b3          	add	a3,a3,t3
    46dc:	00050f13          	mv	t5,a0
    46e0:	0136f463          	bgeu	a3,s3,46e8 <__muldf3+0x29c>
    46e4:	00750f33          	add	t5,a0,t2
    46e8:	0066fe33          	and	t3,a3,t1
    46ec:	006efeb3          	and	t4,t4,t1
    46f0:	0107d993          	srli	s3,a5,0x10
    46f4:	010e1e13          	slli	t3,t3,0x10
    46f8:	0067f7b3          	and	a5,a5,t1
    46fc:	0106d393          	srli	t2,a3,0x10
    4700:	01de0e33          	add	t3,t3,t4
    4704:	00048513          	mv	a0,s1
    4708:	00078593          	mv	a1,a5
    470c:	4f1000ef          	jal	ra,53fc <__mulsi3>
    4710:	00050e93          	mv	t4,a0
    4714:	00098593          	mv	a1,s3
    4718:	00048513          	mv	a0,s1
    471c:	4e1000ef          	jal	ra,53fc <__mulsi3>
    4720:	00050313          	mv	t1,a0
    4724:	00078593          	mv	a1,a5
    4728:	000f8513          	mv	a0,t6
    472c:	4d1000ef          	jal	ra,53fc <__mulsi3>
    4730:	00050493          	mv	s1,a0
    4734:	00098593          	mv	a1,s3
    4738:	000f8513          	mv	a0,t6
    473c:	4c1000ef          	jal	ra,53fc <__mulsi3>
    4740:	010ed613          	srli	a2,t4,0x10
    4744:	00930333          	add	t1,t1,s1
    4748:	00660633          	add	a2,a2,t1
    474c:	00967663          	bgeu	a2,s1,4758 <__muldf3+0x30c>
    4750:	000106b7          	lui	a3,0x10
    4754:	00d50533          	add	a0,a0,a3
    4758:	01065693          	srli	a3,a2,0x10
    475c:	00010ab7          	lui	s5,0x10
    4760:	00a68fb3          	add	t6,a3,a0
    4764:	fffa8693          	addi	a3,s5,-1 # ffff <__global_pointer$+0x90a7>
    4768:	00d67633          	and	a2,a2,a3
    476c:	01061613          	slli	a2,a2,0x10
    4770:	00defeb3          	and	t4,t4,a3
    4774:	01d60eb3          	add	t4,a2,t4
    4778:	01045493          	srli	s1,s0,0x10
    477c:	00d47433          	and	s0,s0,a3
    4780:	01d383b3          	add	t2,t2,t4
    4784:	00040513          	mv	a0,s0
    4788:	00070593          	mv	a1,a4
    478c:	471000ef          	jal	ra,53fc <__mulsi3>
    4790:	00050a13          	mv	s4,a0
    4794:	00028593          	mv	a1,t0
    4798:	00040513          	mv	a0,s0
    479c:	461000ef          	jal	ra,53fc <__mulsi3>
    47a0:	00050313          	mv	t1,a0
    47a4:	00070593          	mv	a1,a4
    47a8:	00048513          	mv	a0,s1
    47ac:	451000ef          	jal	ra,53fc <__mulsi3>
    47b0:	00050b13          	mv	s6,a0
    47b4:	00028593          	mv	a1,t0
    47b8:	00048513          	mv	a0,s1
    47bc:	441000ef          	jal	ra,53fc <__mulsi3>
    47c0:	010a5713          	srli	a4,s4,0x10
    47c4:	01630333          	add	t1,t1,s6
    47c8:	00670733          	add	a4,a4,t1
    47cc:	01677463          	bgeu	a4,s6,47d4 <__muldf3+0x388>
    47d0:	01550533          	add	a0,a0,s5
    47d4:	00010ab7          	lui	s5,0x10
    47d8:	fffa8693          	addi	a3,s5,-1 # ffff <__global_pointer$+0x90a7>
    47dc:	00d77333          	and	t1,a4,a3
    47e0:	01075593          	srli	a1,a4,0x10
    47e4:	00da7a33          	and	s4,s4,a3
    47e8:	01031313          	slli	t1,t1,0x10
    47ec:	00a582b3          	add	t0,a1,a0
    47f0:	01430333          	add	t1,t1,s4
    47f4:	00040513          	mv	a0,s0
    47f8:	00078593          	mv	a1,a5
    47fc:	401000ef          	jal	ra,53fc <__mulsi3>
    4800:	00050713          	mv	a4,a0
    4804:	00098593          	mv	a1,s3
    4808:	00040513          	mv	a0,s0
    480c:	3f1000ef          	jal	ra,53fc <__mulsi3>
    4810:	00050413          	mv	s0,a0
    4814:	00078593          	mv	a1,a5
    4818:	00048513          	mv	a0,s1
    481c:	3e1000ef          	jal	ra,53fc <__mulsi3>
    4820:	00050a13          	mv	s4,a0
    4824:	00098593          	mv	a1,s3
    4828:	00048513          	mv	a0,s1
    482c:	3d1000ef          	jal	ra,53fc <__mulsi3>
    4830:	01075613          	srli	a2,a4,0x10
    4834:	01440433          	add	s0,s0,s4
    4838:	00860633          	add	a2,a2,s0
    483c:	01467463          	bgeu	a2,s4,4844 <__muldf3+0x3f8>
    4840:	01550533          	add	a0,a0,s5
    4844:	000107b7          	lui	a5,0x10
    4848:	fff78793          	addi	a5,a5,-1 # ffff <__global_pointer$+0x90a7>
    484c:	00f676b3          	and	a3,a2,a5
    4850:	00f77733          	and	a4,a4,a5
    4854:	01069693          	slli	a3,a3,0x10
    4858:	01e383b3          	add	t2,t2,t5
    485c:	00e686b3          	add	a3,a3,a4
    4860:	01d3beb3          	sltu	t4,t2,t4
    4864:	01f686b3          	add	a3,a3,t6
    4868:	01d687b3          	add	a5,a3,t4
    486c:	006383b3          	add	t2,t2,t1
    4870:	005785b3          	add	a1,a5,t0
    4874:	0063b333          	sltu	t1,t2,t1
    4878:	00658f33          	add	t5,a1,t1
    487c:	01f6b6b3          	sltu	a3,a3,t6
    4880:	01d7b7b3          	sltu	a5,a5,t4
    4884:	00f6e7b3          	or	a5,a3,a5
    4888:	01065613          	srli	a2,a2,0x10
    488c:	0055b5b3          	sltu	a1,a1,t0
    4890:	006f3333          	sltu	t1,t5,t1
    4894:	00c787b3          	add	a5,a5,a2
    4898:	0065e333          	or	t1,a1,t1
    489c:	006787b3          	add	a5,a5,t1
    48a0:	00939713          	slli	a4,t2,0x9
    48a4:	00a787b3          	add	a5,a5,a0
    48a8:	01c76733          	or	a4,a4,t3
    48ac:	00979793          	slli	a5,a5,0x9
    48b0:	017f5513          	srli	a0,t5,0x17
    48b4:	00e03733          	snez	a4,a4
    48b8:	0173de13          	srli	t3,t2,0x17
    48bc:	009f1693          	slli	a3,t5,0x9
    48c0:	00a7e7b3          	or	a5,a5,a0
    48c4:	01c76733          	or	a4,a4,t3
    48c8:	00d76733          	or	a4,a4,a3
    48cc:	00779693          	slli	a3,a5,0x7
    48d0:	1006d263          	bgez	a3,49d4 <__muldf3+0x588>
    48d4:	00175693          	srli	a3,a4,0x1
    48d8:	00177713          	andi	a4,a4,1
    48dc:	00e6e733          	or	a4,a3,a4
    48e0:	01f79693          	slli	a3,a5,0x1f
    48e4:	00d76733          	or	a4,a4,a3
    48e8:	0017d793          	srli	a5,a5,0x1
  FP_PACK_D (r, R);
    48ec:	3ff88613          	addi	a2,a7,1023 # 403ff <__global_pointer$+0x394a7>
    48f0:	0ec05663          	blez	a2,49dc <__muldf3+0x590>
    48f4:	00777693          	andi	a3,a4,7
    48f8:	02068063          	beqz	a3,4918 <__muldf3+0x4cc>
    48fc:	00f77693          	andi	a3,a4,15
    4900:	00400593          	li	a1,4
    4904:	00b68a63          	beq	a3,a1,4918 <__muldf3+0x4cc>
    4908:	00470693          	addi	a3,a4,4
    490c:	00e6b733          	sltu	a4,a3,a4
    4910:	00e787b3          	add	a5,a5,a4
    4914:	00068713          	mv	a4,a3
    4918:	00779693          	slli	a3,a5,0x7
    491c:	0006da63          	bgez	a3,4930 <__muldf3+0x4e4>
    4920:	ff0006b7          	lui	a3,0xff000
    4924:	fff68693          	addi	a3,a3,-1 # feffffff <__global_pointer$+0xfeff90a7>
    4928:	00d7f7b3          	and	a5,a5,a3
    492c:	40088613          	addi	a2,a7,1024
    4930:	7fe00693          	li	a3,2046
    4934:	16c6c663          	blt	a3,a2,4aa0 <__muldf3+0x654>
    4938:	00375693          	srli	a3,a4,0x3
    493c:	01d79713          	slli	a4,a5,0x1d
    4940:	00d76733          	or	a4,a4,a3
    4944:	0037d793          	srli	a5,a5,0x3
    4948:	00c79793          	slli	a5,a5,0xc
    494c:	7ff67693          	andi	a3,a2,2047
    4950:	01469693          	slli	a3,a3,0x14
  FP_HANDLE_EXCEPTIONS;

  return r;
}
    4954:	02c12083          	lw	ra,44(sp)
    4958:	02812403          	lw	s0,40(sp)
  FP_PACK_D (r, R);
    495c:	00c7d793          	srli	a5,a5,0xc
    4960:	01f81813          	slli	a6,a6,0x1f
    4964:	00d7e7b3          	or	a5,a5,a3
    4968:	0107e6b3          	or	a3,a5,a6
}
    496c:	02412483          	lw	s1,36(sp)
    4970:	02012903          	lw	s2,32(sp)
    4974:	01c12983          	lw	s3,28(sp)
    4978:	01812a03          	lw	s4,24(sp)
    497c:	01412a83          	lw	s5,20(sp)
    4980:	01012b03          	lw	s6,16(sp)
    4984:	00c12b83          	lw	s7,12(sp)
    4988:	00070513          	mv	a0,a4
    498c:	00068593          	mv	a1,a3
    4990:	03010113          	addi	sp,sp,48
    4994:	00008067          	ret
  FP_UNPACK_D (A, a);
    4998:	00098813          	mv	a6,s3
  FP_MUL_D (R, A, B);
    499c:	00040793          	mv	a5,s0
    49a0:	00048713          	mv	a4,s1
    49a4:	000b0693          	mv	a3,s6
  FP_PACK_D (r, R);
    49a8:	00200613          	li	a2,2
    49ac:	0ec68a63          	beq	a3,a2,4aa0 <__muldf3+0x654>
    49b0:	00300613          	li	a2,3
    49b4:	0cc68c63          	beq	a3,a2,4a8c <__muldf3+0x640>
    49b8:	00100613          	li	a2,1
    49bc:	f2c698e3          	bne	a3,a2,48ec <__muldf3+0x4a0>
    49c0:	00000793          	li	a5,0
    49c4:	00000713          	li	a4,0
    49c8:	0880006f          	j	4a50 <__muldf3+0x604>
  FP_UNPACK_D (B, b);
    49cc:	000a0813          	mv	a6,s4
  FP_MUL_D (R, A, B);
    49d0:	fd9ff06f          	j	49a8 <__muldf3+0x55c>
    49d4:	00090893          	mv	a7,s2
    49d8:	f15ff06f          	j	48ec <__muldf3+0x4a0>
  FP_PACK_D (r, R);
    49dc:	00100593          	li	a1,1
    49e0:	40c585b3          	sub	a1,a1,a2
    49e4:	03800693          	li	a3,56
    49e8:	fcb6cce3          	blt	a3,a1,49c0 <__muldf3+0x574>
    49ec:	01f00693          	li	a3,31
    49f0:	06b6c463          	blt	a3,a1,4a58 <__muldf3+0x60c>
    49f4:	41e88893          	addi	a7,a7,1054
    49f8:	011796b3          	sll	a3,a5,a7
    49fc:	00b75633          	srl	a2,a4,a1
    4a00:	01171733          	sll	a4,a4,a7
    4a04:	00c6e6b3          	or	a3,a3,a2
    4a08:	00e03733          	snez	a4,a4
    4a0c:	00e6e733          	or	a4,a3,a4
    4a10:	00b7d7b3          	srl	a5,a5,a1
    4a14:	00777693          	andi	a3,a4,7
    4a18:	02068063          	beqz	a3,4a38 <__muldf3+0x5ec>
    4a1c:	00f77693          	andi	a3,a4,15
    4a20:	00400613          	li	a2,4
    4a24:	00c68a63          	beq	a3,a2,4a38 <__muldf3+0x5ec>
    4a28:	00470693          	addi	a3,a4,4
    4a2c:	00e6b733          	sltu	a4,a3,a4
    4a30:	00e787b3          	add	a5,a5,a4
    4a34:	00068713          	mv	a4,a3
    4a38:	00879693          	slli	a3,a5,0x8
    4a3c:	0606ca63          	bltz	a3,4ab0 <__muldf3+0x664>
    4a40:	01d79693          	slli	a3,a5,0x1d
    4a44:	00375713          	srli	a4,a4,0x3
    4a48:	00e6e733          	or	a4,a3,a4
    4a4c:	0037d793          	srli	a5,a5,0x3
    4a50:	00000613          	li	a2,0
    4a54:	ef5ff06f          	j	4948 <__muldf3+0x4fc>
    4a58:	fe100693          	li	a3,-31
    4a5c:	40c686b3          	sub	a3,a3,a2
    4a60:	02000513          	li	a0,32
    4a64:	00d7d6b3          	srl	a3,a5,a3
    4a68:	00000613          	li	a2,0
    4a6c:	00a58663          	beq	a1,a0,4a78 <__muldf3+0x62c>
    4a70:	43e88893          	addi	a7,a7,1086
    4a74:	01179633          	sll	a2,a5,a7
    4a78:	00e66733          	or	a4,a2,a4
    4a7c:	00e03733          	snez	a4,a4
    4a80:	00e6e733          	or	a4,a3,a4
    4a84:	00000793          	li	a5,0
    4a88:	f8dff06f          	j	4a14 <__muldf3+0x5c8>
    4a8c:	000807b7          	lui	a5,0x80
    4a90:	00000713          	li	a4,0
    4a94:	7ff00613          	li	a2,2047
    4a98:	00000813          	li	a6,0
    4a9c:	eadff06f          	j	4948 <__muldf3+0x4fc>
    4aa0:	00000793          	li	a5,0
    4aa4:	00000713          	li	a4,0
    4aa8:	7ff00613          	li	a2,2047
    4aac:	e9dff06f          	j	4948 <__muldf3+0x4fc>
    4ab0:	00000793          	li	a5,0
    4ab4:	00000713          	li	a4,0
    4ab8:	00100613          	li	a2,1
    4abc:	e8dff06f          	j	4948 <__muldf3+0x4fc>

00004ac0 <__subdf3>:
  FP_DECL_D (B);
  FP_DECL_D (R);
  DFtype r;

  FP_INIT_ROUNDMODE;
  FP_UNPACK_SEMIRAW_D (A, a);
    4ac0:	00100837          	lui	a6,0x100
    4ac4:	fff80813          	addi	a6,a6,-1 # fffff <__global_pointer$+0xf90a7>
    4ac8:	00b878b3          	and	a7,a6,a1
    4acc:	00389893          	slli	a7,a7,0x3
    4ad0:	01d55793          	srli	a5,a0,0x1d
{
    4ad4:	fe010113          	addi	sp,sp,-32
  FP_UNPACK_SEMIRAW_D (A, a);
    4ad8:	0145d713          	srli	a4,a1,0x14
  FP_UNPACK_SEMIRAW_D (B, b);
    4adc:	00d87833          	and	a6,a6,a3
  FP_UNPACK_SEMIRAW_D (A, a);
    4ae0:	0117e7b3          	or	a5,a5,a7
  FP_UNPACK_SEMIRAW_D (B, b);
    4ae4:	0146d893          	srli	a7,a3,0x14
{
    4ae8:	00912a23          	sw	s1,20(sp)
    4aec:	01212823          	sw	s2,16(sp)
  FP_UNPACK_SEMIRAW_D (A, a);
    4af0:	7ff77493          	andi	s1,a4,2047
    4af4:	01f5d913          	srli	s2,a1,0x1f
  FP_UNPACK_SEMIRAW_D (B, b);
    4af8:	01d65713          	srli	a4,a2,0x1d
    4afc:	00381813          	slli	a6,a6,0x3
{
    4b00:	00112e23          	sw	ra,28(sp)
    4b04:	00812c23          	sw	s0,24(sp)
    4b08:	01312623          	sw	s3,12(sp)
  FP_UNPACK_SEMIRAW_D (B, b);
    4b0c:	7ff8f893          	andi	a7,a7,2047
  FP_SUB_D (R, A, B);
    4b10:	7ff00593          	li	a1,2047
  FP_UNPACK_SEMIRAW_D (A, a);
    4b14:	00351513          	slli	a0,a0,0x3
  FP_UNPACK_SEMIRAW_D (B, b);
    4b18:	01f6d693          	srli	a3,a3,0x1f
    4b1c:	01076733          	or	a4,a4,a6
    4b20:	00361613          	slli	a2,a2,0x3
  FP_SUB_D (R, A, B);
    4b24:	00b89663          	bne	a7,a1,4b30 <__subdf3+0x70>
    4b28:	00c765b3          	or	a1,a4,a2
    4b2c:	00059463          	bnez	a1,4b34 <__subdf3+0x74>
    4b30:	0016c693          	xori	a3,a3,1
    4b34:	41148833          	sub	a6,s1,a7
    4b38:	2d269063          	bne	a3,s2,4df8 <__subdf3+0x338>
    4b3c:	13005c63          	blez	a6,4c74 <__subdf3+0x1b4>
    4b40:	06089063          	bnez	a7,4ba0 <__subdf3+0xe0>
    4b44:	00c766b3          	or	a3,a4,a2
    4b48:	02068863          	beqz	a3,4b78 <__subdf3+0xb8>
    4b4c:	fff48813          	addi	a6,s1,-1
    4b50:	02081063          	bnez	a6,4b70 <__subdf3+0xb0>
    4b54:	00c50633          	add	a2,a0,a2
    4b58:	00a63533          	sltu	a0,a2,a0
    4b5c:	00e787b3          	add	a5,a5,a4
    4b60:	00a787b3          	add	a5,a5,a0
    4b64:	00060513          	mv	a0,a2
  FP_UNPACK_SEMIRAW_D (B, b);
    4b68:	00100493          	li	s1,1
  FP_SUB_D (R, A, B);
    4b6c:	08c0006f          	j	4bf8 <__subdf3+0x138>
    4b70:	7ff00693          	li	a3,2047
    4b74:	02d49e63          	bne	s1,a3,4bb0 <__subdf3+0xf0>
  FP_PACK_SEMIRAW_D (r, R);
    4b78:	00757713          	andi	a4,a0,7
    4b7c:	62070c63          	beqz	a4,51b4 <__subdf3+0x6f4>
    4b80:	00f57713          	andi	a4,a0,15
    4b84:	00400693          	li	a3,4
    4b88:	62d70663          	beq	a4,a3,51b4 <__subdf3+0x6f4>
    4b8c:	00450693          	addi	a3,a0,4
    4b90:	00a6b533          	sltu	a0,a3,a0
    4b94:	00a787b3          	add	a5,a5,a0
    4b98:	00068513          	mv	a0,a3
    4b9c:	6180006f          	j	51b4 <__subdf3+0x6f4>
  FP_SUB_D (R, A, B);
    4ba0:	7ff00693          	li	a3,2047
    4ba4:	fcd48ae3          	beq	s1,a3,4b78 <__subdf3+0xb8>
    4ba8:	008006b7          	lui	a3,0x800
    4bac:	00d76733          	or	a4,a4,a3
    4bb0:	03800693          	li	a3,56
    4bb4:	0b06ca63          	blt	a3,a6,4c68 <__subdf3+0x1a8>
    4bb8:	01f00693          	li	a3,31
    4bbc:	0706cc63          	blt	a3,a6,4c34 <__subdf3+0x174>
    4bc0:	02000593          	li	a1,32
    4bc4:	410585b3          	sub	a1,a1,a6
    4bc8:	00b716b3          	sll	a3,a4,a1
    4bcc:	010658b3          	srl	a7,a2,a6
    4bd0:	00b61633          	sll	a2,a2,a1
    4bd4:	0116e6b3          	or	a3,a3,a7
    4bd8:	00c03633          	snez	a2,a2
    4bdc:	00c6e633          	or	a2,a3,a2
    4be0:	01075733          	srl	a4,a4,a6
    4be4:	00a60633          	add	a2,a2,a0
    4be8:	00f70733          	add	a4,a4,a5
    4bec:	00a637b3          	sltu	a5,a2,a0
    4bf0:	00f707b3          	add	a5,a4,a5
    4bf4:	00060513          	mv	a0,a2
    4bf8:	00879713          	slli	a4,a5,0x8
    4bfc:	f6075ee3          	bgez	a4,4b78 <__subdf3+0xb8>
    4c00:	00148493          	addi	s1,s1,1
    4c04:	7ff00713          	li	a4,2047
    4c08:	5ae48263          	beq	s1,a4,51ac <__subdf3+0x6ec>
    4c0c:	ff8006b7          	lui	a3,0xff800
    4c10:	fff68693          	addi	a3,a3,-1 # ff7fffff <__global_pointer$+0xff7f90a7>
    4c14:	00d7f6b3          	and	a3,a5,a3
    4c18:	00155593          	srli	a1,a0,0x1
    4c1c:	00157513          	andi	a0,a0,1
    4c20:	01f69793          	slli	a5,a3,0x1f
    4c24:	00a5e533          	or	a0,a1,a0
    4c28:	00a7e533          	or	a0,a5,a0
    4c2c:	0016d793          	srli	a5,a3,0x1
    4c30:	f49ff06f          	j	4b78 <__subdf3+0xb8>
    4c34:	fe080693          	addi	a3,a6,-32
    4c38:	02000893          	li	a7,32
    4c3c:	00d756b3          	srl	a3,a4,a3
    4c40:	00000593          	li	a1,0
    4c44:	01180863          	beq	a6,a7,4c54 <__subdf3+0x194>
    4c48:	04000593          	li	a1,64
    4c4c:	41058833          	sub	a6,a1,a6
    4c50:	010715b3          	sll	a1,a4,a6
    4c54:	00c5e633          	or	a2,a1,a2
    4c58:	00c03633          	snez	a2,a2
    4c5c:	00c6e633          	or	a2,a3,a2
    4c60:	00000713          	li	a4,0
    4c64:	f81ff06f          	j	4be4 <__subdf3+0x124>
    4c68:	00c76633          	or	a2,a4,a2
    4c6c:	00c03633          	snez	a2,a2
    4c70:	ff1ff06f          	j	4c60 <__subdf3+0x1a0>
    4c74:	0e080263          	beqz	a6,4d58 <__subdf3+0x298>
    4c78:	409885b3          	sub	a1,a7,s1
    4c7c:	02049e63          	bnez	s1,4cb8 <__subdf3+0x1f8>
    4c80:	00a7e6b3          	or	a3,a5,a0
    4c84:	50068463          	beqz	a3,518c <__subdf3+0x6cc>
    4c88:	fff58693          	addi	a3,a1,-1
    4c8c:	00069c63          	bnez	a3,4ca4 <__subdf3+0x1e4>
    4c90:	00c50533          	add	a0,a0,a2
    4c94:	00e787b3          	add	a5,a5,a4
    4c98:	00c53633          	sltu	a2,a0,a2
    4c9c:	00c787b3          	add	a5,a5,a2
    4ca0:	ec9ff06f          	j	4b68 <__subdf3+0xa8>
    4ca4:	7ff00813          	li	a6,2047
    4ca8:	03059263          	bne	a1,a6,4ccc <__subdf3+0x20c>
  FP_UNPACK_SEMIRAW_D (B, b);
    4cac:	00070793          	mv	a5,a4
    4cb0:	00060513          	mv	a0,a2
    4cb4:	3b00006f          	j	5064 <__subdf3+0x5a4>
  FP_SUB_D (R, A, B);
    4cb8:	7ff00693          	li	a3,2047
    4cbc:	fed888e3          	beq	a7,a3,4cac <__subdf3+0x1ec>
    4cc0:	008006b7          	lui	a3,0x800
    4cc4:	00d7e7b3          	or	a5,a5,a3
    4cc8:	00058693          	mv	a3,a1
    4ccc:	03800593          	li	a1,56
    4cd0:	06d5ce63          	blt	a1,a3,4d4c <__subdf3+0x28c>
    4cd4:	01f00593          	li	a1,31
    4cd8:	04d5c063          	blt	a1,a3,4d18 <__subdf3+0x258>
    4cdc:	02000813          	li	a6,32
    4ce0:	40d80833          	sub	a6,a6,a3
    4ce4:	00d55333          	srl	t1,a0,a3
    4ce8:	010795b3          	sll	a1,a5,a6
    4cec:	01051533          	sll	a0,a0,a6
    4cf0:	0065e5b3          	or	a1,a1,t1
    4cf4:	00a03533          	snez	a0,a0
    4cf8:	00a5e533          	or	a0,a1,a0
    4cfc:	00d7d6b3          	srl	a3,a5,a3
    4d00:	00c50533          	add	a0,a0,a2
    4d04:	00e687b3          	add	a5,a3,a4
    4d08:	00c53633          	sltu	a2,a0,a2
    4d0c:	00c787b3          	add	a5,a5,a2
  FP_UNPACK_SEMIRAW_D (B, b);
    4d10:	00088493          	mv	s1,a7
    4d14:	ee5ff06f          	j	4bf8 <__subdf3+0x138>
  FP_SUB_D (R, A, B);
    4d18:	fe068593          	addi	a1,a3,-32 # 7fffe0 <__global_pointer$+0x7f9088>
    4d1c:	02000313          	li	t1,32
    4d20:	00b7d5b3          	srl	a1,a5,a1
    4d24:	00000813          	li	a6,0
    4d28:	00668863          	beq	a3,t1,4d38 <__subdf3+0x278>
    4d2c:	04000813          	li	a6,64
    4d30:	40d806b3          	sub	a3,a6,a3
    4d34:	00d79833          	sll	a6,a5,a3
    4d38:	00a86533          	or	a0,a6,a0
    4d3c:	00a03533          	snez	a0,a0
    4d40:	00a5e533          	or	a0,a1,a0
    4d44:	00000693          	li	a3,0
    4d48:	fb9ff06f          	j	4d00 <__subdf3+0x240>
    4d4c:	00a7e533          	or	a0,a5,a0
    4d50:	00a03533          	snez	a0,a0
    4d54:	ff1ff06f          	j	4d44 <__subdf3+0x284>
    4d58:	00148693          	addi	a3,s1,1
    4d5c:	7fe6f593          	andi	a1,a3,2046
    4d60:	06059463          	bnez	a1,4dc8 <__subdf3+0x308>
    4d64:	00a7e6b3          	or	a3,a5,a0
    4d68:	04049063          	bnez	s1,4da8 <__subdf3+0x2e8>
    4d6c:	42068863          	beqz	a3,519c <__subdf3+0x6dc>
    4d70:	00c766b3          	or	a3,a4,a2
    4d74:	e00682e3          	beqz	a3,4b78 <__subdf3+0xb8>
    4d78:	00c50633          	add	a2,a0,a2
    4d7c:	00e787b3          	add	a5,a5,a4
    4d80:	00a63533          	sltu	a0,a2,a0
    4d84:	00a787b3          	add	a5,a5,a0
    4d88:	00879713          	slli	a4,a5,0x8
    4d8c:	00060513          	mv	a0,a2
    4d90:	de0754e3          	bgez	a4,4b78 <__subdf3+0xb8>
    4d94:	ff800737          	lui	a4,0xff800
    4d98:	fff70713          	addi	a4,a4,-1 # ff7fffff <__global_pointer$+0xff7f90a7>
    4d9c:	00e7f7b3          	and	a5,a5,a4
    4da0:	00100493          	li	s1,1
    4da4:	dd5ff06f          	j	4b78 <__subdf3+0xb8>
    4da8:	f00682e3          	beqz	a3,4cac <__subdf3+0x1ec>
    4dac:	00c76633          	or	a2,a4,a2
    4db0:	2a060a63          	beqz	a2,5064 <__subdf3+0x5a4>
    4db4:	00000913          	li	s2,0
    4db8:	004007b7          	lui	a5,0x400
    4dbc:	00000513          	li	a0,0
    4dc0:	7ff00493          	li	s1,2047
    4dc4:	3f00006f          	j	51b4 <__subdf3+0x6f4>
    4dc8:	7ff00593          	li	a1,2047
    4dcc:	3cb68e63          	beq	a3,a1,51a8 <__subdf3+0x6e8>
    4dd0:	00c50633          	add	a2,a0,a2
    4dd4:	00e78733          	add	a4,a5,a4
    4dd8:	00a637b3          	sltu	a5,a2,a0
    4ddc:	00f70733          	add	a4,a4,a5
    4de0:	01f71513          	slli	a0,a4,0x1f
    4de4:	00165613          	srli	a2,a2,0x1
    4de8:	00c56533          	or	a0,a0,a2
    4dec:	00175793          	srli	a5,a4,0x1
    4df0:	00068493          	mv	s1,a3
    4df4:	d85ff06f          	j	4b78 <__subdf3+0xb8>
    4df8:	0f005a63          	blez	a6,4eec <__subdf3+0x42c>
    4dfc:	08089e63          	bnez	a7,4e98 <__subdf3+0x3d8>
    4e00:	00c766b3          	or	a3,a4,a2
    4e04:	d6068ae3          	beqz	a3,4b78 <__subdf3+0xb8>
    4e08:	fff48813          	addi	a6,s1,-1
    4e0c:	02081063          	bnez	a6,4e2c <__subdf3+0x36c>
    4e10:	40c50633          	sub	a2,a0,a2
    4e14:	00c53533          	sltu	a0,a0,a2
    4e18:	40e787b3          	sub	a5,a5,a4
    4e1c:	40a787b3          	sub	a5,a5,a0
    4e20:	00060513          	mv	a0,a2
  FP_UNPACK_SEMIRAW_D (B, b);
    4e24:	00100493          	li	s1,1
  FP_SUB_D (R, A, B);
    4e28:	0540006f          	j	4e7c <__subdf3+0x3bc>
    4e2c:	7ff00693          	li	a3,2047
    4e30:	d4d484e3          	beq	s1,a3,4b78 <__subdf3+0xb8>
    4e34:	03800693          	li	a3,56
    4e38:	0b06c463          	blt	a3,a6,4ee0 <__subdf3+0x420>
    4e3c:	01f00693          	li	a3,31
    4e40:	0706c663          	blt	a3,a6,4eac <__subdf3+0x3ec>
    4e44:	02000593          	li	a1,32
    4e48:	410585b3          	sub	a1,a1,a6
    4e4c:	00b716b3          	sll	a3,a4,a1
    4e50:	010658b3          	srl	a7,a2,a6
    4e54:	00b61633          	sll	a2,a2,a1
    4e58:	0116e6b3          	or	a3,a3,a7
    4e5c:	00c03633          	snez	a2,a2
    4e60:	00c6e633          	or	a2,a3,a2
    4e64:	01075733          	srl	a4,a4,a6
    4e68:	40c50633          	sub	a2,a0,a2
    4e6c:	40e78733          	sub	a4,a5,a4
    4e70:	00c537b3          	sltu	a5,a0,a2
    4e74:	40f707b3          	sub	a5,a4,a5
    4e78:	00060513          	mv	a0,a2
    4e7c:	00879713          	slli	a4,a5,0x8
    4e80:	ce075ce3          	bgez	a4,4b78 <__subdf3+0xb8>
    4e84:	00800437          	lui	s0,0x800
    4e88:	fff40413          	addi	s0,s0,-1 # 7fffff <__global_pointer$+0x7f90a7>
    4e8c:	0087f433          	and	s0,a5,s0
    4e90:	00050993          	mv	s3,a0
    4e94:	20c0006f          	j	50a0 <__subdf3+0x5e0>
    4e98:	7ff00693          	li	a3,2047
    4e9c:	ccd48ee3          	beq	s1,a3,4b78 <__subdf3+0xb8>
    4ea0:	008006b7          	lui	a3,0x800
    4ea4:	00d76733          	or	a4,a4,a3
    4ea8:	f8dff06f          	j	4e34 <__subdf3+0x374>
    4eac:	fe080693          	addi	a3,a6,-32
    4eb0:	02000893          	li	a7,32
    4eb4:	00d756b3          	srl	a3,a4,a3
    4eb8:	00000593          	li	a1,0
    4ebc:	01180863          	beq	a6,a7,4ecc <__subdf3+0x40c>
    4ec0:	04000593          	li	a1,64
    4ec4:	41058833          	sub	a6,a1,a6
    4ec8:	010715b3          	sll	a1,a4,a6
    4ecc:	00c5e633          	or	a2,a1,a2
    4ed0:	00c03633          	snez	a2,a2
    4ed4:	00c6e633          	or	a2,a3,a2
    4ed8:	00000713          	li	a4,0
    4edc:	f8dff06f          	j	4e68 <__subdf3+0x3a8>
    4ee0:	00c76633          	or	a2,a4,a2
    4ee4:	00c03633          	snez	a2,a2
    4ee8:	ff1ff06f          	j	4ed8 <__subdf3+0x418>
    4eec:	0e080863          	beqz	a6,4fdc <__subdf3+0x51c>
    4ef0:	40988833          	sub	a6,a7,s1
    4ef4:	04049263          	bnez	s1,4f38 <__subdf3+0x478>
    4ef8:	00a7e5b3          	or	a1,a5,a0
    4efc:	34058263          	beqz	a1,5240 <__subdf3+0x780>
    4f00:	fff80593          	addi	a1,a6,-1
    4f04:	00059e63          	bnez	a1,4f20 <__subdf3+0x460>
    4f08:	40a60533          	sub	a0,a2,a0
    4f0c:	40f707b3          	sub	a5,a4,a5
    4f10:	00a63633          	sltu	a2,a2,a0
    4f14:	40c787b3          	sub	a5,a5,a2
    4f18:	00068913          	mv	s2,a3
    4f1c:	f09ff06f          	j	4e24 <__subdf3+0x364>
    4f20:	7ff00313          	li	t1,2047
    4f24:	02681463          	bne	a6,t1,4f4c <__subdf3+0x48c>
  FP_UNPACK_SEMIRAW_D (B, b);
    4f28:	00070793          	mv	a5,a4
    4f2c:	00060513          	mv	a0,a2
  FP_SUB_D (R, A, B);
    4f30:	7ff00493          	li	s1,2047
    4f34:	0d00006f          	j	5004 <__subdf3+0x544>
    4f38:	7ff00593          	li	a1,2047
    4f3c:	feb886e3          	beq	a7,a1,4f28 <__subdf3+0x468>
    4f40:	008005b7          	lui	a1,0x800
    4f44:	00b7e7b3          	or	a5,a5,a1
    4f48:	00080593          	mv	a1,a6
    4f4c:	03800813          	li	a6,56
    4f50:	08b84063          	blt	a6,a1,4fd0 <__subdf3+0x510>
    4f54:	01f00813          	li	a6,31
    4f58:	04b84263          	blt	a6,a1,4f9c <__subdf3+0x4dc>
    4f5c:	02000313          	li	t1,32
    4f60:	40b30333          	sub	t1,t1,a1
    4f64:	00b55e33          	srl	t3,a0,a1
    4f68:	00679833          	sll	a6,a5,t1
    4f6c:	00651533          	sll	a0,a0,t1
    4f70:	01c86833          	or	a6,a6,t3
    4f74:	00a03533          	snez	a0,a0
    4f78:	00a86533          	or	a0,a6,a0
    4f7c:	00b7d5b3          	srl	a1,a5,a1
    4f80:	40a60533          	sub	a0,a2,a0
    4f84:	40b707b3          	sub	a5,a4,a1
    4f88:	00a63633          	sltu	a2,a2,a0
    4f8c:	40c787b3          	sub	a5,a5,a2
  FP_UNPACK_SEMIRAW_D (B, b);
    4f90:	00088493          	mv	s1,a7
    4f94:	00068913          	mv	s2,a3
    4f98:	ee5ff06f          	j	4e7c <__subdf3+0x3bc>
  FP_SUB_D (R, A, B);
    4f9c:	fe058813          	addi	a6,a1,-32 # 7fffe0 <__global_pointer$+0x7f9088>
    4fa0:	02000e13          	li	t3,32
    4fa4:	0107d833          	srl	a6,a5,a6
    4fa8:	00000313          	li	t1,0
    4fac:	01c58863          	beq	a1,t3,4fbc <__subdf3+0x4fc>
    4fb0:	04000313          	li	t1,64
    4fb4:	40b305b3          	sub	a1,t1,a1
    4fb8:	00b79333          	sll	t1,a5,a1
    4fbc:	00a36533          	or	a0,t1,a0
    4fc0:	00a03533          	snez	a0,a0
    4fc4:	00a86533          	or	a0,a6,a0
    4fc8:	00000593          	li	a1,0
    4fcc:	fb5ff06f          	j	4f80 <__subdf3+0x4c0>
    4fd0:	00a7e533          	or	a0,a5,a0
    4fd4:	00a03533          	snez	a0,a0
    4fd8:	ff1ff06f          	j	4fc8 <__subdf3+0x508>
    4fdc:	00148593          	addi	a1,s1,1
    4fe0:	7fe5f593          	andi	a1,a1,2046
    4fe4:	08059863          	bnez	a1,5074 <__subdf3+0x5b4>
    4fe8:	00a7e833          	or	a6,a5,a0
    4fec:	00c765b3          	or	a1,a4,a2
    4ff0:	06049063          	bnez	s1,5050 <__subdf3+0x590>
    4ff4:	00081c63          	bnez	a6,500c <__subdf3+0x54c>
    4ff8:	24058c63          	beqz	a1,5250 <__subdf3+0x790>
  FP_UNPACK_SEMIRAW_D (B, b);
    4ffc:	00070793          	mv	a5,a4
    5000:	00060513          	mv	a0,a2
    5004:	00068913          	mv	s2,a3
    5008:	b71ff06f          	j	4b78 <__subdf3+0xb8>
  FP_SUB_D (R, A, B);
    500c:	b60586e3          	beqz	a1,4b78 <__subdf3+0xb8>
    5010:	40c50833          	sub	a6,a0,a2
    5014:	010538b3          	sltu	a7,a0,a6
    5018:	40e785b3          	sub	a1,a5,a4
    501c:	411585b3          	sub	a1,a1,a7
    5020:	00859893          	slli	a7,a1,0x8
    5024:	0008dc63          	bgez	a7,503c <__subdf3+0x57c>
    5028:	40a60533          	sub	a0,a2,a0
    502c:	40f707b3          	sub	a5,a4,a5
    5030:	00a63633          	sltu	a2,a2,a0
    5034:	40c787b3          	sub	a5,a5,a2
    5038:	fcdff06f          	j	5004 <__subdf3+0x544>
    503c:	00b86533          	or	a0,a6,a1
    5040:	22050063          	beqz	a0,5260 <__subdf3+0x7a0>
    5044:	00058793          	mv	a5,a1
    5048:	00080513          	mv	a0,a6
    504c:	b2dff06f          	j	4b78 <__subdf3+0xb8>
    5050:	00081e63          	bnez	a6,506c <__subdf3+0x5ac>
    5054:	20058a63          	beqz	a1,5268 <__subdf3+0x7a8>
  FP_UNPACK_SEMIRAW_D (B, b);
    5058:	00070793          	mv	a5,a4
    505c:	00060513          	mv	a0,a2
  FP_SUB_D (R, A, B);
    5060:	00068913          	mv	s2,a3
    5064:	7ff00493          	li	s1,2047
    5068:	b11ff06f          	j	4b78 <__subdf3+0xb8>
    506c:	fe058ce3          	beqz	a1,5064 <__subdf3+0x5a4>
    5070:	d45ff06f          	j	4db4 <__subdf3+0x2f4>
    5074:	40c509b3          	sub	s3,a0,a2
    5078:	013535b3          	sltu	a1,a0,s3
    507c:	40e78433          	sub	s0,a5,a4
    5080:	40b40433          	sub	s0,s0,a1
    5084:	00841593          	slli	a1,s0,0x8
    5088:	0805d463          	bgez	a1,5110 <__subdf3+0x650>
    508c:	40a609b3          	sub	s3,a2,a0
    5090:	40f707b3          	sub	a5,a4,a5
    5094:	01363633          	sltu	a2,a2,s3
    5098:	40c78433          	sub	s0,a5,a2
    509c:	00068913          	mv	s2,a3
    50a0:	08040263          	beqz	s0,5124 <__subdf3+0x664>
    50a4:	00040513          	mv	a0,s0
    50a8:	42c000ef          	jal	ra,54d4 <__clzsi2>
    50ac:	ff850713          	addi	a4,a0,-8
    50b0:	01f00793          	li	a5,31
    50b4:	08e7c063          	blt	a5,a4,5134 <__subdf3+0x674>
    50b8:	02000793          	li	a5,32
    50bc:	40e787b3          	sub	a5,a5,a4
    50c0:	00e41433          	sll	s0,s0,a4
    50c4:	00f9d7b3          	srl	a5,s3,a5
    50c8:	0087e433          	or	s0,a5,s0
    50cc:	00e99533          	sll	a0,s3,a4
    50d0:	0a974463          	blt	a4,s1,5178 <__subdf3+0x6b8>
    50d4:	40970733          	sub	a4,a4,s1
    50d8:	00170793          	addi	a5,a4,1
    50dc:	01f00693          	li	a3,31
    50e0:	06f6c263          	blt	a3,a5,5144 <__subdf3+0x684>
    50e4:	02000713          	li	a4,32
    50e8:	40f70733          	sub	a4,a4,a5
    50ec:	00f55633          	srl	a2,a0,a5
    50f0:	00e416b3          	sll	a3,s0,a4
    50f4:	00e51533          	sll	a0,a0,a4
    50f8:	00c6e6b3          	or	a3,a3,a2
    50fc:	00a03533          	snez	a0,a0
    5100:	00a6e533          	or	a0,a3,a0
    5104:	00f457b3          	srl	a5,s0,a5
    5108:	00000493          	li	s1,0
    510c:	a6dff06f          	j	4b78 <__subdf3+0xb8>
    5110:	0089e533          	or	a0,s3,s0
    5114:	f80516e3          	bnez	a0,50a0 <__subdf3+0x5e0>
    5118:	00000793          	li	a5,0
    511c:	00000493          	li	s1,0
    5120:	1380006f          	j	5258 <__subdf3+0x798>
    5124:	00098513          	mv	a0,s3
    5128:	3ac000ef          	jal	ra,54d4 <__clzsi2>
    512c:	02050513          	addi	a0,a0,32
    5130:	f7dff06f          	j	50ac <__subdf3+0x5ec>
    5134:	fd850413          	addi	s0,a0,-40
    5138:	00899433          	sll	s0,s3,s0
    513c:	00000513          	li	a0,0
    5140:	f91ff06f          	j	50d0 <__subdf3+0x610>
    5144:	fe170713          	addi	a4,a4,-31
    5148:	02000613          	li	a2,32
    514c:	00e45733          	srl	a4,s0,a4
    5150:	00000693          	li	a3,0
    5154:	00c78863          	beq	a5,a2,5164 <__subdf3+0x6a4>
    5158:	04000693          	li	a3,64
    515c:	40f686b3          	sub	a3,a3,a5
    5160:	00d416b3          	sll	a3,s0,a3
    5164:	00d56533          	or	a0,a0,a3
    5168:	00a03533          	snez	a0,a0
    516c:	00a76533          	or	a0,a4,a0
    5170:	00000793          	li	a5,0
    5174:	f95ff06f          	j	5108 <__subdf3+0x648>
    5178:	ff8007b7          	lui	a5,0xff800
    517c:	fff78793          	addi	a5,a5,-1 # ff7fffff <__global_pointer$+0xff7f90a7>
    5180:	40e484b3          	sub	s1,s1,a4
    5184:	00f477b3          	and	a5,s0,a5
    5188:	9f1ff06f          	j	4b78 <__subdf3+0xb8>
  FP_UNPACK_SEMIRAW_D (B, b);
    518c:	00070793          	mv	a5,a4
    5190:	00060513          	mv	a0,a2
  FP_SUB_D (R, A, B);
    5194:	00058493          	mv	s1,a1
    5198:	9e1ff06f          	j	4b78 <__subdf3+0xb8>
  FP_UNPACK_SEMIRAW_D (B, b);
    519c:	00070793          	mv	a5,a4
    51a0:	00060513          	mv	a0,a2
    51a4:	9d5ff06f          	j	4b78 <__subdf3+0xb8>
    51a8:	7ff00493          	li	s1,2047
    51ac:	00000793          	li	a5,0
    51b0:	00000513          	li	a0,0
  FP_PACK_SEMIRAW_D (r, R);
    51b4:	00879713          	slli	a4,a5,0x8
    51b8:	00075e63          	bgez	a4,51d4 <__subdf3+0x714>
    51bc:	00148493          	addi	s1,s1,1
    51c0:	7ff00713          	li	a4,2047
    51c4:	0ae48a63          	beq	s1,a4,5278 <__subdf3+0x7b8>
    51c8:	ff800737          	lui	a4,0xff800
    51cc:	fff70713          	addi	a4,a4,-1 # ff7fffff <__global_pointer$+0xff7f90a7>
    51d0:	00e7f7b3          	and	a5,a5,a4
    51d4:	01d79713          	slli	a4,a5,0x1d
    51d8:	00355513          	srli	a0,a0,0x3
    51dc:	00a76533          	or	a0,a4,a0
    51e0:	7ff00713          	li	a4,2047
    51e4:	0037d793          	srli	a5,a5,0x3
    51e8:	00e49e63          	bne	s1,a4,5204 <__subdf3+0x744>
    51ec:	00f56533          	or	a0,a0,a5
    51f0:	00000793          	li	a5,0
    51f4:	00050863          	beqz	a0,5204 <__subdf3+0x744>
    51f8:	000807b7          	lui	a5,0x80
    51fc:	00000513          	li	a0,0
    5200:	00000913          	li	s2,0
    5204:	7ff4f713          	andi	a4,s1,2047
    5208:	00c79793          	slli	a5,a5,0xc
    520c:	01471713          	slli	a4,a4,0x14
  FP_HANDLE_EXCEPTIONS;

  return r;
}
    5210:	01c12083          	lw	ra,28(sp)
    5214:	01812403          	lw	s0,24(sp)
  FP_PACK_SEMIRAW_D (r, R);
    5218:	00c7d793          	srli	a5,a5,0xc
    521c:	01f91593          	slli	a1,s2,0x1f
    5220:	00e7e7b3          	or	a5,a5,a4
    5224:	00b7e733          	or	a4,a5,a1
}
    5228:	01412483          	lw	s1,20(sp)
    522c:	01012903          	lw	s2,16(sp)
    5230:	00c12983          	lw	s3,12(sp)
    5234:	00070593          	mv	a1,a4
    5238:	02010113          	addi	sp,sp,32
    523c:	00008067          	ret
  FP_UNPACK_SEMIRAW_D (B, b);
    5240:	00070793          	mv	a5,a4
    5244:	00060513          	mv	a0,a2
  FP_SUB_D (R, A, B);
    5248:	00080493          	mv	s1,a6
    524c:	db9ff06f          	j	5004 <__subdf3+0x544>
    5250:	00000793          	li	a5,0
    5254:	00000513          	li	a0,0
    5258:	00000913          	li	s2,0
    525c:	f59ff06f          	j	51b4 <__subdf3+0x6f4>
    5260:	00000793          	li	a5,0
    5264:	ff5ff06f          	j	5258 <__subdf3+0x798>
    5268:	00000513          	li	a0,0
    526c:	00000913          	li	s2,0
    5270:	004007b7          	lui	a5,0x400
    5274:	b4dff06f          	j	4dc0 <__subdf3+0x300>
    5278:	00000793          	li	a5,0
    527c:	00000513          	li	a0,0
    5280:	f55ff06f          	j	51d4 <__subdf3+0x714>

00005284 <__unorddf2>:
  FP_DECL_D (A);
  FP_DECL_D (B);
  CMPtype r;

  FP_INIT_EXCEPTIONS;
  FP_UNPACK_RAW_D (A, a);
    5284:	001007b7          	lui	a5,0x100
    5288:	fff78793          	addi	a5,a5,-1 # fffff <__global_pointer$+0xf90a7>
    528c:	00b7f733          	and	a4,a5,a1
    5290:	0145d593          	srli	a1,a1,0x14
  FP_UNPACK_RAW_D (B, b);
  FP_CMP_UNORD_D (r, A, B, 1);
    5294:	fff5c593          	not	a1,a1
  FP_UNPACK_RAW_D (B, b);
    5298:	00d7f7b3          	and	a5,a5,a3
  FP_CMP_UNORD_D (r, A, B, 1);
    529c:	01559813          	slli	a6,a1,0x15
  FP_UNPACK_RAW_D (B, b);
    52a0:	0146d693          	srli	a3,a3,0x14
    52a4:	7ff6f693          	andi	a3,a3,2047
  FP_CMP_UNORD_D (r, A, B, 1);
    52a8:	00081863          	bnez	a6,52b8 <__unorddf2+0x34>
    52ac:	00a76733          	or	a4,a4,a0
    52b0:	00100513          	li	a0,1
    52b4:	00071c63          	bnez	a4,52cc <__unorddf2+0x48>
    52b8:	7ff00713          	li	a4,2047
    52bc:	00000513          	li	a0,0
    52c0:	00e69663          	bne	a3,a4,52cc <__unorddf2+0x48>
    52c4:	00c7e7b3          	or	a5,a5,a2
    52c8:	00f03533          	snez	a0,a5
  FP_HANDLE_EXCEPTIONS;

  return r;
}
    52cc:	00008067          	ret

000052d0 <__fixdfsi>:
  FP_DECL_EX;
  FP_DECL_D (A);
  USItype r;

  FP_INIT_EXCEPTIONS;
  FP_UNPACK_RAW_D (A, a);
    52d0:	0145d713          	srli	a4,a1,0x14
    52d4:	001006b7          	lui	a3,0x100
    52d8:	fff68793          	addi	a5,a3,-1 # fffff <__global_pointer$+0xf90a7>
    52dc:	7ff77713          	andi	a4,a4,2047
  FP_TO_INT_D (r, A, SI_BITS, 1);
    52e0:	3fe00613          	li	a2,1022
  FP_UNPACK_RAW_D (A, a);
    52e4:	00b7f7b3          	and	a5,a5,a1
    52e8:	01f5d593          	srli	a1,a1,0x1f
  FP_TO_INT_D (r, A, SI_BITS, 1);
    52ec:	04e65e63          	bge	a2,a4,5348 <__fixdfsi+0x78>
    52f0:	41d00613          	li	a2,1053
    52f4:	00e65a63          	bge	a2,a4,5308 <__fixdfsi+0x38>
    52f8:	80000537          	lui	a0,0x80000
    52fc:	fff54513          	not	a0,a0
    5300:	00a58533          	add	a0,a1,a0
    5304:	00008067          	ret
    5308:	00d7e7b3          	or	a5,a5,a3
    530c:	43300693          	li	a3,1075
    5310:	40e686b3          	sub	a3,a3,a4
    5314:	01f00613          	li	a2,31
    5318:	02d64063          	blt	a2,a3,5338 <__fixdfsi+0x68>
    531c:	bed70713          	addi	a4,a4,-1043
    5320:	00e797b3          	sll	a5,a5,a4
    5324:	00d55533          	srl	a0,a0,a3
    5328:	00a7e533          	or	a0,a5,a0
    532c:	02058063          	beqz	a1,534c <__fixdfsi+0x7c>
    5330:	40a00533          	neg	a0,a0
    5334:	00008067          	ret
    5338:	41300513          	li	a0,1043
    533c:	40e50533          	sub	a0,a0,a4
    5340:	00a7d533          	srl	a0,a5,a0
    5344:	fe9ff06f          	j	532c <__fixdfsi+0x5c>
    5348:	00000513          	li	a0,0
  FP_HANDLE_EXCEPTIONS;

  return r;
}
    534c:	00008067          	ret

00005350 <__floatsidf>:
#include "soft-fp.h"
#include "double.h"

DFtype
__floatsidf (SItype i)
{
    5350:	ff010113          	addi	sp,sp,-16
    5354:	00112623          	sw	ra,12(sp)
    5358:	00812423          	sw	s0,8(sp)
    535c:	00912223          	sw	s1,4(sp)
  FP_DECL_D (A);
  DFtype a;

  FP_FROM_INT_D (A, i, SI_BITS, USItype);
    5360:	08050463          	beqz	a0,53e8 <__floatsidf+0x98>
    5364:	41f55793          	srai	a5,a0,0x1f
    5368:	00a7c433          	xor	s0,a5,a0
    536c:	40f40433          	sub	s0,s0,a5
    5370:	01f55493          	srli	s1,a0,0x1f
    5374:	00040513          	mv	a0,s0
    5378:	15c000ef          	jal	ra,54d4 <__clzsi2>
    537c:	41e00713          	li	a4,1054
    5380:	00a00793          	li	a5,10
    5384:	40a70733          	sub	a4,a4,a0
    5388:	04a7c863          	blt	a5,a0,53d8 <__floatsidf+0x88>
    538c:	00b00793          	li	a5,11
    5390:	40a787b3          	sub	a5,a5,a0
    5394:	01550513          	addi	a0,a0,21 # 80000015 <__global_pointer$+0x7fff90bd>
    5398:	00f457b3          	srl	a5,s0,a5
    539c:	00a41433          	sll	s0,s0,a0
  FP_PACK_RAW_D (a, A);
    53a0:	00c79793          	slli	a5,a5,0xc
    53a4:	7ff77713          	andi	a4,a4,2047
    53a8:	01471713          	slli	a4,a4,0x14

  return a;
}
    53ac:	00040513          	mv	a0,s0
    53b0:	00c12083          	lw	ra,12(sp)
    53b4:	00812403          	lw	s0,8(sp)
  FP_PACK_RAW_D (a, A);
    53b8:	00c7d793          	srli	a5,a5,0xc
    53bc:	01f49493          	slli	s1,s1,0x1f
    53c0:	00e7e7b3          	or	a5,a5,a4
    53c4:	0097e733          	or	a4,a5,s1
}
    53c8:	00070593          	mv	a1,a4
    53cc:	00412483          	lw	s1,4(sp)
    53d0:	01010113          	addi	sp,sp,16
    53d4:	00008067          	ret
  FP_FROM_INT_D (A, i, SI_BITS, USItype);
    53d8:	ff550513          	addi	a0,a0,-11
    53dc:	00a417b3          	sll	a5,s0,a0
    53e0:	00000413          	li	s0,0
    53e4:	fbdff06f          	j	53a0 <__floatsidf+0x50>
    53e8:	00000793          	li	a5,0
    53ec:	00000413          	li	s0,0
    53f0:	00000713          	li	a4,0
    53f4:	00000493          	li	s1,0
    53f8:	fa9ff06f          	j	53a0 <__floatsidf+0x50>

000053fc <__mulsi3>:
/* Our RV64 64-bit routine is equivalent to our RV32 32-bit routine.  */
# define __muldi3 __mulsi3
#endif

FUNC_BEGIN (__muldi3)
  mv     a2, a0
    53fc:	00050613          	mv	a2,a0
  li     a0, 0
    5400:	00000513          	li	a0,0
.L1:
  andi   a3, a1, 1
    5404:	0015f693          	andi	a3,a1,1
  beqz   a3, .L2
    5408:	00068463          	beqz	a3,5410 <__mulsi3+0x14>
  add    a0, a0, a2
    540c:	00c50533          	add	a0,a0,a2
.L2:
  srli   a1, a1, 1
    5410:	0015d593          	srli	a1,a1,0x1
  slli   a2, a2, 1
    5414:	00161613          	slli	a2,a2,0x1
  bnez   a1, .L1
    5418:	fe0596e3          	bnez	a1,5404 <__mulsi3+0x8>
  ret
    541c:	00008067          	ret

00005420 <__divsi3>:
  li    t0, -1
  beq   a1, t0, .L20
#endif

FUNC_BEGIN (__divdi3)
  bltz  a0, .L10
    5420:	06054063          	bltz	a0,5480 <__umodsi3+0x10>
  bltz  a1, .L11
    5424:	0605c663          	bltz	a1,5490 <__umodsi3+0x20>

00005428 <__udivsi3>:
  /* Since the quotient is positive, fall into __udivdi3.  */

FUNC_BEGIN (__udivdi3)
  mv    a2, a1
    5428:	00058613          	mv	a2,a1
  mv    a1, a0
    542c:	00050593          	mv	a1,a0
  li    a0, -1
    5430:	fff00513          	li	a0,-1
  beqz  a2, .L5
    5434:	02060c63          	beqz	a2,546c <__udivsi3+0x44>
  li    a3, 1
    5438:	00100693          	li	a3,1
  bgeu  a2, a1, .L2
    543c:	00b67a63          	bgeu	a2,a1,5450 <__udivsi3+0x28>
.L1:
  blez  a2, .L2
    5440:	00c05863          	blez	a2,5450 <__udivsi3+0x28>
  slli  a2, a2, 1
    5444:	00161613          	slli	a2,a2,0x1
  slli  a3, a3, 1
    5448:	00169693          	slli	a3,a3,0x1
  bgtu  a1, a2, .L1
    544c:	feb66ae3          	bltu	a2,a1,5440 <__udivsi3+0x18>
.L2:
  li    a0, 0
    5450:	00000513          	li	a0,0
.L3:
  bltu  a1, a2, .L4
    5454:	00c5e663          	bltu	a1,a2,5460 <__udivsi3+0x38>
  sub   a1, a1, a2
    5458:	40c585b3          	sub	a1,a1,a2
  or    a0, a0, a3
    545c:	00d56533          	or	a0,a0,a3
.L4:
  srli  a3, a3, 1
    5460:	0016d693          	srli	a3,a3,0x1
  srli  a2, a2, 1
    5464:	00165613          	srli	a2,a2,0x1
  bnez  a3, .L3
    5468:	fe0696e3          	bnez	a3,5454 <__udivsi3+0x2c>
.L5:
  ret
    546c:	00008067          	ret

00005470 <__umodsi3>:
FUNC_END (__udivdi3)

FUNC_BEGIN (__umoddi3)
  /* Call __udivdi3(a0, a1), then return the remainder, which is in a1.  */
  move  t0, ra
    5470:	00008293          	mv	t0,ra
  jal   __udivdi3
    5474:	fb5ff0ef          	jal	ra,5428 <__udivsi3>
  move  a0, a1
    5478:	00058513          	mv	a0,a1
  jr    t0
    547c:	00028067          	jr	t0
FUNC_END (__umoddi3)

  /* Handle negative arguments to __divdi3.  */
.L10:
  neg   a0, a0
    5480:	40a00533          	neg	a0,a0
  bgez  a1, .L12      /* Compute __udivdi3(-a0, a1), then negate the result.  */
    5484:	0005d863          	bgez	a1,5494 <__umodsi3+0x24>
  neg   a1, a1
